

HI-TECH Software PIC LITE Macro Assembler V9.82 build 9453 
                                                                                               Thu Aug 24 12:54:33 2017

HI-TECH Software Omniscient Code Generator (Lite mode) build 9453
     1  0000                     opt subtitle "HI-TECH Software Omniscient Code Generator (Lite mode) build 9453"
     2                           
     3                           opt pagewidth 120
     4                           
     5                           	opt lm
     6                           
     7                           	processor	16F887
     8                           clrc	macro
     9                           	bcf	3,0
    10  0000                     	endm
    11                           clrz	macro
    12                           	bcf	3,2
    13  0000                     	endm
    14                           setc	macro
    15                           	bsf	3,0
    16  0000                     	endm
    17                           setz	macro
    18                           	bsf	3,2
    19  0000                     	endm
    20                           skipc	macro
    21                           	btfss	3,0
    22  0000                     	endm
    23                           skipz	macro
    24                           	btfss	3,2
    25  0000                     	endm
    26                           skipnc	macro
    27                           	btfsc	3,0
    28  0000                     	endm
    29                           skipnz	macro
    30                           	btfsc	3,2
    31  0000                     	endm
    32  0000                     indf	equ	0
    33  0000                     indf0	equ	0
    34  0002                     pc	equ	2
    35  0002                     pcl	equ	2
    36  0003                     status	equ	3
    37  0004                     fsr	equ	4
    38  0004                     fsr0	equ	4
    39  0001                     c	equ	1
    40  0000                     z	equ	0
    41  000A                     pclath	equ	10
    42                           # 58 "FM_RADIO_main.c"
    43                           	psect eeprom_data,class=EEDATA,delta=2,space=2 ;#
    44                           # 58 "FM_RADIO_main.c"
    45  0000  000F 000F 004C     	db	15,15,76,5,0,0,0,0 ;#
              0005 0000 0000     
              0000 0000          
    46                           # 60 "FM_RADIO_main.c"
    47                           	psect eeprom_data,class=EEDATA,delta=2,space=2 ;#
    48                           # 60 "FM_RADIO_main.c"
    49  0008  004C 0050 0056     	db	76,80,86,80,83,78,78,81 ;#
              0050 0053 004E     
              004E 0051          
    50                           # 61 "FM_RADIO_main.c"
    51                           	psect eeprom_data,class=EEDATA,delta=2,space=2 ;#
    52                           # 61 "FM_RADIO_main.c"
    53  0010  004F 0052 0054     	db	79,82,84,85,80,77,79,78 ;#
              0055 0050 004D     
              004F 004E          
    54                           # 62 "FM_RADIO_main.c"
    55                           	psect eeprom_data,class=EEDATA,delta=2,space=2 ;#
    56                           # 62 "FM_RADIO_main.c"
    57  0018  0000 0000 0000     	db	0,0,0,0,0,0,0,0 ;#
              0000 0000 0000     
              0000 0000          
    58                           # 63 "FM_RADIO_main.c"
    59                           	psect eeprom_data,class=EEDATA,delta=2,space=2 ;#
    60                           # 63 "FM_RADIO_main.c"
    61  0020  0000 0000 0000     	db	0,0,0,0,0,0,0,0 ;#
              0000 0000 0000     
              0000 0000          
    62                           # 64 "FM_RADIO_main.c"
    63                           	psect eeprom_data,class=EEDATA,delta=2,space=2 ;#
    64                           # 64 "FM_RADIO_main.c"
    65  0028  0005 0000 0001     	db	5,0,1,3,6,5,3,5 ;#
              0003 0006 0005     
              0003 0005          
    66                           # 65 "FM_RADIO_main.c"
    67                           	psect eeprom_data,class=EEDATA,delta=2,space=2 ;#
    68                           # 65 "FM_RADIO_main.c"
    69  0030  0003 0001 0003     	db	3,1,3,6,7,8,5,9 ;#
              0006 0007 0008     
              0005 0009          
    70                           # 66 "FM_RADIO_main.c"
    71                           	psect eeprom_data,class=EEDATA,delta=2,space=2 ;#
    72                           # 66 "FM_RADIO_main.c"
    73  0038  0000 0000 0000     	db	0,0,0,0,0,0,0,0 ;#
              0000 0000 0000     
              0000 0000          
    74                           # 67 "FM_RADIO_main.c"
    75                           	psect eeprom_data,class=EEDATA,delta=2,space=2 ;#
    76                           # 67 "FM_RADIO_main.c"
    77  0040  0000 0000 0000     	db	0,0,0,0,0,0,0,0 ;#
              0000 0000 0000     
              0000 0000          
    78                           # 68 "FM_RADIO_main.c"
    79                           	psect eeprom_data,class=EEDATA,delta=2,space=2 ;#
    80                           # 68 "FM_RADIO_main.c"
    81  0048  0000 0000 0000     	db	0,0,0,0,0,0,0,0 ;#
              0000 0000 0000     
              0000 0000          
    82                           # 70 "FM_RADIO_main.c"
    83                           	psect eeprom_data,class=EEDATA,delta=2,space=2 ;#
    84                           # 70 "FM_RADIO_main.c"
    85  0050  0000 0000 0000     	db	0,0,0,48,9,46,1,0 ;#
              0030 0009 002E     
              0001 0000          
    86                           # 74 "FM_RADIO_main.c"
    87                           	psect config,class=CONFIG,delta=2 ;#
    88                           # 74 "FM_RADIO_main.c"
    89  2007  E0C4               	dw 0xFCFF & 0xFFFF & 0xEFFF & 0xF7FF & 0xFBFF & 0xFFFF & 0xFFFF & 0xFFDF & 0xFFEF & 0xF
                                 FFC & 0xFFF7 ;#
    90                           	FNCALL	_main,_oscsel
    91                           	FNCALL	_main,_eeprom_read
    92                           	FNCALL	_main,___wmul
    93                           	FNCALL	_main,_lcd_RS
    94                           	FNCALL	_main,_fmIC_RS
    95                           	FNCALL	_main,_fmIC_VOL
    96                           	FNCALL	_main,_lcd_int
    97                           	FNCALL	_main,_lcd_float
    98                           	FNCALL	_main,_start_LCD_POINT
    99                           	FNCALL	_main,_fm_fcon_write
   100                           	FNCALL	_main,_i2c_byte_read
   101                           	FNCALL	_main,_i2c_byte_write
   102                           	FNCALL	_main,_fm_serch
   103                           	FNCALL	_main,_memory_fcont
   104                           	FNCALL	_main,_fmNo_in
   105                           	FNCALL	_main,_eeprom_write
   106                           	FNCALL	_main,___awdiv
   107                           	FNCALL	_main,___awmod
   108                           	FNCALL	_fmNo_in,_memory_fcont
   109                           	FNCALL	_fmNo_in,_i2c_byte_write
   110                           	FNCALL	_fmNo_in,_lcd_int
   111                           	FNCALL	_fmNo_in,_lcd_float
   112                           	FNCALL	_fmNo_in,_buss_boost
   113                           	FNCALL	_fmNo_in,_seek_SNR
   114                           	FNCALL	_fmNo_in,_seek_RSSI
   115                           	FNCALL	_fmNo_in,_start_LCD_POINT
   116                           	FNCALL	_fm_serch,_eeprom_read
   117                           	FNCALL	_fm_serch,_fm_fcon_write
   118                           	FNCALL	_fm_serch,_lcd_float
   119                           	FNCALL	_fm_serch,_i2c_byte_read
   120                           	FNCALL	_fm_serch,___wmul
   121                           	FNCALL	_fm_serch,_i2c_byte_write
   122                           	FNCALL	_buss_boost,_i2c_byte_read
   123                           	FNCALL	_buss_boost,_i2c_byte_write
   124                           	FNCALL	_buss_boost,_lcd_int
   125                           	FNCALL	_buss_boost,_eeprom_read
   126                           	FNCALL	_buss_boost,_fm_fcon_write
   127                           	FNCALL	_buss_boost,_eeprom_write
   128                           	FNCALL	_seek_SNR,_eeprom_read
   129                           	FNCALL	_seek_SNR,_lcd_int
   130                           	FNCALL	_seek_SNR,_i2c_byte_read
   131                           	FNCALL	_seek_SNR,_i2c_byte_write
   132                           	FNCALL	_seek_SNR,_eeprom_write
   133                           	FNCALL	_seek_RSSI,_eeprom_read
   134                           	FNCALL	_seek_RSSI,_lcd_int
   135                           	FNCALL	_seek_RSSI,_i2c_byte_read
   136                           	FNCALL	_seek_RSSI,___wmul
   137                           	FNCALL	_seek_RSSI,_i2c_byte_write
   138                           	FNCALL	_seek_RSSI,_eeprom_write
   139                           	FNCALL	_fm_fcon_write,_i2c_byte_write
   140                           	FNCALL	_start_LCD_POINT,_i2c_byte_write
   141                           	FNCALL	_lcd_float,___lwdiv
   142                           	FNCALL	_lcd_float,___wmul
   143                           	FNCALL	_lcd_float,___lwmod
   144                           	FNCALL	_lcd_float,_i2c_byte_write
   145                           	FNCALL	_lcd_int,___lwmod
   146                           	FNCALL	_lcd_int,___lwdiv
   147                           	FNCALL	_lcd_int,_i2c_byte_write
   148                           	FNCALL	_fmIC_VOL,_i2c_byte_write
   149                           	FNCALL	_fmIC_RS,_i2c_byte_write
   150                           	FNCALL	_fmIC_RS,_eeprom_read
   151                           	FNCALL	_lcd_RS,_i2c_byte_write
   152                           	FNCALL	_i2c_byte_read,_i2c_Tx
   153                           	FNCALL	_i2c_byte_write,_i2c_Tx
   154                           	FNCALL	_memory_fcont,_eeprom_read
   155                           	FNCALL	_memory_fcont,___wmul
   156                           	FNCALL	_memory_fcont,___awdiv
   157                           	FNCALL	_memory_fcont,_eeprom_write
   158                           	FNCALL	_memory_fcont,___awmod
   159                           	FNROOT	_main
   160                           	FNCALL	intlevel1,_InterTimer
   161                           	global	intlevel1
   162                           	FNROOT	intlevel1
   163                           	global	_fcont_pp
   164                           psect	idataCOMMON,class=CODE,space=0,delta=2
   165                           global __pidataCOMMON
   166  07FD                     __pidataCOMMON:
   167                           	file	"FM_RADIO_main.c"
   168                           	line	49
   169                           
   170                           ;initializer for _fcont_pp
   171  07FD  34FD               	retlw	0FDh
   172  07FE  3402               	retlw	02h
   173                           
   174                           	global	_TMR1ON_Flag
   175                           	global	_SSPBUF
   176  0013                     _SSPBUF	set	19
   177                           	global	_SSPCON
   178  0014                     _SSPCON	set	20
   179                           	global	_T1CON
   180  0010                     _T1CON	set	16
   181                           	global	_TMR1H
   182  000F                     _TMR1H	set	15
   183                           	global	_TMR1L
   184  000E                     _TMR1L	set	14
   185                           	global	_CARRY
   186  0018                     _CARRY	set	24
   187                           	global	_GIE
   188  005F                     _GIE	set	95
   189                           	global	_PEIE
   190  005E                     _PEIE	set	94
   191                           	global	_RA1
   192  0029                     _RA1	set	41
   193                           	global	_RA2
   194  002A                     _RA2	set	42
   195                           	global	_RA3
   196  002B                     _RA3	set	43
   197                           	global	_RA6
   198  002E                     _RA6	set	46
   199                           	global	_RB3
   200  0033                     _RB3	set	51
   201                           	global	_RC1
   202  0039                     _RC1	set	57
   203                           	global	_RC5
   204  003D                     _RC5	set	61
   205                           	global	_RC6
   206  003E                     _RC6	set	62
   207                           	global	_RD0
   208  0040                     _RD0	set	64
   209                           	global	_RD4
   210  0044                     _RD4	set	68
   211                           	global	_SSPIF
   212  0063                     _SSPIF	set	99
   213                           	global	_TMR1IF
   214  0060                     _TMR1IF	set	96
   215                           	global	_TMR1ON
   216  0080                     _TMR1ON	set	128
   217                           	global	_OSCCON
   218  008F                     _OSCCON	set	143
   219                           	global	_SSPADD
   220  0093                     _SSPADD	set	147
   221                           	global	_SSPSTAT
   222  0094                     _SSPSTAT	set	148
   223                           	global	_TRISA
   224  0085                     _TRISA	set	133
   225                           	global	_TRISB
   226  0086                     _TRISB	set	134
   227                           	global	_TRISC
   228  0087                     _TRISC	set	135
   229                           	global	_TRISD
   230  0088                     _TRISD	set	136
   231                           	global	_ACKDT
   232  048D                     _ACKDT	set	1165
   233                           	global	_ACKEN
   234  048C                     _ACKEN	set	1164
   235                           	global	_BF
   236  04A0                     _BF	set	1184
   237                           	global	_PEN
   238  048A                     _PEN	set	1162
   239                           	global	_RCEN
   240  048B                     _RCEN	set	1163
   241                           	global	_RSEN
   242  0489                     _RSEN	set	1161
   243                           	global	_SEN
   244  0488                     _SEN	set	1160
   245                           	global	_TMR1IE
   246  0460                     _TMR1IE	set	1120
   247                           	global	_EEADR
   248  010D                     _EEADR	set	269
   249                           	global	_EEDATA
   250  010C                     _EEDATA	set	268
   251                           	global	_ANSEL
   252  0188                     _ANSEL	set	392
   253                           	global	_ANSELH
   254  0189                     _ANSELH	set	393
   255                           	global	_EECON1
   256  018C                     _EECON1	set	396
   257                           	global	_EECON2
   258  018D                     _EECON2	set	397
   259                           	global	_RD
   260  0C60                     _RD	set	3168
   261                           	global	_WR
   262  0C61                     _WR	set	3169
   263                           	global	_WREN
   264  0C62                     _WREN	set	3170
   265                           	file	"C:\Users\USER\AppData\Local\Temp\s4nc."
   266                           	line	#
   267                           psect cinit,class=CODE,delta=2
   268                           global start_initialization
   269  1808                     start_initialization:
   270                           
   271                           psect	bssCOMMON,class=COMMON,space=1
   272                           global __pbssCOMMON
   273  0076                     __pbssCOMMON:
   274  0076                     _TMR1ON_Flag:
   275  0076                            ds      2
   276                           
   277                           psect	dataCOMMON,class=COMMON,space=1
   278                           global __pdataCOMMON
   279  0078                     __pdataCOMMON:
   280                           	file	"FM_RADIO_main.c"
   281  0078                     _fcont_pp:
   282  0078                            ds      2
   283                           
   284                           ; Clear objects allocated to COMMON
   285                           psect cinit,class=CODE,delta=2
   286  1808  01F6               	clrf	((__pbssCOMMON)+0)&07Fh
   287  1809  01F7               	clrf	((__pbssCOMMON)+1)&07Fh
   288                           ; Initialize objects allocated to COMMON
   289                           	global __pidataCOMMON
   290                           psect cinit,class=CODE,delta=2
   291  180A  120A  118A  27FD   	fcall	__pidataCOMMON+0		;fetch initializer
              160A  158A         
   292  180F  00F8               	movwf	__pdataCOMMON+0&07fh		
   293  1810  120A  118A  27FE   	fcall	__pidataCOMMON+1		;fetch initializer
              160A  158A         
   294  1815  00F9               	movwf	__pdataCOMMON+1&07fh		
   295                           psect cinit,class=CODE,delta=2
   296                           global end_of_initialization
   297                           
   298                           ;End of C runtime variable initialization code
   299                           
   300  1816                     end_of_initialization:
   301  1816  0183               clrf status
   302  1817  160A  118A  282C   ljmp _main	;jump to C main() function
   303                           psect	cstackBANK1,class=BANK1,space=1
   304                           global __pcstackBANK1
   305  00A0                     __pcstackBANK1:
   306                           	global	main@PW_STAT
   307  00A0                     main@PW_STAT:	; 2 bytes @ 0x0
   308  00A0                     	ds	2
   309                           	global	main@MAIN_STAT
   310  00A2                     main@MAIN_STAT:	; 2 bytes @ 0x2
   311  00A2                     	ds	2
   312                           	global	main@MAIN_CON
   313  00A4                     main@MAIN_CON:	; 2 bytes @ 0x4
   314  00A4                     	ds	2
   315                           	global	main@LIP
   316  00A6                     main@LIP:	; 2 bytes @ 0x6
   317  00A6                     	ds	2
   318                           	global	main@c
   319  00A8                     main@c:	; 2 bytes @ 0x8
   320  00A8                     	ds	2
   321                           	global	main@UPf
   322  00AA                     main@UPf:	; 2 bytes @ 0xA
   323  00AA                     	ds	2
   324                           	global	main@DWf
   325  00AC                     main@DWf:	; 2 bytes @ 0xC
   326  00AC                     	ds	2
   327                           	global	main@VOL_STAT
   328  00AE                     main@VOL_STAT:	; 2 bytes @ 0xE
   329  00AE                     	ds	2
   330                           	global	main@cnt1
   331  00B0                     main@cnt1:	; 2 bytes @ 0x10
   332  00B0                     	ds	2
   333                           	global	main@FMVOL
   334  00B2                     main@FMVOL:	; 2 bytes @ 0x12
   335  00B2                     	ds	2
   336                           	global	main@fmNo
   337  00B4                     main@fmNo:	; 2 bytes @ 0x14
   338  00B4                     	ds	2
   339                           psect	cstackCOMMON,class=COMMON,space=1
   340                           global __pcstackCOMMON
   341  0070                     __pcstackCOMMON:
   342                           	global	?_InterTimer
   343  0070                     ?_InterTimer:	; 0 bytes @ 0x0
   344                           	global	??_InterTimer
   345  0070                     ??_InterTimer:	; 0 bytes @ 0x0
   346                           	global	?_eeprom_read
   347  0070                     ?_eeprom_read:	; 1 bytes @ 0x0
   348                           	global	?_i2c_Tx
   349  0070                     ?_i2c_Tx:	; 2 bytes @ 0x0
   350                           	global	?_lcd_RS
   351  0070                     ?_lcd_RS:	; 2 bytes @ 0x0
   352                           	global	?_fmIC_RS
   353  0070                     ?_fmIC_RS:	; 2 bytes @ 0x0
   354                           	global	?_fmIC_VOL
   355  0070                     ?_fmIC_VOL:	; 2 bytes @ 0x0
   356                           	global	?_start_LCD_POINT
   357  0070                     ?_start_LCD_POINT:	; 2 bytes @ 0x0
   358                           	global	?_seek_RSSI
   359  0070                     ?_seek_RSSI:	; 2 bytes @ 0x0
   360                           	global	?_seek_SNR
   361  0070                     ?_seek_SNR:	; 2 bytes @ 0x0
   362                           	global	?_buss_boost
   363  0070                     ?_buss_boost:	; 2 bytes @ 0x0
   364                           	global	?_main
   365  0070                     ?_main:	; 2 bytes @ 0x0
   366  0070                     	ds	4
   367                           	global	??_eeprom_read
   368  0074                     ??_eeprom_read:	; 0 bytes @ 0x4
   369                           	global	??_i2c_Tx
   370  0074                     ??_i2c_Tx:	; 0 bytes @ 0x4
   371                           	global	??___lwmod
   372  0074                     ??___lwmod:	; 0 bytes @ 0x4
   373                           	global	??___awdiv
   374  0074                     ??___awdiv:	; 0 bytes @ 0x4
   375                           	global	??___awmod
   376  0074                     ??___awmod:	; 0 bytes @ 0x4
   377                           	global	?_oscsel
   378  0074                     ?_oscsel:	; 2 bytes @ 0x4
   379                           	global	i2c_Tx@date
   380  0074                     i2c_Tx@date:	; 1 bytes @ 0x4
   381                           	global	oscsel@sel1
   382  0074                     oscsel@sel1:	; 2 bytes @ 0x4
   383  0074                     	ds	1
   384                           	global	?_eeprom_write
   385  0075                     ?_eeprom_write:	; 1 bytes @ 0x5
   386                           	global	eeprom_read@addr
   387  0075                     eeprom_read@addr:	; 1 bytes @ 0x5
   388                           	global	eeprom_write@value
   389  0075                     eeprom_write@value:	; 1 bytes @ 0x5
   390                           	global	___lwmod@counter
   391  0075                     ___lwmod@counter:	; 1 bytes @ 0x5
   392  0075                     	ds	1
   393                           	global	??_oscsel
   394  0076                     ??_oscsel:	; 0 bytes @ 0x6
   395                           	global	??___wmul
   396  0076                     ??___wmul:	; 0 bytes @ 0x6
   397                           psect	cstackBANK0,class=BANK0,space=1
   398                           global __pcstackBANK0
   399  0020                     __pcstackBANK0:
   400                           	global	?_i2c_byte_write
   401  0020                     ?_i2c_byte_write:	; 2 bytes @ 0x0
   402                           	global	?___wmul
   403  0020                     ?___wmul:	; 2 bytes @ 0x0
   404                           	global	?___lwmod
   405  0020                     ?___lwmod:	; 2 bytes @ 0x0
   406                           	global	?___awdiv
   407  0020                     ?___awdiv:	; 2 bytes @ 0x0
   408                           	global	?___awmod
   409  0020                     ?___awmod:	; 2 bytes @ 0x0
   410                           	global	i2c_byte_write@sel
   411  0020                     i2c_byte_write@sel:	; 2 bytes @ 0x0
   412                           	global	___wmul@multiplier
   413  0020                     ___wmul@multiplier:	; 2 bytes @ 0x0
   414                           	global	___lwmod@divisor
   415  0020                     ___lwmod@divisor:	; 2 bytes @ 0x0
   416                           	global	___awdiv@divisor
   417  0020                     ___awdiv@divisor:	; 2 bytes @ 0x0
   418                           	global	___awmod@divisor
   419  0020                     ___awmod@divisor:	; 2 bytes @ 0x0
   420  0020                     	ds	2
   421                           	global	i2c_byte_write@add
   422  0022                     i2c_byte_write@add:	; 1 bytes @ 0x2
   423                           	global	___wmul@multiplicand
   424  0022                     ___wmul@multiplicand:	; 2 bytes @ 0x2
   425                           	global	___lwmod@dividend
   426  0022                     ___lwmod@dividend:	; 2 bytes @ 0x2
   427                           	global	___awdiv@dividend
   428  0022                     ___awdiv@dividend:	; 2 bytes @ 0x2
   429                           	global	___awmod@dividend
   430  0022                     ___awmod@dividend:	; 2 bytes @ 0x2
   431  0022                     	ds	1
   432                           	global	i2c_byte_write@cmd
   433  0023                     i2c_byte_write@cmd:	; 1 bytes @ 0x3
   434  0023                     	ds	1
   435                           	global	i2c_byte_write@date1
   436  0024                     i2c_byte_write@date1:	; 1 bytes @ 0x4
   437                           	global	___awdiv@counter
   438  0024                     ___awdiv@counter:	; 1 bytes @ 0x4
   439                           	global	___awmod@counter
   440  0024                     ___awmod@counter:	; 1 bytes @ 0x4
   441                           	global	___wmul@product
   442  0024                     ___wmul@product:	; 2 bytes @ 0x4
   443  0024                     	ds	1
   444                           	global	i2c_byte_write@date2
   445  0025                     i2c_byte_write@date2:	; 1 bytes @ 0x5
   446                           	global	___awdiv@sign
   447  0025                     ___awdiv@sign:	; 1 bytes @ 0x5
   448                           	global	___awmod@sign
   449  0025                     ___awmod@sign:	; 1 bytes @ 0x5
   450  0025                     	ds	1
   451                           	global	??_i2c_byte_write
   452  0026                     ??_i2c_byte_write:	; 0 bytes @ 0x6
   453                           	global	?_i2c_byte_read
   454  0026                     ?_i2c_byte_read:	; 2 bytes @ 0x6
   455                           	global	?___lwdiv
   456  0026                     ?___lwdiv:	; 2 bytes @ 0x6
   457                           	global	i2c_byte_read@sel
   458  0026                     i2c_byte_read@sel:	; 2 bytes @ 0x6
   459                           	global	___lwdiv@divisor
   460  0026                     ___lwdiv@divisor:	; 2 bytes @ 0x6
   461                           	global	___awdiv@quotient
   462  0026                     ___awdiv@quotient:	; 2 bytes @ 0x6
   463  0026                     	ds	1
   464                           	global	??_lcd_RS
   465  0027                     ??_lcd_RS:	; 0 bytes @ 0x7
   466                           	global	??_fmIC_RS
   467  0027                     ??_fmIC_RS:	; 0 bytes @ 0x7
   468                           	global	??_fmIC_VOL
   469  0027                     ??_fmIC_VOL:	; 0 bytes @ 0x7
   470                           	global	??_start_LCD_POINT
   471  0027                     ??_start_LCD_POINT:	; 0 bytes @ 0x7
   472  0027                     	ds	1
   473                           	global	??_eeprom_write
   474  0028                     ??_eeprom_write:	; 0 bytes @ 0x8
   475                           	global	i2c_byte_read@add
   476  0028                     i2c_byte_read@add:	; 1 bytes @ 0x8
   477                           	global	___lwdiv@dividend
   478  0028                     ___lwdiv@dividend:	; 2 bytes @ 0x8
   479  0028                     	ds	1
   480                           	global	i2c_byte_read@regadd
   481  0029                     i2c_byte_read@regadd:	; 1 bytes @ 0x9
   482                           	global	eeprom_write@addr
   483  0029                     eeprom_write@addr:	; 1 bytes @ 0x9
   484  0029                     	ds	1
   485                           	global	??_i2c_byte_read
   486  002A                     ??_i2c_byte_read:	; 0 bytes @ 0xA
   487                           	global	??___lwdiv
   488  002A                     ??___lwdiv:	; 0 bytes @ 0xA
   489                           	global	?_memory_fcont
   490  002A                     ?_memory_fcont:	; 2 bytes @ 0xA
   491                           	global	fmIC_VOL@vol
   492  002A                     fmIC_VOL@vol:	; 1 bytes @ 0xA
   493                           	global	memory_fcont@sel
   494  002A                     memory_fcont@sel:	; 2 bytes @ 0xA
   495  002A                     	ds	1
   496                           	global	___lwdiv@counter
   497  002B                     ___lwdiv@counter:	; 1 bytes @ 0xB
   498  002B                     	ds	1
   499                           	global	memory_fcont@add
   500  002C                     memory_fcont@add:	; 2 bytes @ 0xC
   501                           	global	i2c_byte_read@read_data
   502  002C                     i2c_byte_read@read_data:	; 2 bytes @ 0xC
   503                           	global	___lwdiv@quotient
   504  002C                     ___lwdiv@quotient:	; 2 bytes @ 0xC
   505  002C                     	ds	2
   506                           	global	?_lcd_int
   507  002E                     ?_lcd_int:	; 2 bytes @ 0xE
   508                           	global	memory_fcont@fcont
   509  002E                     memory_fcont@fcont:	; 2 bytes @ 0xE
   510                           	global	lcd_int@sel
   511  002E                     lcd_int@sel:	; 2 bytes @ 0xE
   512  002E                     	ds	2
   513                           	global	??_memory_fcont
   514  0030                     ??_memory_fcont:	; 0 bytes @ 0x10
   515                           	global	lcd_int@charadd
   516  0030                     lcd_int@charadd:	; 2 bytes @ 0x10
   517  0030                     	ds	2
   518                           	global	lcd_int@cnt1
   519  0032                     lcd_int@cnt1:	; 2 bytes @ 0x12
   520  0032                     	ds	1
   521                           	global	memory_fcont@fcon
   522  0033                     memory_fcont@fcon:	; 2 bytes @ 0x13
   523  0033                     	ds	1
   524                           	global	??_lcd_int
   525  0034                     ??_lcd_int:	; 0 bytes @ 0x14
   526  0034                     	ds	1
   527                           	global	?_lcd_float
   528  0035                     ?_lcd_float:	; 2 bytes @ 0x15
   529                           	global	?_fm_fcon_write
   530  0035                     ?_fm_fcon_write:	; 2 bytes @ 0x15
   531                           	global	lcd_float@charadd
   532  0035                     lcd_float@charadd:	; 2 bytes @ 0x15
   533                           	global	fm_fcon_write@fconv
   534  0035                     fm_fcon_write@fconv:	; 2 bytes @ 0x15
   535  0035                     	ds	2
   536                           	global	??_fm_fcon_write
   537  0037                     ??_fm_fcon_write:	; 0 bytes @ 0x17
   538                           	global	lcd_int@LCD_2
   539  0037                     lcd_int@LCD_2:	; 2 bytes @ 0x17
   540                           	global	lcd_float@cnt1
   541  0037                     lcd_float@cnt1:	; 2 bytes @ 0x17
   542  0037                     	ds	2
   543                           	global	??_lcd_float
   544  0039                     ??_lcd_float:	; 0 bytes @ 0x19
   545                           	global	lcd_int@LCD_1
   546  0039                     lcd_int@LCD_1:	; 2 bytes @ 0x19
   547  0039                     	ds	2
   548                           	global	??_seek_RSSI
   549  003B                     ??_seek_RSSI:	; 0 bytes @ 0x1B
   550                           	global	??_seek_SNR
   551  003B                     ??_seek_SNR:	; 0 bytes @ 0x1B
   552  003B                     	ds	1
   553                           	global	lcd_float@LCD_2
   554  003C                     lcd_float@LCD_2:	; 2 bytes @ 0x1C
   555  003C                     	ds	2
   556                           	global	lcd_float@LCD_1
   557  003E                     lcd_float@LCD_1:	; 2 bytes @ 0x1E
   558  003E                     	ds	1
   559                           	global	seek_RSSI@endf
   560  003F                     seek_RSSI@endf:	; 2 bytes @ 0x1F
   561  003F                     	ds	1
   562                           	global	lcd_float@LCD_3
   563  0040                     lcd_float@LCD_3:	; 2 bytes @ 0x20
   564  0040                     	ds	1
   565                           	global	seek_RSSI@RSSI
   566  0041                     seek_RSSI@RSSI:	; 2 bytes @ 0x21
   567  0041                     	ds	1
   568                           	global	??_buss_boost
   569  0042                     ??_buss_boost:	; 0 bytes @ 0x22
   570                           	global	?_fm_serch
   571  0042                     ?_fm_serch:	; 2 bytes @ 0x22
   572                           	global	fm_serch@sel
   573  0042                     fm_serch@sel:	; 2 bytes @ 0x22
   574  0042                     	ds	2
   575                           	global	fm_serch@fcon
   576  0044                     fm_serch@fcon:	; 2 bytes @ 0x24
   577  0044                     	ds	1
   578                           	global	seek_SNR@endf
   579  0045                     seek_SNR@endf:	; 2 bytes @ 0x25
   580  0045                     	ds	1
   581                           	global	??_fm_serch
   582  0046                     ??_fm_serch:	; 0 bytes @ 0x26
   583                           	global	buss_boost@boost
   584  0046                     buss_boost@boost:	; 1 bytes @ 0x26
   585  0046                     	ds	1
   586                           	global	seek_SNR@SNR
   587  0047                     seek_SNR@SNR:	; 2 bytes @ 0x27
   588  0047                     	ds	2
   589                           	global	?_fmNo_in
   590  0049                     ?_fmNo_in:	; 2 bytes @ 0x29
   591                           	global	fmNo_in@fmNo
   592  0049                     fmNo_in@fmNo:	; 2 bytes @ 0x29
   593  0049                     	ds	2
   594                           	global	fmNo_in@fcont
   595  004B                     fmNo_in@fcont:	; 2 bytes @ 0x2B
   596  004B                     	ds	2
   597                           	global	??_fmNo_in
   598  004D                     ??_fmNo_in:	; 0 bytes @ 0x2D
   599  004D                     	ds	3
   600                           	global	fmNo_in@okf
   601  0050                     fmNo_in@okf:	; 2 bytes @ 0x30
   602                           	global	fm_serch@memSNR
   603  0050                     fm_serch@memSNR:	; 2 bytes @ 0x30
   604  0050                     	ds	2
   605                           	global	fmNo_in@fcon
   606  0052                     fmNo_in@fcon:	; 2 bytes @ 0x32
   607                           	global	fm_serch@RSSI
   608  0052                     fm_serch@RSSI:	; 2 bytes @ 0x32
   609  0052                     	ds	2
   610                           	global	fmNo_in@endf
   611  0054                     fmNo_in@endf:	; 2 bytes @ 0x34
   612                           	global	fm_serch@endf
   613  0054                     fm_serch@endf:	; 2 bytes @ 0x34
   614  0054                     	ds	2
   615                           	global	fm_serch@endrssi
   616  0056                     fm_serch@endrssi:	; 2 bytes @ 0x36
   617  0056                     	ds	2
   618                           	global	fm_serch@aSERC_1
   619  0058                     fm_serch@aSERC_1:	; 2 bytes @ 0x38
   620  0058                     	ds	2
   621                           	global	??_main
   622  005A                     ??_main:	; 0 bytes @ 0x3A
   623  005A                     	ds	4
   624 ;;Data sizes: Strings 0, constant 0, data 2, bss 2, persistent 0 stack 0
   625 ;;Auto spaces:   Size  Autos    Used
   626 ;; COMMON          14      6      10
   627 ;; BANK0           80     62      62
   628 ;; BANK1           80     22      22
   629 ;; BANK3           96      0       0
   630 ;; BANK2           96      0       0
   631                           
   632 ;;
   633 ;; Pointer list with targets:
   634                           
   635 ;; ?_fm_serch	int  size(1) Largest target is 0
   636 ;;
   637 ;; ?___lwdiv	unsigned int  size(1) Largest target is 0
   638 ;;
   639 ;; ?___lwmod	unsigned int  size(1) Largest target is 0
   640 ;;
   641 ;; ?_i2c_byte_read	int  size(1) Largest target is 0
   642 ;;
   643 ;; ?_memory_fcont	int  size(1) Largest target is 0
   644 ;;
   645 ;; ?___awmod	int  size(1) Largest target is 0
   646 ;;
   647 ;; ?___awdiv	int  size(1) Largest target is 0
   648 ;;
   649 ;; ?___wmul	unsigned int  size(1) Largest target is 0
   650 ;;
   651                           
   652                           
   653 ;;
   654 ;; Critical Paths under _main in COMMON
   655 ;;
   656 ;;   _main->_oscsel
   657 ;;   _main->_eeprom_read
   658 ;;   _main->_eeprom_write
   659 ;;   _fm_serch->_eeprom_read
   660 ;;   _buss_boost->_eeprom_read
   661 ;;   _buss_boost->_eeprom_write
   662 ;;   _seek_SNR->_eeprom_read
   663 ;;   _seek_SNR->_eeprom_write
   664 ;;   _seek_RSSI->_eeprom_read
   665 ;;   _seek_RSSI->_eeprom_write
   666 ;;   _lcd_float->___lwmod
   667 ;;   _lcd_int->___lwmod
   668 ;;   _fmIC_RS->_eeprom_read
   669 ;;   _i2c_byte_write->_eeprom_read
   670 ;;   _memory_fcont->_eeprom_read
   671 ;;   _memory_fcont->_eeprom_write
   672 ;;   ___wmul->_eeprom_read
   673 ;;   _eeprom_write->___awdiv
   674 ;;   _eeprom_write->___awmod
   675 ;;
   676 ;; Critical Paths under _InterTimer in COMMON
   677 ;;
   678 ;;   None.
   679 ;;
   680 ;; Critical Paths under _main in BANK0
   681 ;;
   682 ;;   _main->_fm_serch
   683 ;;   _fmNo_in->_seek_SNR
   684 ;;   _fm_serch->_fm_fcon_write
   685 ;;   _fm_serch->_lcd_float
   686 ;;   _buss_boost->_fm_fcon_write
   687 ;;   _seek_SNR->_lcd_int
   688 ;;   _seek_RSSI->_lcd_int
   689 ;;   _fm_fcon_write->_memory_fcont
   690 ;;   _start_LCD_POINT->_i2c_byte_write
   691 ;;   _lcd_float->_memory_fcont
   692 ;;   _lcd_int->___lwdiv
   693 ;;   _fmIC_VOL->_i2c_byte_write
   694 ;;   _fmIC_RS->_i2c_byte_write
   695 ;;   _lcd_RS->_i2c_byte_write
   696 ;;   _i2c_byte_read->___wmul
   697 ;;   _memory_fcont->_eeprom_write
   698 ;;   ___lwdiv->___wmul
   699 ;;   _eeprom_write->___awdiv
   700 ;;
   701 ;; Critical Paths under _InterTimer in BANK0
   702 ;;
   703 ;;   None.
   704 ;;
   705 ;; Critical Paths under _main in BANK1
   706 ;;
   707 ;;   None.
   708 ;;
   709 ;; Critical Paths under _InterTimer in BANK1
   710 ;;
   711 ;;   None.
   712 ;;
   713 ;; Critical Paths under _main in BANK3
   714 ;;
   715 ;;   None.
   716 ;;
   717 ;; Critical Paths under _InterTimer in BANK3
   718 ;;
   719 ;;   None.
   720 ;;
   721 ;; Critical Paths under _main in BANK2
   722 ;;
   723 ;;   None.
   724 ;;
   725 ;; Critical Paths under _InterTimer in BANK2
   726 ;;
   727 ;;   None.
   728                           
   729 ;;
   730 ;;Main: autosize = 0, tempsize = 4, incstack = 0, save=0
   731 ;;
   732                           
   733 ;;
   734 ;;Call Graph Tables:
   735 ;;
   736 ;; ---------------------------------------------------------------------------------
   737 ;; (Depth) Function   	        Calls       Base Space   Used Autos Params    Refs
   738 ;; ---------------------------------------------------------------------------------
   739 ;; (0) _main                                                26    26      0   20504
   740 ;;                                             58 BANK0      4     4      0
   741 ;;                                              0 BANK1     22    22      0
   742 ;;                             _oscsel
   743 ;;                        _eeprom_read
   744 ;;                             ___wmul
   745 ;;                             _lcd_RS
   746 ;;                            _fmIC_RS
   747 ;;                           _fmIC_VOL
   748 ;;                            _lcd_int
   749 ;;                          _lcd_float
   750 ;;                    _start_LCD_POINT
   751 ;;                      _fm_fcon_write
   752 ;;                      _i2c_byte_read
   753 ;;                     _i2c_byte_write
   754 ;;                           _fm_serch
   755 ;;                       _memory_fcont
   756 ;;                            _fmNo_in
   757 ;;                       _eeprom_write
   758 ;;                            ___awdiv
   759 ;;                            ___awmod
   760 ;; ---------------------------------------------------------------------------------
   761 ;; (1) _fmNo_in                                             13     9      4   10152
   762 ;;                                             41 BANK0     13     9      4
   763 ;;                       _memory_fcont
   764 ;;                     _i2c_byte_write
   765 ;;                            _lcd_int
   766 ;;                          _lcd_float
   767 ;;                         _buss_boost
   768 ;;                           _seek_SNR
   769 ;;                          _seek_RSSI
   770 ;;                    _start_LCD_POINT
   771 ;; ---------------------------------------------------------------------------------
   772 ;; (1) _fm_serch                                            24    20      4    2457
   773 ;;                                             34 BANK0     24    20      4
   774 ;;                        _eeprom_read
   775 ;;                      _fm_fcon_write
   776 ;;                          _lcd_float
   777 ;;                      _i2c_byte_read
   778 ;;                             ___wmul
   779 ;;                     _i2c_byte_write
   780 ;; ---------------------------------------------------------------------------------
   781 ;; (2) _buss_boost                                           5     5      0    2035
   782 ;;                                             34 BANK0      5     5      0
   783 ;;                      _i2c_byte_read
   784 ;;                     _i2c_byte_write
   785 ;;                            _lcd_int
   786 ;;                        _eeprom_read
   787 ;;                      _fm_fcon_write
   788 ;;                       _eeprom_write
   789 ;; ---------------------------------------------------------------------------------
   790 ;; (2) _seek_SNR                                            14    14      0    1663
   791 ;;                                             27 BANK0     14    14      0
   792 ;;                        _eeprom_read
   793 ;;                            _lcd_int
   794 ;;                      _i2c_byte_read
   795 ;;                     _i2c_byte_write
   796 ;;                       _eeprom_write
   797 ;; ---------------------------------------------------------------------------------
   798 ;; (2) _seek_RSSI                                            8     8      0    1799
   799 ;;                                             27 BANK0      8     8      0
   800 ;;                        _eeprom_read
   801 ;;                            _lcd_int
   802 ;;                      _i2c_byte_read
   803 ;;                             ___wmul
   804 ;;                     _i2c_byte_write
   805 ;;                       _eeprom_write
   806 ;; ---------------------------------------------------------------------------------
   807 ;; (3) _fm_fcon_write                                       13    11      2     310
   808 ;;                                             21 BANK0     13    11      2
   809 ;;                     _i2c_byte_write
   810 ;;                       _memory_fcont (ARG)
   811 ;; ---------------------------------------------------------------------------------
   812 ;; (2) _start_LCD_POINT                                      3     3      0     186
   813 ;;                                              7 BANK0      3     3      0
   814 ;;                     _i2c_byte_write
   815 ;; ---------------------------------------------------------------------------------
   816 ;; (2) _lcd_float                                           13     9      4    1154
   817 ;;                                             21 BANK0     13     9      4
   818 ;;                            ___lwdiv
   819 ;;                             ___wmul
   820 ;;                            ___lwmod
   821 ;;                     _i2c_byte_write
   822 ;;                       _memory_fcont (ARG)
   823 ;; ---------------------------------------------------------------------------------
   824 ;; (3) _lcd_int                                             13     7      6     919
   825 ;;                                             14 BANK0     13     7      6
   826 ;;                            ___lwmod
   827 ;;                            ___lwdiv
   828 ;;                     _i2c_byte_write
   829 ;; ---------------------------------------------------------------------------------
   830 ;; (1) _fmIC_VOL                                             4     4      0     217
   831 ;;                                              7 BANK0      4     4      0
   832 ;;                     _i2c_byte_write
   833 ;; ---------------------------------------------------------------------------------
   834 ;; (1) _fmIC_RS                                              4     4      0     217
   835 ;;                                              7 BANK0      4     4      0
   836 ;;                     _i2c_byte_write
   837 ;;                        _eeprom_read
   838 ;; ---------------------------------------------------------------------------------
   839 ;; (1) _lcd_RS                                               3     3      0     186
   840 ;;                                              7 BANK0      3     3      0
   841 ;;                     _i2c_byte_write
   842 ;; ---------------------------------------------------------------------------------
   843 ;; (3) _i2c_byte_read                                        8     4      4     229
   844 ;;                                              6 BANK0      8     4      4
   845 ;;                             _i2c_Tx
   846 ;;                             ___wmul (ARG)
   847 ;; ---------------------------------------------------------------------------------
   848 ;; (3) _i2c_byte_write                                       7     1      6     186
   849 ;;                                              0 BANK0      7     1      6
   850 ;;                             _i2c_Tx
   851 ;;                        _eeprom_read (ARG)
   852 ;; ---------------------------------------------------------------------------------
   853 ;; (2) _memory_fcont                                        11     5      6    1365
   854 ;;                                             10 BANK0     11     5      6
   855 ;;                        _eeprom_read
   856 ;;                             ___wmul
   857 ;;                            ___awdiv
   858 ;;                       _eeprom_write
   859 ;;                            ___awmod
   860 ;; ---------------------------------------------------------------------------------
   861 ;; (1) ___awmod                                              7     3      4     433
   862 ;;                                              4 COMMON     1     1      0
   863 ;;                                              0 BANK0      6     2      4
   864 ;; ---------------------------------------------------------------------------------
   865 ;; (1) ___awdiv                                              9     5      4     445
   866 ;;                                              4 COMMON     1     1      0
   867 ;;                                              0 BANK0      8     4      4
   868 ;; ---------------------------------------------------------------------------------
   869 ;; (4) ___lwmod                                              6     2      4     232
   870 ;;                                              4 COMMON     2     2      0
   871 ;;                                              0 BANK0      4     0      4
   872 ;; ---------------------------------------------------------------------------------
   873 ;; (4) ___lwdiv                                              8     4      4     241
   874 ;;                                              6 BANK0      8     4      4
   875 ;;                             ___wmul (ARG)
   876 ;; ---------------------------------------------------------------------------------
   877 ;; (3) ___wmul                                               6     2      4     136
   878 ;;                                              0 BANK0      6     2      4
   879 ;;                        _eeprom_read (ARG)
   880 ;;                             _i2c_Tx (ARG)
   881 ;; ---------------------------------------------------------------------------------
   882 ;; (4) _i2c_Tx                                               1     1      0      31
   883 ;;                                              4 COMMON     1     1      0
   884 ;; ---------------------------------------------------------------------------------
   885 ;; (1) _eeprom_write                                         3     2      1      69
   886 ;;                                              5 COMMON     1     0      1
   887 ;;                                              8 BANK0      2     2      0
   888 ;;                            ___awdiv (ARG)
   889 ;;                            ___awmod (ARG)
   890 ;; ---------------------------------------------------------------------------------
   891 ;; (3) _eeprom_read                                          2     2      0      31
   892 ;;                                              4 COMMON     2     2      0
   893 ;; ---------------------------------------------------------------------------------
   894 ;; (1) _oscsel                                               2     0      2      31
   895 ;;                                              4 COMMON     2     0      2
   896 ;; ---------------------------------------------------------------------------------
   897 ;; Estimated maximum stack depth 4
   898 ;; ---------------------------------------------------------------------------------
   899 ;; (Depth) Function   	        Calls       Base Space   Used Autos Params    Refs
   900 ;; ---------------------------------------------------------------------------------
   901 ;; (6) _InterTimer                                           4     4      0       0
   902 ;;                                              0 COMMON     4     4      0
   903 ;; ---------------------------------------------------------------------------------
   904 ;; Estimated maximum stack depth 6
   905 ;; ---------------------------------------------------------------------------------
   906                           
   907 ;; Call Graph Graphs:
   908                           
   909 ;; _main (ROOT)
   910 ;;   _oscsel
   911 ;;   _eeprom_read
   912 ;;   ___wmul
   913 ;;     _eeprom_read (ARG)
   914 ;;     _i2c_Tx (ARG)
   915 ;;   _lcd_RS
   916 ;;     _i2c_byte_write
   917 ;;       _i2c_Tx
   918 ;;       _eeprom_read (ARG)
   919 ;;   _fmIC_RS
   920 ;;     _i2c_byte_write
   921 ;;       _i2c_Tx
   922 ;;       _eeprom_read (ARG)
   923 ;;     _eeprom_read
   924 ;;   _fmIC_VOL
   925 ;;     _i2c_byte_write
   926 ;;       _i2c_Tx
   927 ;;       _eeprom_read (ARG)
   928 ;;   _lcd_int
   929 ;;     ___lwmod
   930 ;;     ___lwdiv
   931 ;;       ___wmul (ARG)
   932 ;;         _eeprom_read (ARG)
   933 ;;         _i2c_Tx (ARG)
   934 ;;     _i2c_byte_write
   935 ;;       _i2c_Tx
   936 ;;       _eeprom_read (ARG)
   937 ;;   _lcd_float
   938 ;;     ___lwdiv
   939 ;;       ___wmul (ARG)
   940 ;;         _eeprom_read (ARG)
   941 ;;         _i2c_Tx (ARG)
   942 ;;     ___wmul
   943 ;;       _eeprom_read (ARG)
   944 ;;       _i2c_Tx (ARG)
   945 ;;     ___lwmod
   946 ;;     _i2c_byte_write
   947 ;;       _i2c_Tx
   948 ;;       _eeprom_read (ARG)
   949 ;;     _memory_fcont (ARG)
   950 ;;       _eeprom_read
   951 ;;       ___wmul
   952 ;;         _eeprom_read (ARG)
   953 ;;         _i2c_Tx (ARG)
   954 ;;       ___awdiv
   955 ;;       _eeprom_write
   956 ;;         ___awdiv (ARG)
   957 ;;         ___awmod (ARG)
   958 ;;       ___awmod
   959 ;;   _start_LCD_POINT
   960 ;;     _i2c_byte_write
   961 ;;       _i2c_Tx
   962 ;;       _eeprom_read (ARG)
   963 ;;   _fm_fcon_write
   964 ;;     _i2c_byte_write
   965 ;;       _i2c_Tx
   966 ;;       _eeprom_read (ARG)
   967 ;;     _memory_fcont (ARG)
   968 ;;       _eeprom_read
   969 ;;       ___wmul
   970 ;;         _eeprom_read (ARG)
   971 ;;         _i2c_Tx (ARG)
   972 ;;       ___awdiv
   973 ;;       _eeprom_write
   974 ;;         ___awdiv (ARG)
   975 ;;         ___awmod (ARG)
   976 ;;       ___awmod
   977 ;;   _i2c_byte_read
   978 ;;     _i2c_Tx
   979 ;;     ___wmul (ARG)
   980 ;;       _eeprom_read (ARG)
   981 ;;       _i2c_Tx (ARG)
   982 ;;   _i2c_byte_write
   983 ;;     _i2c_Tx
   984 ;;     _eeprom_read (ARG)
   985 ;;   _fm_serch
   986 ;;     _eeprom_read
   987 ;;     _fm_fcon_write
   988 ;;       _i2c_byte_write
   989 ;;         _i2c_Tx
   990 ;;         _eeprom_read (ARG)
   991 ;;       _memory_fcont (ARG)
   992 ;;         _eeprom_read
   993 ;;         ___wmul
   994 ;;           _eeprom_read (ARG)
   995 ;;           _i2c_Tx (ARG)
   996 ;;         ___awdiv
   997 ;;         _eeprom_write
   998 ;;           ___awdiv (ARG)
   999 ;;           ___awmod (ARG)
  1000 ;;         ___awmod
  1001 ;;     _lcd_float
  1002 ;;       ___lwdiv
  1003 ;;         ___wmul (ARG)
  1004 ;;           _eeprom_read (ARG)
  1005 ;;           _i2c_Tx (ARG)
  1006 ;;       ___wmul
  1007 ;;         _eeprom_read (ARG)
  1008 ;;         _i2c_Tx (ARG)
  1009 ;;       ___lwmod
  1010 ;;       _i2c_byte_write
  1011 ;;         _i2c_Tx
  1012 ;;         _eeprom_read (ARG)
  1013 ;;       _memory_fcont (ARG)
  1014 ;;         _eeprom_read
  1015 ;;         ___wmul
  1016 ;;           _eeprom_read (ARG)
  1017 ;;           _i2c_Tx (ARG)
  1018 ;;         ___awdiv
  1019 ;;         _eeprom_write
  1020 ;;           ___awdiv (ARG)
  1021 ;;           ___awmod (ARG)
  1022 ;;         ___awmod
  1023 ;;     _i2c_byte_read
  1024 ;;       _i2c_Tx
  1025 ;;       ___wmul (ARG)
  1026 ;;         _eeprom_read (ARG)
  1027 ;;         _i2c_Tx (ARG)
  1028 ;;     ___wmul
  1029 ;;       _eeprom_read (ARG)
  1030 ;;       _i2c_Tx (ARG)
  1031 ;;     _i2c_byte_write
  1032 ;;       _i2c_Tx
  1033 ;;       _eeprom_read (ARG)
  1034 ;;   _memory_fcont
  1035 ;;     _eeprom_read
  1036 ;;     ___wmul
  1037 ;;       _eeprom_read (ARG)
  1038 ;;       _i2c_Tx (ARG)
  1039 ;;     ___awdiv
  1040 ;;     _eeprom_write
  1041 ;;       ___awdiv (ARG)
  1042 ;;       ___awmod (ARG)
  1043 ;;     ___awmod
  1044 ;;   _fmNo_in
  1045 ;;     _memory_fcont
  1046 ;;       _eeprom_read
  1047 ;;       ___wmul
  1048 ;;         _eeprom_read (ARG)
  1049 ;;         _i2c_Tx (ARG)
  1050 ;;       ___awdiv
  1051 ;;       _eeprom_write
  1052 ;;         ___awdiv (ARG)
  1053 ;;         ___awmod (ARG)
  1054 ;;       ___awmod
  1055 ;;     _i2c_byte_write
  1056 ;;       _i2c_Tx
  1057 ;;       _eeprom_read (ARG)
  1058 ;;     _lcd_int
  1059 ;;       ___lwmod
  1060 ;;       ___lwdiv
  1061 ;;         ___wmul (ARG)
  1062 ;;           _eeprom_read (ARG)
  1063 ;;           _i2c_Tx (ARG)
  1064 ;;       _i2c_byte_write
  1065 ;;         _i2c_Tx
  1066 ;;         _eeprom_read (ARG)
  1067 ;;     _lcd_float
  1068 ;;       ___lwdiv
  1069 ;;         ___wmul (ARG)
  1070 ;;           _eeprom_read (ARG)
  1071 ;;           _i2c_Tx (ARG)
  1072 ;;       ___wmul
  1073 ;;         _eeprom_read (ARG)
  1074 ;;         _i2c_Tx (ARG)
  1075 ;;       ___lwmod
  1076 ;;       _i2c_byte_write
  1077 ;;         _i2c_Tx
  1078 ;;         _eeprom_read (ARG)
  1079 ;;       _memory_fcont (ARG)
  1080 ;;         _eeprom_read
  1081 ;;         ___wmul
  1082 ;;           _eeprom_read (ARG)
  1083 ;;           _i2c_Tx (ARG)
  1084 ;;         ___awdiv
  1085 ;;         _eeprom_write
  1086 ;;           ___awdiv (ARG)
  1087 ;;           ___awmod (ARG)
  1088 ;;         ___awmod
  1089 ;;     _buss_boost
  1090 ;;       _i2c_byte_read
  1091 ;;         _i2c_Tx
  1092 ;;         ___wmul (ARG)
  1093 ;;           _eeprom_read (ARG)
  1094 ;;           _i2c_Tx (ARG)
  1095 ;;       _i2c_byte_write
  1096 ;;         _i2c_Tx
  1097 ;;         _eeprom_read (ARG)
  1098 ;;       _lcd_int
  1099 ;;         ___lwmod
  1100 ;;         ___lwdiv
  1101 ;;           ___wmul (ARG)
  1102 ;;             _eeprom_read (ARG)
  1103 ;;             _i2c_Tx (ARG)
  1104 ;;         _i2c_byte_write
  1105 ;;           _i2c_Tx
  1106 ;;           _eeprom_read (ARG)
  1107 ;;       _eeprom_read
  1108 ;;       _fm_fcon_write
  1109 ;;         _i2c_byte_write
  1110 ;;           _i2c_Tx
  1111 ;;           _eeprom_read (ARG)
  1112 ;;         _memory_fcont (ARG)
  1113 ;;           _eeprom_read
  1114 ;;           ___wmul
  1115 ;;             _eeprom_read (ARG)
  1116 ;;             _i2c_Tx (ARG)
  1117 ;;           ___awdiv
  1118 ;;           _eeprom_write
  1119 ;;             ___awdiv (ARG)
  1120 ;;             ___awmod (ARG)
  1121 ;;           ___awmod
  1122 ;;       _eeprom_write
  1123 ;;         ___awdiv (ARG)
  1124 ;;         ___awmod (ARG)
  1125 ;;     _seek_SNR
  1126 ;;       _eeprom_read
  1127 ;;       _lcd_int
  1128 ;;         ___lwmod
  1129 ;;         ___lwdiv
  1130 ;;           ___wmul (ARG)
  1131 ;;             _eeprom_read (ARG)
  1132 ;;             _i2c_Tx (ARG)
  1133 ;;         _i2c_byte_write
  1134 ;;           _i2c_Tx
  1135 ;;           _eeprom_read (ARG)
  1136 ;;       _i2c_byte_read
  1137 ;;         _i2c_Tx
  1138 ;;         ___wmul (ARG)
  1139 ;;           _eeprom_read (ARG)
  1140 ;;           _i2c_Tx (ARG)
  1141 ;;       _i2c_byte_write
  1142 ;;         _i2c_Tx
  1143 ;;         _eeprom_read (ARG)
  1144 ;;       _eeprom_write
  1145 ;;         ___awdiv (ARG)
  1146 ;;         ___awmod (ARG)
  1147 ;;     _seek_RSSI
  1148 ;;       _eeprom_read
  1149 ;;       _lcd_int
  1150 ;;         ___lwmod
  1151 ;;         ___lwdiv
  1152 ;;           ___wmul (ARG)
  1153 ;;             _eeprom_read (ARG)
  1154 ;;             _i2c_Tx (ARG)
  1155 ;;         _i2c_byte_write
  1156 ;;           _i2c_Tx
  1157 ;;           _eeprom_read (ARG)
  1158 ;;       _i2c_byte_read
  1159 ;;         _i2c_Tx
  1160 ;;         ___wmul (ARG)
  1161 ;;           _eeprom_read (ARG)
  1162 ;;           _i2c_Tx (ARG)
  1163 ;;       ___wmul
  1164 ;;         _eeprom_read (ARG)
  1165 ;;         _i2c_Tx (ARG)
  1166 ;;       _i2c_byte_write
  1167 ;;         _i2c_Tx
  1168 ;;         _eeprom_read (ARG)
  1169 ;;       _eeprom_write
  1170 ;;         ___awdiv (ARG)
  1171 ;;         ___awmod (ARG)
  1172 ;;     _start_LCD_POINT
  1173 ;;       _i2c_byte_write
  1174 ;;         _i2c_Tx
  1175 ;;         _eeprom_read (ARG)
  1176 ;;   _eeprom_write
  1177 ;;     ___awdiv (ARG)
  1178 ;;     ___awmod (ARG)
  1179 ;;   ___awdiv
  1180 ;;   ___awmod
  1181 ;;
  1182 ;; _InterTimer (ROOT)
  1183 ;;
  1184                           
  1185 ;; Address spaces:
  1186                           
  1187 ;;Name               Size   Autos  Total    Cost      Usage
  1188 ;;BANK3               60      0       0       9        0.0%
  1189 ;;BITBANK3            60      0       0       8        0.0%
  1190 ;;SFR3                 0      0       0       4        0.0%
  1191 ;;BITSFR3              0      0       0       4        0.0%
  1192 ;;BANK2               60      0       0      11        0.0%
  1193 ;;BITBANK2            60      0       0      10        0.0%
  1194 ;;SFR2                 0      0       0       5        0.0%
  1195 ;;BITSFR2              0      0       0       5        0.0%
  1196 ;;SFR1                 0      0       0       2        0.0%
  1197 ;;BITSFR1              0      0       0       2        0.0%
  1198 ;;BANK1               50     16      16       7       27.5%
  1199 ;;BITBANK1            50      0       0       6        0.0%
  1200 ;;CODE                 0      0       0       0        0.0%
  1201 ;;DATA                 0      0      63      12        0.0%
  1202 ;;ABS                  0      0      5E       3        0.0%
  1203 ;;NULL                 0      0       0       0        0.0%
  1204 ;;STACK                0      0       5       2        0.0%
  1205 ;;BANK0               50     3E      3E       5       77.5%
  1206 ;;BITBANK0            50      0       0       4        0.0%
  1207 ;;SFR0                 0      0       0       1        0.0%
  1208 ;;BITSFR0              0      0       0       1        0.0%
  1209 ;;COMMON               E      6       A       1       71.4%
  1210 ;;BITCOMMON            E      0       0       0        0.0%
  1211 ;;EEDATA             100      0       0       0        0.0%
  1212                           
  1213                           	global	_main
  1214                           psect	maintext,global,class=CODE,delta=2
  1215                           global __pmaintext
  1216  102C                     __pmaintext:
  1217                           
  1218 ;; *************** function _main *****************
  1219 ;; Defined at:
  1220 ;;		line 499 in file "FM_RADIO_main.c"
  1221 ;; Parameters:    Size  Location     Type
  1222 ;;		None
  1223 ;; Auto vars:     Size  Location     Type
  1224 ;;  fmNo            2   20[BANK1 ] int 
  1225 ;;  FMVOL           2   18[BANK1 ] unsigned int 
  1226 ;;  cnt1            2   16[BANK1 ] int 
  1227 ;;  VOL_STAT        2   14[BANK1 ] int 
  1228 ;;  DWf             2   12[BANK1 ] int 
  1229 ;;  UPf             2   10[BANK1 ] int 
  1230 ;;  c               2    8[BANK1 ] int 
  1231 ;;  LIP             2    6[BANK1 ] int 
  1232 ;;  MAIN_CON        2    4[BANK1 ] int 
  1233 ;;  MAIN_STAT       2    2[BANK1 ] int 
  1234 ;;  PW_STAT         2    0[BANK1 ] int 
  1235 ;; Return value:  Size  Location     Type
  1236 ;;                  2  1246[COMMON] int 
  1237 ;; Registers used:
  1238 ;;		wreg, fsr0l, fsr0h, status,2, status,0, btemp+1, pclath, cstack
  1239 ;; Tracked objects:
  1240 ;;		On entry : 17F/0
  1241 ;;		On exit  : 0/0
  1242 ;;		Unchanged: 0/0
  1243 ;; Data sizes:     COMMON   BANK0   BANK1   BANK3   BANK2
  1244 ;;      Params:         0       0       0       0       0
  1245 ;;      Locals:         0       0      22       0       0
  1246 ;;      Temps:          0       4       0       0       0
  1247 ;;      Totals:         0       4      22       0       0
  1248 ;;Total ram usage:       26 bytes
  1249 ;; Hardware stack levels required when called:    6
  1250 ;; This function calls:
  1251 ;;		_oscsel
  1252 ;;		_eeprom_read
  1253 ;;		___wmul
  1254 ;;		_lcd_RS
  1255 ;;		_fmIC_RS
  1256 ;;		_fmIC_VOL
  1257 ;;		_lcd_int
  1258 ;;		_lcd_float
  1259 ;;		_start_LCD_POINT
  1260 ;;		_fm_fcon_write
  1261 ;;		_i2c_byte_read
  1262 ;;		_i2c_byte_write
  1263 ;;		_fm_serch
  1264 ;;		_memory_fcont
  1265 ;;		_fmNo_in
  1266 ;;		_eeprom_write
  1267 ;;		___awdiv
  1268 ;;		___awmod
  1269 ;; This function is called by:
  1270 ;;		Startup code after reset
  1271 ;; This function uses a non-reentrant model
  1272 ;;
  1273                           psect	maintext
  1274                           	file	"FM_RADIO_main.c"
  1275                           	line	499
  1276                           	global	__size_of_main
  1277  F73C                     	__size_of_main	equ	__end_of_main-_main
  1278                           	
  1279  102C                     _main:	
  1280                           	opt	stack 2
  1281                           ; Regs used in _main: [wreg-fsr0h+status,2+status,0+btemp+1+pclath+cstack]
  1282                           	line	500
  1283                           	
  1284  102C                     l8382:	
  1285                           ;FM_RADIO_main.c: 500: unsigned int FMVOL = 0b00010010;
  1286  102C  3012               	movlw	low(012h)
  1287  102D  1683               	bsf	status, 5	;RP0=1, select bank1
  1288  102E  1303               	bcf	status, 6	;RP1=0, select bank1
  1289  102F  00B2               	movwf	(main@FMVOL)^080h
  1290  1030  3000               	movlw	high(012h)
  1291  1031  00B3               	movwf	((main@FMVOL)^080h)+1
  1292                           	line	501
  1293                           ;FM_RADIO_main.c: 501: int cnt1 = 18, fmNo = 0, c = 6000;
  1294  1032  3012               	movlw	low(012h)
  1295  1033  00B0               	movwf	(main@cnt1)^080h
  1296  1034  3000               	movlw	high(012h)
  1297  1035  00B1               	movwf	((main@cnt1)^080h)+1
  1298                           	
  1299  1036                     l8384:	
  1300  1036  01B4               	clrf	(main@fmNo)^080h
  1301  1037  01B5               	clrf	(main@fmNo+1)^080h
  1302                           	
  1303  1038                     l8386:	
  1304  1038  3070               	movlw	low(01770h)
  1305  1039  00A8               	movwf	(main@c)^080h
  1306  103A  3017               	movlw	high(01770h)
  1307  103B  00A9               	movwf	((main@c)^080h)+1
  1308                           	line	502
  1309                           ;FM_RADIO_main.c: 502: int VOL_STAT = 0, PW_STAT = 0, MAIN_CON = 0, UPf = 0, DWf = 0;
  1310  103C  01AE               	clrf	(main@VOL_STAT)^080h
  1311  103D  01AF               	clrf	(main@VOL_STAT+1)^080h
  1312  103E  01A0               	clrf	(main@PW_STAT)^080h
  1313  103F  01A1               	clrf	(main@PW_STAT+1)^080h
  1314  1040  01A4               	clrf	(main@MAIN_CON)^080h
  1315  1041  01A5               	clrf	(main@MAIN_CON+1)^080h
  1316  1042  01AA               	clrf	(main@UPf)^080h
  1317  1043  01AB               	clrf	(main@UPf+1)^080h
  1318  1044  01AC               	clrf	(main@DWf)^080h
  1319  1045  01AD               	clrf	(main@DWf+1)^080h
  1320                           	line	503
  1321                           ;FM_RADIO_main.c: 503: int MAIN_STAT = 0, LIP = 0;
  1322  1046  01A2               	clrf	(main@MAIN_STAT)^080h
  1323  1047  01A3               	clrf	(main@MAIN_STAT+1)^080h
  1324  1048  01A6               	clrf	(main@LIP)^080h
  1325  1049  01A7               	clrf	(main@LIP+1)^080h
  1326                           	line	504
  1327                           	
  1328  104A                     l8388:	
  1329                           ;FM_RADIO_main.c: 504: oscsel(0);
  1330  104A  3000               	movlw	low(0)
  1331  104B  00F4               	movwf	(?_oscsel)
  1332  104C  3000               	movlw	high(0)
  1333  104D  00F5               	movwf	((?_oscsel))+1
  1334  104E  160A  158A  2067   	fcall	_oscsel
              160A  118A         
  1335                           	line	505
  1336                           	
  1337  1053                     l8390:	
  1338                           ;FM_RADIO_main.c: 505: ANSEL = 0x00;
  1339  1053  1683               	bsf	status, 5	;RP0=1, select bank3
  1340  1054  1703               	bsf	status, 6	;RP1=1, select bank3
  1341  1055  0188               	clrf	(392)^0180h	;volatile
  1342                           	line	506
  1343                           	
  1344  1056                     l8392:	
  1345                           ;FM_RADIO_main.c: 506: ANSELH = 0x00;
  1346  1056  0189               	clrf	(393)^0180h	;volatile
  1347                           	line	507
  1348                           	
  1349  1057                     l8394:	
  1350                           ;FM_RADIO_main.c: 507: TRISA = 0xff;
  1351  1057  30FF               	movlw	(0FFh)
  1352  1058  1683               	bsf	status, 5	;RP0=1, select bank1
  1353  1059  1303               	bcf	status, 6	;RP1=0, select bank1
  1354  105A  0085               	movwf	(133)^080h	;volatile
  1355                           	line	508
  1356                           	
  1357  105B                     l8396:	
  1358                           ;FM_RADIO_main.c: 508: TRISB = 0b11110111;
  1359  105B  30F7               	movlw	(0F7h)
  1360  105C  0086               	movwf	(134)^080h	;volatile
  1361                           	line	509
  1362                           	
  1363  105D                     l8398:	
  1364                           ;FM_RADIO_main.c: 509: TRISC = 0b00011011;
  1365  105D  301B               	movlw	(01Bh)
  1366  105E  0087               	movwf	(135)^080h	;volatile
  1367                           	line	510
  1368                           	
  1369  105F                     l8400:	
  1370                           ;FM_RADIO_main.c: 510: TRISD = 0x00;
  1371  105F  0188               	clrf	(136)^080h	;volatile
  1372                           	line	511
  1373                           	
  1374  1060                     l8402:	
  1375                           ;FM_RADIO_main.c: 511: SSPCON = 0b00101000;
  1376  1060  3028               	movlw	(028h)
  1377  1061  1283               	bcf	status, 5	;RP0=0, select bank0
  1378  1062  1303               	bcf	status, 6	;RP1=0, select bank0
  1379  1063  0094               	movwf	(20)	;volatile
  1380                           	line	512
  1381                           	
  1382  1064                     l8404:	
  1383                           ;FM_RADIO_main.c: 512: SSPSTAT = 0b10000000;
  1384  1064  3080               	movlw	(080h)
  1385  1065  1683               	bsf	status, 5	;RP0=1, select bank1
  1386  1066  1303               	bcf	status, 6	;RP1=0, select bank1
  1387  1067  0094               	movwf	(148)^080h	;volatile
  1388                           	line	513
  1389                           	
  1390  1068                     l8406:	
  1391                           ;FM_RADIO_main.c: 513: SSPADD = 0x09;
  1392  1068  3009               	movlw	(09h)
  1393  1069  0093               	movwf	(147)^080h	;volatile
  1394                           	line	514
  1395                           	
  1396  106A                     l8408:	
  1397                           ;FM_RADIO_main.c: 514: T1CON = 0b01110000;
  1398  106A  3070               	movlw	(070h)
  1399  106B  1283               	bcf	status, 5	;RP0=0, select bank0
  1400  106C  1303               	bcf	status, 6	;RP1=0, select bank0
  1401  106D  0090               	movwf	(16)	;volatile
  1402                           	line	515
  1403                           	
  1404  106E                     l8410:	
  1405                           ;FM_RADIO_main.c: 515: TMR1IF = 0;
  1406  106E  100C               	bcf	(96/8),(96)&7
  1407                           	line	516
  1408                           	
  1409  106F                     l8412:	
  1410                           ;FM_RADIO_main.c: 516: TMR1IE = 1;
  1411  106F  1683               	bsf	status, 5	;RP0=1, select bank1
  1412  1070  1303               	bcf	status, 6	;RP1=0, select bank1
  1413  1071  140C               	bsf	(1120/8)^080h,(1120)&7
  1414                           	line	517
  1415                           	
  1416  1072                     l8414:	
  1417                           ;FM_RADIO_main.c: 517: TMR1ON = 0;
  1418  1072  1283               	bcf	status, 5	;RP0=0, select bank0
  1419  1073  1303               	bcf	status, 6	;RP1=0, select bank0
  1420  1074  1010               	bcf	(128/8),(128)&7
  1421                           	line	518
  1422                           	
  1423  1075                     l8416:	
  1424                           ;FM_RADIO_main.c: 518: PEIE = 1;
  1425  1075  170B               	bsf	(94/8),(94)&7
  1426                           	line	519
  1427                           	
  1428  1076                     l8418:	
  1429                           ;FM_RADIO_main.c: 519: GIE = 1;
  1430  1076  178B               	bsf	(95/8),(95)&7
  1431                           	line	520
  1432                           	
  1433  1077                     l8420:	
  1434                           ;FM_RADIO_main.c: 520: oscsel(1);
  1435  1077  3001               	movlw	low(01h)
  1436  1078  00F4               	movwf	(?_oscsel)
  1437  1079  3000               	movlw	high(01h)
  1438  107A  00F5               	movwf	((?_oscsel))+1
  1439  107B  160A  158A  2067   	fcall	_oscsel
              160A  118A         
  1440                           	line	521
  1441                           	
  1442  1080                     l8422:	
  1443                           ;FM_RADIO_main.c: 521: RD0 = 0;
  1444  1080  1283               	bcf	status, 5	;RP0=0, select bank0
  1445  1081  1303               	bcf	status, 6	;RP1=0, select bank0
  1446  1082  1008               	bcf	(64/8),(64)&7
  1447                           	line	524
  1448                           	
  1449  1083                     l8424:	
  1450                           ;FM_RADIO_main.c: 524: FMVOL = eeprom_read(0);
  1451  1083  3000               	movlw	(0)
  1452  1084  160A  158A  2048   	fcall	_eeprom_read
              160A  118A         
  1453  1089  1283               	bcf	status, 5	;RP0=0, select bank0
  1454  108A  1303               	bcf	status, 6	;RP1=0, select bank0
  1455  108B  00DA               	movwf	(??_main+0)+0
  1456  108C  01DB               	clrf	(??_main+0)+0+1
  1457  108D  085A               	movf	0+(??_main+0)+0,w
  1458  108E  1683               	bsf	status, 5	;RP0=1, select bank1
  1459  108F  1303               	bcf	status, 6	;RP1=0, select bank1
  1460  1090  00B2               	movwf	(main@FMVOL)^080h
  1461  1091  1283               	bcf	status, 5	;RP0=0, select bank0
  1462  1092  1303               	bcf	status, 6	;RP1=0, select bank0
  1463  1093  085B               	movf	1+(??_main+0)+0,w
  1464  1094  1683               	bsf	status, 5	;RP0=1, select bank1
  1465  1095  1303               	bcf	status, 6	;RP1=0, select bank1
  1466  1096  00B3               	movwf	(main@FMVOL+1)^080h
  1467                           	line	525
  1468                           	
  1469  1097                     l8426:	
  1470                           ;FM_RADIO_main.c: 525: cnt1 = eeprom_read(1);
  1471  1097  3001               	movlw	(01h)
  1472  1098  160A  158A  2048   	fcall	_eeprom_read
              160A  118A         
  1473  109D  1283               	bcf	status, 5	;RP0=0, select bank0
  1474  109E  1303               	bcf	status, 6	;RP1=0, select bank0
  1475  109F  00DA               	movwf	(??_main+0)+0
  1476  10A0  01DB               	clrf	(??_main+0)+0+1
  1477  10A1  085A               	movf	0+(??_main+0)+0,w
  1478  10A2  1683               	bsf	status, 5	;RP0=1, select bank1
  1479  10A3  1303               	bcf	status, 6	;RP1=0, select bank1
  1480  10A4  00B0               	movwf	(main@cnt1)^080h
  1481  10A5  1283               	bcf	status, 5	;RP0=0, select bank0
  1482  10A6  1303               	bcf	status, 6	;RP1=0, select bank0
  1483  10A7  085B               	movf	1+(??_main+0)+0,w
  1484  10A8  1683               	bsf	status, 5	;RP0=1, select bank1
  1485  10A9  1303               	bcf	status, 6	;RP1=0, select bank1
  1486  10AA  00B1               	movwf	(main@cnt1+1)^080h
  1487                           	line	526
  1488                           	
  1489  10AB                     l8428:	
  1490                           ;FM_RADIO_main.c: 526: fcont_pp = (eeprom_read(2) * 10) + eeprom_read(3);
  1491  10AB  3003               	movlw	(03h)
  1492  10AC  160A  158A  2048   	fcall	_eeprom_read
              160A  118A         
  1493  10B1  1283               	bcf	status, 5	;RP0=0, select bank0
  1494  10B2  1303               	bcf	status, 6	;RP1=0, select bank0
  1495  10B3  00DA               	movwf	(??_main+0)+0
  1496  10B4  3002               	movlw	(02h)
  1497  10B5  160A  158A  2048   	fcall	_eeprom_read
              160A  118A         
  1498  10BA  1283               	bcf	status, 5	;RP0=0, select bank0
  1499  10BB  1303               	bcf	status, 6	;RP1=0, select bank0
  1500  10BC  00DB               	movwf	(??_main+1)+0
  1501  10BD  01DC               	clrf	(??_main+1)+0+1
  1502  10BE  085B               	movf	0+(??_main+1)+0,w
  1503  10BF  00A0               	movwf	(?___wmul)
  1504  10C0  085C               	movf	1+(??_main+1)+0,w
  1505  10C1  00A1               	movwf	(?___wmul+1)
  1506  10C2  300A               	movlw	low(0Ah)
  1507  10C3  00A2               	movwf	0+(?___wmul)+02h
  1508  10C4  3000               	movlw	high(0Ah)
  1509  10C5  00A3               	movwf	(0+(?___wmul)+02h)+1
  1510  10C6  160A  118A  2000   	fcall	___wmul
              160A  118A         
  1511  10CB  1283               	bcf	status, 5	;RP0=0, select bank0
  1512  10CC  1303               	bcf	status, 6	;RP1=0, select bank0
  1513  10CD  085A               	movf	0+(??_main+0)+0,w
  1514  10CE  0720               	addwf	(0+(?___wmul)),w
  1515  10CF  00F8               	movwf	(_fcont_pp)
  1516  10D0  3000               	movlw	0
  1517  10D1  1803               	skipnc
  1518  10D2  3001               	movlw	1
  1519  10D3  0721               	addwf	(1+(?___wmul)),w
  1520  10D4  00F9               	movwf	1+(_fcont_pp)
  1521                           	line	527
  1522                           	
  1523  10D5                     l8430:	
  1524                           ;FM_RADIO_main.c: 527: fmNo = eeprom_read(4);
  1525  10D5  3004               	movlw	(04h)
  1526  10D6  160A  158A  2048   	fcall	_eeprom_read
              160A  118A         
  1527  10DB  1283               	bcf	status, 5	;RP0=0, select bank0
  1528  10DC  1303               	bcf	status, 6	;RP1=0, select bank0
  1529  10DD  00DA               	movwf	(??_main+0)+0
  1530  10DE  01DB               	clrf	(??_main+0)+0+1
  1531  10DF  085A               	movf	0+(??_main+0)+0,w
  1532  10E0  1683               	bsf	status, 5	;RP0=1, select bank1
  1533  10E1  1303               	bcf	status, 6	;RP1=0, select bank1
  1534  10E2  00B4               	movwf	(main@fmNo)^080h
  1535  10E3  1283               	bcf	status, 5	;RP0=0, select bank0
  1536  10E4  1303               	bcf	status, 6	;RP1=0, select bank0
  1537  10E5  085B               	movf	1+(??_main+0)+0,w
  1538  10E6  1683               	bsf	status, 5	;RP0=1, select bank1
  1539  10E7  1303               	bcf	status, 6	;RP1=0, select bank1
  1540  10E8  00B5               	movwf	(main@fmNo+1)^080h
  1541  10E9  28EA               	goto	l8432
  1542                           	line	530
  1543                           ;FM_RADIO_main.c: 530: while (1) {
  1544                           	
  1545  10EA                     l1247:	
  1546                           	line	531
  1547                           	
  1548  10EA                     l8432:	
  1549                           ;FM_RADIO_main.c: 531: if (RA2 == 1) {
  1550  10EA  1283               	bcf	status, 5	;RP0=0, select bank0
  1551  10EB  1303               	bcf	status, 6	;RP1=0, select bank0
  1552  10EC  1D05               	btfss	(42/8),(42)&7
  1553  10ED  28EF               	goto	u7411
  1554  10EE  28F2               	goto	u7410
  1555  10EF                     u7411:
  1556  10EF  120A  118A  2E26   	goto	l8760
  1557  10F2                     u7410:
  1558  10F2  28F4               	goto	l1249
  1559                           	line	532
  1560                           	
  1561  10F3                     l8434:	
  1562                           ;FM_RADIO_main.c: 532: while (RA2);
  1563  10F3  28F4               	goto	l1249
  1564                           	
  1565  10F4                     l1250:	
  1566                           	
  1567  10F4                     l1249:	
  1568  10F4  1905               	btfsc	(42/8),(42)&7
  1569  10F5  28F7               	goto	u7421
  1570  10F6  28F8               	goto	u7420
  1571  10F7                     u7421:
  1572  10F7  28F4               	goto	l1249
  1573  10F8                     u7420:
  1574                           	
  1575  10F8                     l1251:	
  1576                           	line	533
  1577                           ;FM_RADIO_main.c: 533: RD4 = 1;
  1578  10F8  1608               	bsf	(68/8),(68)&7
  1579                           	line	534
  1580                           	
  1581  10F9                     l8436:	
  1582                           ;FM_RADIO_main.c: 534: oscsel(0);
  1583  10F9  3000               	movlw	low(0)
  1584  10FA  00F4               	movwf	(?_oscsel)
  1585  10FB  3000               	movlw	high(0)
  1586  10FC  00F5               	movwf	((?_oscsel))+1
  1587  10FD  160A  158A  2067   	fcall	_oscsel
              160A  118A         
  1588                           	line	535
  1589                           	
  1590  1102                     l8438:	
  1591                           ;FM_RADIO_main.c: 535: _delay((unsigned long)((100)*(4000000/4000.0)));
  1592                           	opt asmopt_off
  1593  1102  3082               movlw	130
  1594  1103  1283               	bcf	status, 5	;RP0=0, select bank0
  1595  1104  1303               	bcf	status, 6	;RP1=0, select bank0
  1596  1105  00DB               movwf	((??_main+0)+0+1),f
  1597  1106  30DD               	movlw	221
  1598  1107  00DA               movwf	((??_main+0)+0),f
  1599  1108                     u8087:
  1600  1108  0BDA               	decfsz	((??_main+0)+0),f
  1601  1109  2908               	goto	u8087
  1602  110A  0BDB               	decfsz	((??_main+0)+0+1),f
  1603  110B  2908               	goto	u8087
  1604  110C  290D               	nop2
  1605                           opt asmopt_on
  1606                           
  1607                           	line	536
  1608                           	
  1609  110D                     l8440:	
  1610                           ;FM_RADIO_main.c: 536: MAIN_STAT = 1;
  1611  110D  3001               	movlw	low(01h)
  1612  110E  1683               	bsf	status, 5	;RP0=1, select bank1
  1613  110F  1303               	bcf	status, 6	;RP1=0, select bank1
  1614  1110  00A2               	movwf	(main@MAIN_STAT)^080h
  1615  1111  3000               	movlw	high(01h)
  1616  1112  00A3               	movwf	((main@MAIN_STAT)^080h)+1
  1617                           	line	537
  1618                           	
  1619  1113                     l8442:	
  1620                           ;FM_RADIO_main.c: 537: lcd_RS();
  1621  1113  160A  158A  23D8   	fcall	_lcd_RS
              160A  118A         
  1622                           	line	538
  1623                           	
  1624  1118                     l8444:	
  1625                           ;FM_RADIO_main.c: 538: fmIC_RS();
  1626  1118  120A  158A  2017   	fcall	_fmIC_RS
              160A  118A         
  1627                           	line	539
  1628                           	
  1629  111D                     l8446:	
  1630                           ;FM_RADIO_main.c: 539: fmIC_VOL(FMVOL);
  1631  111D  1683               	bsf	status, 5	;RP0=1, select bank1
  1632  111E  1303               	bcf	status, 6	;RP1=0, select bank1
  1633  111F  0832               	movf	(main@FMVOL)^080h,w
  1634  1120  160A  158A  202D   	fcall	_fmIC_VOL
              160A  118A         
  1635                           	line	540
  1636                           	
  1637  1125                     l8448:	
  1638                           ;FM_RADIO_main.c: 540: lcd_int(2, 0x46, cnt1);
  1639  1125  3002               	movlw	low(02h)
  1640  1126  1283               	bcf	status, 5	;RP0=0, select bank0
  1641  1127  1303               	bcf	status, 6	;RP1=0, select bank0
  1642  1128  00AE               	movwf	(?_lcd_int)
  1643  1129  3000               	movlw	high(02h)
  1644  112A  00AF               	movwf	((?_lcd_int))+1
  1645  112B  3046               	movlw	low(046h)
  1646  112C  00B0               	movwf	0+(?_lcd_int)+02h
  1647  112D  3000               	movlw	high(046h)
  1648  112E  00B1               	movwf	(0+(?_lcd_int)+02h)+1
  1649  112F  1683               	bsf	status, 5	;RP0=1, select bank1
  1650  1130  1303               	bcf	status, 6	;RP1=0, select bank1
  1651  1131  0831               	movf	(main@cnt1+1)^080h,w
  1652  1132  1283               	bcf	status, 5	;RP0=0, select bank0
  1653  1133  1303               	bcf	status, 6	;RP1=0, select bank0
  1654  1134  01B3               	clrf	1+(?_lcd_int)+04h
  1655  1135  07B3               	addwf	1+(?_lcd_int)+04h
  1656  1136  1683               	bsf	status, 5	;RP0=1, select bank1
  1657  1137  1303               	bcf	status, 6	;RP1=0, select bank1
  1658  1138  0830               	movf	(main@cnt1)^080h,w
  1659  1139  1283               	bcf	status, 5	;RP0=0, select bank0
  1660  113A  1303               	bcf	status, 6	;RP1=0, select bank0
  1661  113B  01B2               	clrf	0+(?_lcd_int)+04h
  1662  113C  07B2               	addwf	0+(?_lcd_int)+04h
  1663                           
  1664  113D  120A  118A  2768   	fcall	_lcd_int
              160A  118A         
  1665                           	line	541
  1666                           	
  1667  1142                     l8450:	
  1668                           ;FM_RADIO_main.c: 541: lcd_int(2, 0x42, fmNo);
  1669  1142  3002               	movlw	low(02h)
  1670  1143  1283               	bcf	status, 5	;RP0=0, select bank0
  1671  1144  1303               	bcf	status, 6	;RP1=0, select bank0
  1672  1145  00AE               	movwf	(?_lcd_int)
  1673  1146  3000               	movlw	high(02h)
  1674  1147  00AF               	movwf	((?_lcd_int))+1
  1675  1148  3042               	movlw	low(042h)
  1676  1149  00B0               	movwf	0+(?_lcd_int)+02h
  1677  114A  3000               	movlw	high(042h)
  1678  114B  00B1               	movwf	(0+(?_lcd_int)+02h)+1
  1679  114C  1683               	bsf	status, 5	;RP0=1, select bank1
  1680  114D  1303               	bcf	status, 6	;RP1=0, select bank1
  1681  114E  0835               	movf	(main@fmNo+1)^080h,w
  1682  114F  1283               	bcf	status, 5	;RP0=0, select bank0
  1683  1150  1303               	bcf	status, 6	;RP1=0, select bank0
  1684  1151  01B3               	clrf	1+(?_lcd_int)+04h
  1685  1152  07B3               	addwf	1+(?_lcd_int)+04h
  1686  1153  1683               	bsf	status, 5	;RP0=1, select bank1
  1687  1154  1303               	bcf	status, 6	;RP1=0, select bank1
  1688  1155  0834               	movf	(main@fmNo)^080h,w
  1689  1156  1283               	bcf	status, 5	;RP0=0, select bank0
  1690  1157  1303               	bcf	status, 6	;RP1=0, select bank0
  1691  1158  01B2               	clrf	0+(?_lcd_int)+04h
  1692  1159  07B2               	addwf	0+(?_lcd_int)+04h
  1693                           
  1694  115A  120A  118A  2768   	fcall	_lcd_int
              160A  118A         
  1695                           	line	542
  1696                           	
  1697  115F                     l8452:	
  1698                           ;FM_RADIO_main.c: 542: lcd_float(0x01, fcont_pp);
  1699  115F  3001               	movlw	low(01h)
  1700  1160  1283               	bcf	status, 5	;RP0=0, select bank0
  1701  1161  1303               	bcf	status, 6	;RP1=0, select bank0
  1702  1162  00B5               	movwf	(?_lcd_float)
  1703  1163  3000               	movlw	high(01h)
  1704  1164  00B6               	movwf	((?_lcd_float))+1
  1705  1165  0879               	movf	(_fcont_pp+1),w
  1706  1166  01B8               	clrf	1+(?_lcd_float)+02h
  1707  1167  07B8               	addwf	1+(?_lcd_float)+02h
  1708  1168  0878               	movf	(_fcont_pp),w
  1709  1169  01B7               	clrf	0+(?_lcd_float)+02h
  1710  116A  07B7               	addwf	0+(?_lcd_float)+02h
  1711                           
  1712  116B  160A  158A  24C7   	fcall	_lcd_float
              160A  118A         
  1713                           	line	543
  1714                           	
  1715  1170                     l8454:	
  1716                           ;FM_RADIO_main.c: 543: start_LCD_POINT();
  1717  1170  160A  158A  25C1   	fcall	_start_LCD_POINT
              160A  118A         
  1718                           	line	544
  1719                           	
  1720  1175                     l8456:	
  1721                           ;FM_RADIO_main.c: 544: fm_fcon_write(fcont_pp);
  1722  1175  0879               	movf	(_fcont_pp+1),w
  1723  1176  1283               	bcf	status, 5	;RP0=0, select bank0
  1724  1177  1303               	bcf	status, 6	;RP1=0, select bank0
  1725  1178  01B6               	clrf	(?_fm_fcon_write+1)
  1726  1179  07B6               	addwf	(?_fm_fcon_write+1)
  1727  117A  0878               	movf	(_fcont_pp),w
  1728  117B  01B5               	clrf	(?_fm_fcon_write)
  1729  117C  07B5               	addwf	(?_fm_fcon_write)
  1730                           
  1731  117D  160A  158A  21A2   	fcall	_fm_fcon_write
              160A  118A         
  1732                           	line	546
  1733                           ;FM_RADIO_main.c: 546: while(!MAIN_CON){
  1734  1182  120A  118A  2D82   	goto	l8736
  1735                           	
  1736  1EBE                     l1253:	
  1737                           	line	547
  1738                           ;FM_RADIO_main.c: 547: while(!(RA1 || RA3 || RA2)){
  1739  1EBE  2F5C               	goto	l8474
  1740                           	
  1741  1EBF                     l1255:	
  1742                           	line	548
  1743                           	
  1744  1EBF                     l8458:	
  1745                           ;FM_RADIO_main.c: 548: oscsel(3);
  1746  1EBF  3003               	movlw	low(03h)
  1747  1EC0  00F4               	movwf	(?_oscsel)
  1748  1EC1  3000               	movlw	high(03h)
  1749  1EC2  00F5               	movwf	((?_oscsel))+1
  1750  1EC3  160A  158A  2067   	fcall	_oscsel
              160A  158A         
  1751                           	line	549
  1752                           	
  1753  1EC8                     l8460:	
  1754                           ;FM_RADIO_main.c: 549: SSPADD = 0x00;
  1755  1EC8  1683               	bsf	status, 5	;RP0=1, select bank1
  1756  1EC9  1303               	bcf	status, 6	;RP1=0, select bank1
  1757  1ECA  0193               	clrf	(147)^080h	;volatile
  1758                           	line	550
  1759                           	
  1760  1ECB                     l8462:	
  1761                           ;FM_RADIO_main.c: 550: if(0b00000011 == (i2c_byte_read(0,0b01101010,0x12) & 0b00000011))
                                 {
  1762  1ECB  3000               	movlw	low(0)
  1763  1ECC  1283               	bcf	status, 5	;RP0=0, select bank0
  1764  1ECD  1303               	bcf	status, 6	;RP1=0, select bank0
  1765  1ECE  00A6               	movwf	(?_i2c_byte_read)
  1766  1ECF  3000               	movlw	high(0)
  1767  1ED0  00A7               	movwf	((?_i2c_byte_read))+1
  1768  1ED1  306A               	movlw	(06Ah)
  1769  1ED2  00DA               	movwf	(??_main+0)+0
  1770  1ED3  085A               	movf	(??_main+0)+0,w
  1771  1ED4  00A8               	movwf	0+(?_i2c_byte_read)+02h
  1772  1ED5  3012               	movlw	(012h)
  1773  1ED6  00DB               	movwf	(??_main+1)+0
  1774  1ED7  085B               	movf	(??_main+1)+0,w
  1775  1ED8  00A9               	movwf	0+(?_i2c_byte_read)+03h
  1776  1ED9  160A  158A  2269   	fcall	_i2c_byte_read
              160A  158A         
  1777  1EDE  3003               	movlw	low(03h)
  1778  1EDF  1283               	bcf	status, 5	;RP0=0, select bank0
  1779  1EE0  1303               	bcf	status, 6	;RP1=0, select bank0
  1780  1EE1  0526               	andwf	(0+(?_i2c_byte_read)),w
  1781  1EE2  00DC               	movwf	(??_main+2)+0
  1782  1EE3  3000               	movlw	high(03h)
  1783  1EE4  0527               	andwf	(1+(?_i2c_byte_read)),w
  1784  1EE5  00DD               	movwf	1+(??_main+2)+0
  1785  1EE6  3003               	movlw	03h
  1786  1EE7  065C               	xorwf	0+(??_main+2)+0,w
  1787  1EE8  045D               	iorwf	1+(??_main+2)+0,w
  1788  1EE9  1D03               	skipz
  1789  1EEA  2EEC               	goto	u7431
  1790  1EEB  2EED               	goto	u7430
  1791  1EEC                     u7431:
  1792  1EEC  2F19               	goto	l8466
  1793  1EED                     u7430:
  1794                           	line	551
  1795                           	
  1796  1EED                     l8464:	
  1797                           ;FM_RADIO_main.c: 551: i2c_byte_write(0,0x7C,0x00,(0x80 + 0x00),0);
  1798  1EED  3000               	movlw	low(0)
  1799  1EEE  00A0               	movwf	(?_i2c_byte_write)
  1800  1EEF  3000               	movlw	high(0)
  1801  1EF0  00A1               	movwf	((?_i2c_byte_write))+1
  1802  1EF1  307C               	movlw	(07Ch)
  1803  1EF2  00DA               	movwf	(??_main+0)+0
  1804  1EF3  085A               	movf	(??_main+0)+0,w
  1805  1EF4  00A2               	movwf	0+(?_i2c_byte_write)+02h
  1806  1EF5  01A3               	clrf	0+(?_i2c_byte_write)+03h
  1807  1EF6  3080               	movlw	(080h)
  1808  1EF7  00DB               	movwf	(??_main+1)+0
  1809  1EF8  085B               	movf	(??_main+1)+0,w
  1810  1EF9  00A4               	movwf	0+(?_i2c_byte_write)+04h
  1811  1EFA  01A5               	clrf	0+(?_i2c_byte_write)+05h
  1812  1EFB  160A  158A  20C7   	fcall	_i2c_byte_write
              160A  158A         
  1813                           	line	552
  1814                           ;FM_RADIO_main.c: 552: i2c_byte_write(0,0x7C,0xC0,'S',0);
  1815  1F00  3000               	movlw	low(0)
  1816  1F01  1283               	bcf	status, 5	;RP0=0, select bank0
  1817  1F02  1303               	bcf	status, 6	;RP1=0, select bank0
  1818  1F03  00A0               	movwf	(?_i2c_byte_write)
  1819  1F04  3000               	movlw	high(0)
  1820  1F05  00A1               	movwf	((?_i2c_byte_write))+1
  1821  1F06  307C               	movlw	(07Ch)
  1822  1F07  00DA               	movwf	(??_main+0)+0
  1823  1F08  085A               	movf	(??_main+0)+0,w
  1824  1F09  00A2               	movwf	0+(?_i2c_byte_write)+02h
  1825  1F0A  30C0               	movlw	(0C0h)
  1826  1F0B  00DB               	movwf	(??_main+1)+0
  1827  1F0C  085B               	movf	(??_main+1)+0,w
  1828  1F0D  00A3               	movwf	0+(?_i2c_byte_write)+03h
  1829  1F0E  3053               	movlw	(053h)
  1830  1F0F  00DC               	movwf	(??_main+2)+0
  1831  1F10  085C               	movf	(??_main+2)+0,w
  1832  1F11  00A4               	movwf	0+(?_i2c_byte_write)+04h
  1833  1F12  01A5               	clrf	0+(?_i2c_byte_write)+05h
  1834  1F13  160A  158A  20C7   	fcall	_i2c_byte_write
              160A  158A         
  1835                           	line	553
  1836                           ;FM_RADIO_main.c: 553: }
  1837  1F18  2F47               	goto	l8468
  1838                           	line	554
  1839                           	
  1840  1F19                     l1256:	
  1841                           	line	555
  1842                           	
  1843  1F19                     l8466:	
  1844                           ;FM_RADIO_main.c: 554: else{
  1845                           ;FM_RADIO_main.c: 555: i2c_byte_write(0,0x7C,0x00,(0x80 + 0x00),0);
  1846  1F19  3000               	movlw	low(0)
  1847  1F1A  1283               	bcf	status, 5	;RP0=0, select bank0
  1848  1F1B  1303               	bcf	status, 6	;RP1=0, select bank0
  1849  1F1C  00A0               	movwf	(?_i2c_byte_write)
  1850  1F1D  3000               	movlw	high(0)
  1851  1F1E  00A1               	movwf	((?_i2c_byte_write))+1
  1852  1F1F  307C               	movlw	(07Ch)
  1853  1F20  00DA               	movwf	(??_main+0)+0
  1854  1F21  085A               	movf	(??_main+0)+0,w
  1855  1F22  00A2               	movwf	0+(?_i2c_byte_write)+02h
  1856  1F23  01A3               	clrf	0+(?_i2c_byte_write)+03h
  1857  1F24  3080               	movlw	(080h)
  1858  1F25  00DB               	movwf	(??_main+1)+0
  1859  1F26  085B               	movf	(??_main+1)+0,w
  1860  1F27  00A4               	movwf	0+(?_i2c_byte_write)+04h
  1861  1F28  01A5               	clrf	0+(?_i2c_byte_write)+05h
  1862  1F29  160A  158A  20C7   	fcall	_i2c_byte_write
              160A  158A         
  1863                           	line	556
  1864                           ;FM_RADIO_main.c: 556: i2c_byte_write(0,0x7C,0xC0,'M',0);
  1865  1F2E  3000               	movlw	low(0)
  1866  1F2F  1283               	bcf	status, 5	;RP0=0, select bank0
  1867  1F30  1303               	bcf	status, 6	;RP1=0, select bank0
  1868  1F31  00A0               	movwf	(?_i2c_byte_write)
  1869  1F32  3000               	movlw	high(0)
  1870  1F33  00A1               	movwf	((?_i2c_byte_write))+1
  1871  1F34  307C               	movlw	(07Ch)
  1872  1F35  00DA               	movwf	(??_main+0)+0
  1873  1F36  085A               	movf	(??_main+0)+0,w
  1874  1F37  00A2               	movwf	0+(?_i2c_byte_write)+02h
  1875  1F38  30C0               	movlw	(0C0h)
  1876  1F39  00DB               	movwf	(??_main+1)+0
  1877  1F3A  085B               	movf	(??_main+1)+0,w
  1878  1F3B  00A3               	movwf	0+(?_i2c_byte_write)+03h
  1879  1F3C  304D               	movlw	(04Dh)
  1880  1F3D  00DC               	movwf	(??_main+2)+0
  1881  1F3E  085C               	movf	(??_main+2)+0,w
  1882  1F3F  00A4               	movwf	0+(?_i2c_byte_write)+04h
  1883  1F40  01A5               	clrf	0+(?_i2c_byte_write)+05h
  1884  1F41  160A  158A  20C7   	fcall	_i2c_byte_write
              160A  158A         
  1885  1F46  2F47               	goto	l8468
  1886                           	line	557
  1887                           	
  1888  1F47                     l1257:	
  1889                           	line	558
  1890                           	
  1891  1F47                     l8468:	
  1892                           ;FM_RADIO_main.c: 557: }
  1893                           ;FM_RADIO_main.c: 558: oscsel(1);
  1894  1F47  3001               	movlw	low(01h)
  1895  1F48  00F4               	movwf	(?_oscsel)
  1896  1F49  3000               	movlw	high(01h)
  1897  1F4A  00F5               	movwf	((?_oscsel))+1
  1898  1F4B  160A  158A  2067   	fcall	_oscsel
              160A  158A         
  1899                           	line	559
  1900                           	
  1901  1F50                     l8470:	
  1902                           ;FM_RADIO_main.c: 559: SSPADD = 0x09;
  1903  1F50  3009               	movlw	(09h)
  1904  1F51  1683               	bsf	status, 5	;RP0=1, select bank1
  1905  1F52  1303               	bcf	status, 6	;RP1=0, select bank1
  1906  1F53  0093               	movwf	(147)^080h	;volatile
  1907                           	line	560
  1908                           	
  1909  1F54                     l8472:	
  1910                           ;FM_RADIO_main.c: 560: _delay((unsigned long)((30)*(32000/4000.0)));
  1911                           	opt asmopt_off
  1912  1F54  304F               movlw	79
  1913  1F55  1283               	bcf	status, 5	;RP0=0, select bank0
  1914  1F56  1303               	bcf	status, 6	;RP1=0, select bank0
  1915  1F57  00DA               movwf	(??_main+0)+0,f
  1916  1F58                     u8097:
  1917  1F58  0BDA               decfsz	(??_main+0)+0,f
  1918  1F59  2F58               	goto	u8097
  1919  1F5A  2F5B               	nop2	;nop
  1920                           opt asmopt_on
  1921                           
  1922  1F5B  2F5C               	goto	l8474
  1923                           	line	561
  1924                           	
  1925  1F5C                     l1254:	
  1926                           	line	547
  1927                           	
  1928  1F5C                     l8474:	
  1929  1F5C  1283               	bcf	status, 5	;RP0=0, select bank0
  1930  1F5D  1303               	bcf	status, 6	;RP1=0, select bank0
  1931  1F5E  1885               	btfsc	(41/8),(41)&7
  1932  1F5F  2F61               	goto	u7441
  1933  1F60  2F62               	goto	u7440
  1934  1F61                     u7441:
  1935  1F61  2F6C               	goto	l8480
  1936  1F62                     u7440:
  1937                           	
  1938  1F62                     l8476:	
  1939  1F62  1985               	btfsc	(43/8),(43)&7
  1940  1F63  2F65               	goto	u7451
  1941  1F64  2F66               	goto	u7450
  1942  1F65                     u7451:
  1943  1F65  2F6C               	goto	l8480
  1944  1F66                     u7450:
  1945                           	
  1946  1F66                     l8478:	
  1947  1F66  1D05               	btfss	(42/8),(42)&7
  1948  1F67  2F69               	goto	u7461
  1949  1F68  2F6A               	goto	u7460
  1950  1F69                     u7461:
  1951  1F69  2EBF               	goto	l8458
  1952  1F6A                     u7460:
  1953  1F6A  2F6C               	goto	l8480
  1954                           	
  1955  1F6B                     l1259:	
  1956  1F6B  2F6C               	goto	l8480
  1957                           	
  1958  1F6C                     l1260:	
  1959                           	line	562
  1960                           	
  1961  1F6C                     l8480:	
  1962                           ;FM_RADIO_main.c: 561: }
  1963                           ;FM_RADIO_main.c: 562: oscsel(2);
  1964  1F6C  3002               	movlw	low(02h)
  1965  1F6D  00F4               	movwf	(?_oscsel)
  1966  1F6E  3000               	movlw	high(02h)
  1967  1F6F  00F5               	movwf	((?_oscsel))+1
  1968  1F70  160A  158A  2067   	fcall	_oscsel
              160A  158A         
  1969                           	line	563
  1970                           	
  1971  1F75                     l8482:	
  1972                           ;FM_RADIO_main.c: 563: TMR1H = (c >> 8) ;
  1973  1F75  1683               	bsf	status, 5	;RP0=1, select bank1
  1974  1F76  1303               	bcf	status, 6	;RP1=0, select bank1
  1975  1F77  0829               	movf	(main@c+1)^080h,w
  1976  1F78  1283               	bcf	status, 5	;RP0=0, select bank0
  1977  1F79  1303               	bcf	status, 6	;RP1=0, select bank0
  1978  1F7A  008F               	movwf	(15)	;volatile
  1979                           	line	564
  1980                           	
  1981  1F7B                     l8484:	
  1982                           ;FM_RADIO_main.c: 564: TMR1L = (c & 0x00ff) ;
  1983  1F7B  1683               	bsf	status, 5	;RP0=1, select bank1
  1984  1F7C  1303               	bcf	status, 6	;RP1=0, select bank1
  1985  1F7D  0828               	movf	(main@c)^080h,w
  1986  1F7E  1283               	bcf	status, 5	;RP0=0, select bank0
  1987  1F7F  1303               	bcf	status, 6	;RP1=0, select bank0
  1988  1F80  008E               	movwf	(14)	;volatile
  1989                           	line	565
  1990                           	
  1991  1F81                     l8486:	
  1992                           ;FM_RADIO_main.c: 565: TMR1ON_Flag = 1 ;
  1993  1F81  3001               	movlw	low(01h)
  1994  1F82  00F6               	movwf	(_TMR1ON_Flag)
  1995  1F83  3000               	movlw	high(01h)
  1996  1F84  00F7               	movwf	((_TMR1ON_Flag))+1
  1997                           	line	566
  1998                           	
  1999  1F85                     l8488:	
  2000                           ;FM_RADIO_main.c: 566: TMR1ON = 1 ;
  2001  1F85  1410               	bsf	(128/8),(128)&7
  2002                           	line	567
  2003                           	
  2004  1F86                     l8490:	
  2005                           ;FM_RADIO_main.c: 567: UPf = 0;
  2006  1F86  1683               	bsf	status, 5	;RP0=1, select bank1
  2007  1F87  1303               	bcf	status, 6	;RP1=0, select bank1
  2008  1F88  01AA               	clrf	(main@UPf)^080h
  2009  1F89  01AB               	clrf	(main@UPf+1)^080h
  2010                           	line	568
  2011                           ;FM_RADIO_main.c: 568: while((RA1 = 1) && (UPf < 2)){
  2012  1F8A  120A  118A  283F   	goto	l8518
  2013                           	
  2014  1F8D                     l1262:	
  2015                           	line	569
  2016                           ;FM_RADIO_main.c: 569: if((RA1 == 1) && (TMR1ON_Flag == 0)){
  2017  1F8D  1283               	bcf	status, 5	;RP0=0, select bank0
  2018  1F8E  1303               	bcf	status, 6	;RP1=0, select bank0
  2019  1F8F  1C85               	btfss	(41/8),(41)&7
  2020  1F90  2F92               	goto	u7471
  2021  1F91  2F95               	goto	u7470
  2022  1F92                     u7471:
  2023  1F92  120A  118A  281C   	goto	l1263
  2024  1F95                     u7470:
  2025                           	
  2026  1F95                     l8492:	
  2027  1F95  0877               	movf	((_TMR1ON_Flag+1)),w
  2028  1F96  0476               	iorwf	((_TMR1ON_Flag)),w
  2029  1F97  1D03               	skipz
  2030  1F98  2F9A               	goto	u7481
  2031  1F99  2F9B               	goto	u7480
  2032  1F9A                     u7481:
  2033  1F9A  2F92               	goto	l1263
  2034  1F9B                     u7480:
  2035                           	line	570
  2036                           	
  2037  1F9B                     l8494:	
  2038                           ;FM_RADIO_main.c: 570: oscsel(0);
  2039  1F9B  3000               	movlw	low(0)
  2040  1F9C  00F4               	movwf	(?_oscsel)
  2041  1F9D  3000               	movlw	high(0)
  2042  1F9E  00F5               	movwf	((?_oscsel))+1
  2043  1F9F  160A  158A  2067   	fcall	_oscsel
              160A  158A         
  2044                           	line	571
  2045                           	
  2046  1FA4                     l8496:	
  2047                           ;FM_RADIO_main.c: 571: i2c_byte_write(0,0x7C,0x00,(0x80 + 0x44),0);
  2048  1FA4  3000               	movlw	low(0)
  2049  1FA5  1283               	bcf	status, 5	;RP0=0, select bank0
  2050  1FA6  1303               	bcf	status, 6	;RP1=0, select bank0
  2051  1FA7  00A0               	movwf	(?_i2c_byte_write)
  2052  1FA8  3000               	movlw	high(0)
  2053  1FA9  00A1               	movwf	((?_i2c_byte_write))+1
  2054  1FAA  307C               	movlw	(07Ch)
  2055  1FAB  00DA               	movwf	(??_main+0)+0
  2056  1FAC  085A               	movf	(??_main+0)+0,w
  2057  1FAD  00A2               	movwf	0+(?_i2c_byte_write)+02h
  2058  1FAE  01A3               	clrf	0+(?_i2c_byte_write)+03h
  2059  1FAF  30C4               	movlw	(0C4h)
  2060  1FB0  00DB               	movwf	(??_main+1)+0
  2061  1FB1  085B               	movf	(??_main+1)+0,w
  2062  1FB2  00A4               	movwf	0+(?_i2c_byte_write)+04h
  2063  1FB3  01A5               	clrf	0+(?_i2c_byte_write)+05h
  2064  1FB4  160A  158A  20C7   	fcall	_i2c_byte_write
              160A  158A         
  2065                           	line	572
  2066                           	
  2067  1FB9                     l8498:	
  2068                           ;FM_RADIO_main.c: 572: i2c_byte_write(0,0x7C,0xC0,0b01111110,0);
  2069  1FB9  3000               	movlw	low(0)
  2070  1FBA  1283               	bcf	status, 5	;RP0=0, select bank0
  2071  1FBB  1303               	bcf	status, 6	;RP1=0, select bank0
  2072  1FBC  00A0               	movwf	(?_i2c_byte_write)
  2073  1FBD  3000               	movlw	high(0)
  2074  1FBE  00A1               	movwf	((?_i2c_byte_write))+1
  2075  1FBF  307C               	movlw	(07Ch)
  2076  1FC0  00DA               	movwf	(??_main+0)+0
  2077  1FC1  085A               	movf	(??_main+0)+0,w
  2078  1FC2  00A2               	movwf	0+(?_i2c_byte_write)+02h
  2079  1FC3  30C0               	movlw	(0C0h)
  2080  1FC4  00DB               	movwf	(??_main+1)+0
  2081  1FC5  085B               	movf	(??_main+1)+0,w
  2082  1FC6  00A3               	movwf	0+(?_i2c_byte_write)+03h
  2083  1FC7  307E               	movlw	(07Eh)
  2084  1FC8  00DC               	movwf	(??_main+2)+0
  2085  1FC9  085C               	movf	(??_main+2)+0,w
  2086  1FCA  00A4               	movwf	0+(?_i2c_byte_write)+04h
  2087  1FCB  01A5               	clrf	0+(?_i2c_byte_write)+05h
  2088  1FCC  160A  158A  20C7   	fcall	_i2c_byte_write
              160A  158A         
  2089                           	line	573
  2090                           	
  2091  1FD1                     l8500:	
  2092                           ;FM_RADIO_main.c: 573: UPf = 3;
  2093  1FD1  3003               	movlw	low(03h)
  2094  1FD2  1683               	bsf	status, 5	;RP0=1, select bank1
  2095  1FD3  1303               	bcf	status, 6	;RP1=0, select bank1
  2096  1FD4  00AA               	movwf	(main@UPf)^080h
  2097  1FD5  3000               	movlw	high(03h)
  2098  1FD6  00AB               	movwf	((main@UPf)^080h)+1
  2099                           	line	574
  2100                           	
  2101  1FD7                     l8502:	
  2102                           ;FM_RADIO_main.c: 574: VOL_STAT = 1;
  2103  1FD7  3001               	movlw	low(01h)
  2104  1FD8  00AE               	movwf	(main@VOL_STAT)^080h
  2105  1FD9  3000               	movlw	high(01h)
  2106  1FDA  00AF               	movwf	((main@VOL_STAT)^080h)+1
  2107                           	line	575
  2108                           	
  2109  1FDB                     l8504:	
  2110                           ;FM_RADIO_main.c: 575: fcont_pp = fm_serch(1,fcont_pp);
  2111  1FDB  3001               	movlw	low(01h)
  2112  1FDC  1283               	bcf	status, 5	;RP0=0, select bank0
  2113  1FDD  1303               	bcf	status, 6	;RP1=0, select bank0
  2114  1FDE  00C2               	movwf	(?_fm_serch)
  2115  1FDF  3000               	movlw	high(01h)
  2116  1FE0  00C3               	movwf	((?_fm_serch))+1
  2117  1FE1  0879               	movf	(_fcont_pp+1),w
  2118  1FE2  01C5               	clrf	1+(?_fm_serch)+02h
  2119  1FE3  07C5               	addwf	1+(?_fm_serch)+02h
  2120  1FE4  0878               	movf	(_fcont_pp),w
  2121  1FE5  01C4               	clrf	0+(?_fm_serch)+02h
  2122  1FE6  07C4               	addwf	0+(?_fm_serch)+02h
  2123                           
  2124  1FE7  160A  118A  2185   	fcall	_fm_serch
              160A  158A         
  2125  1FEC  1283               	bcf	status, 5	;RP0=0, select bank0
  2126  1FED  1303               	bcf	status, 6	;RP1=0, select bank0
  2127  1FEE  0843               	movf	(1+(?_fm_serch)),w
  2128  1FEF  01F9               	clrf	(_fcont_pp+1)
  2129  1FF0  07F9               	addwf	(_fcont_pp+1)
  2130  1FF1  0842               	movf	(0+(?_fm_serch)),w
  2131  1FF2  01F8               	clrf	(_fcont_pp)
  2132  1FF3  07F8               	addwf	(_fcont_pp)
  2133                           
  2134                           	line	576
  2135                           	
  2136  1FF4                     l8506:	
  2137                           ;FM_RADIO_main.c: 576: oscsel(1);
  2138  1FF4  3001               	movlw	low(01h)
  2139  1FF5  00F4               	movwf	(?_oscsel)
  2140  1FF6  3000               	movlw	high(01h)
  2141  1FF7  00F5               	movwf	((?_oscsel))+1
  2142  1FF8  160A  158A  2067   	fcall	_oscsel
              160A  158A         
  2143                           	line	577
  2144                           ;FM_RADIO_main.c: 577: while(RA1);
  2145  1FFD  120A  118A  2815   	goto	l1264
  2146                           	
  2147  0015                     l1265:	
  2148                           	
  2149  0015                     l1264:	
  2150  0015  1283               	bcf	status, 5	;RP0=0, select bank0
  2151  0016  1303               	bcf	status, 6	;RP1=0, select bank0
  2152  0017  1885               	btfsc	(41/8),(41)&7
  2153  0018  281A               	goto	u7491
  2154  0019  281B               	goto	u7490
  2155  001A                     u7491:
  2156  001A  2815               	goto	l1264
  2157  001B                     u7490:
  2158  001B  281C               	goto	l1263
  2159                           	
  2160  001C                     l1266:	
  2161                           	line	578
  2162                           	
  2163  001C                     l1263:	
  2164                           	line	579
  2165                           ;FM_RADIO_main.c: 578: }
  2166                           ;FM_RADIO_main.c: 579: if((RA1 == 1) && (TMR1ON_Flag == 1))UPf = 1;
  2167  001C  1C85               	btfss	(41/8),(41)&7
  2168  001D  281F               	goto	u7501
  2169  001E  2820               	goto	u7500
  2170  001F                     u7501:
  2171  001F  282E               	goto	l8512
  2172  0020                     u7500:
  2173                           	
  2174  0020                     l8508:	
  2175  0020  3001               	movlw	01h
  2176  0021  0676               	xorwf	(_TMR1ON_Flag),w
  2177  0022  0477               	iorwf	(_TMR1ON_Flag+1),w
  2178  0023  1D03               	skipz
  2179  0024  2826               	goto	u7511
  2180  0025  2827               	goto	u7510
  2181  0026                     u7511:
  2182  0026  282E               	goto	l8512
  2183  0027                     u7510:
  2184                           	
  2185  0027                     l8510:	
  2186  0027  3001               	movlw	low(01h)
  2187  0028  1683               	bsf	status, 5	;RP0=1, select bank1
  2188  0029  1303               	bcf	status, 6	;RP1=0, select bank1
  2189  002A  00AA               	movwf	(main@UPf)^080h
  2190  002B  3000               	movlw	high(01h)
  2191  002C  00AB               	movwf	((main@UPf)^080h)+1
  2192  002D  282E               	goto	l8512
  2193                           	
  2194  002E                     l1267:	
  2195                           	line	580
  2196                           	
  2197  002E                     l8512:	
  2198                           ;FM_RADIO_main.c: 580: if((RA1 == 1) && (RA2 == 1))UPf = 2;
  2199  002E  1283               	bcf	status, 5	;RP0=0, select bank0
  2200  002F  1C85               	btfss	(41/8),(41)&7
  2201  0030  2832               	goto	u7521
  2202  0031  2833               	goto	u7520
  2203  0032                     u7521:
  2204  0032  283F               	goto	l8518
  2205  0033                     u7520:
  2206                           	
  2207  0033                     l8514:	
  2208  0033  1D05               	btfss	(42/8),(42)&7
  2209  0034  2836               	goto	u7531
  2210  0035  2837               	goto	u7530
  2211  0036                     u7531:
  2212  0036  283F               	goto	l8518
  2213  0037                     u7530:
  2214                           	
  2215  0037                     l8516:	
  2216  0037  3002               	movlw	low(02h)
  2217  0038  1683               	bsf	status, 5	;RP0=1, select bank1
  2218  0039  1303               	bcf	status, 6	;RP1=0, select bank1
  2219  003A  00AA               	movwf	(main@UPf)^080h
  2220  003B  3000               	movlw	high(02h)
  2221  003C  00AB               	movwf	((main@UPf)^080h)+1
  2222  003D  283F               	goto	l8518
  2223                           	
  2224  003E                     l1268:	
  2225  003E  283F               	goto	l8518
  2226                           	line	581
  2227                           	
  2228  003F                     l1261:	
  2229                           	line	568
  2230                           	
  2231  003F                     l8518:	
  2232  003F  1283               	bcf	status, 5	;RP0=0, select bank0
  2233  0040  1485               	bsf	(41/8),(41)&7
  2234  0041  1C85               	btfss	(41/8),(41)&7
  2235  0042  2844               	goto	u7541
  2236  0043  2845               	goto	u7540
  2237  0044                     u7541:
  2238  0044  2857               	goto	l1271
  2239  0045                     u7540:
  2240                           	
  2241  0045                     l8520:	
  2242  0045  1683               	bsf	status, 5	;RP0=1, select bank1
  2243  0046  1303               	bcf	status, 6	;RP1=0, select bank1
  2244  0047  082B               	movf	(main@UPf+1)^080h,w
  2245  0048  3A80               	xorlw	80h
  2246  0049  00FF               	movwf	btemp+1
  2247  004A  3080               	movlw	(high(02h))^80h
  2248  004B  027F               	subwf	btemp+1,w
  2249  004C  1D03               	skipz
  2250  004D  2850               	goto	u7555
  2251  004E  3002               	movlw	low(02h)
  2252  004F  022A               	subwf	(main@UPf)^080h,w
  2253  0050                     u7555:
  2254                           
  2255  0050  1C03               	skipc
  2256  0051  2853               	goto	u7551
  2257  0052  2856               	goto	u7550
  2258  0053                     u7551:
  2259  0053  160A  158A  2F8D   	goto	l1262
  2260  0056                     u7550:
  2261  0056  2857               	goto	l1271
  2262                           	
  2263  0057                     l1270:	
  2264                           	
  2265  0057                     l1271:	
  2266                           	line	582
  2267                           ;FM_RADIO_main.c: 581: }
  2268                           ;FM_RADIO_main.c: 582: TMR1ON = 0 ;
  2269  0057  1283               	bcf	status, 5	;RP0=0, select bank0
  2270  0058  1303               	bcf	status, 6	;RP1=0, select bank0
  2271  0059  1010               	bcf	(128/8),(128)&7
  2272                           	line	583
  2273                           	
  2274  005A                     l8522:	
  2275                           ;FM_RADIO_main.c: 583: oscsel(1);
  2276  005A  3001               	movlw	low(01h)
  2277  005B  00F4               	movwf	(?_oscsel)
  2278  005C  3000               	movlw	high(01h)
  2279  005D  00F5               	movwf	((?_oscsel))+1
  2280  005E  160A  158A  2067   	fcall	_oscsel
              120A  118A         
  2281                           	line	584
  2282                           	
  2283  0063                     l8524:	
  2284                           ;FM_RADIO_main.c: 584: if((UPf > 0) && (UPf < 3) && (VOL_STAT == 0)){
  2285  0063  1683               	bsf	status, 5	;RP0=1, select bank1
  2286  0064  1303               	bcf	status, 6	;RP1=0, select bank1
  2287  0065  082B               	movf	(main@UPf+1)^080h,w
  2288  0066  3A80               	xorlw	80h
  2289  0067  00FF               	movwf	btemp+1
  2290  0068  3080               	movlw	(high(01h))^80h
  2291  0069  027F               	subwf	btemp+1,w
  2292  006A  1D03               	skipz
  2293  006B  286E               	goto	u7565
  2294  006C  3001               	movlw	low(01h)
  2295  006D  022A               	subwf	(main@UPf)^080h,w
  2296  006E                     u7565:
  2297                           
  2298  006E  1C03               	skipc
  2299  006F  2871               	goto	u7561
  2300  0070  2872               	goto	u7560
  2301  0071                     u7561:
  2302  0071  29CD               	goto	l8572
  2303  0072                     u7560:
  2304                           	
  2305  0072                     l8526:	
  2306  0072  1683               	bsf	status, 5	;RP0=1, select bank1
  2307  0073  1303               	bcf	status, 6	;RP1=0, select bank1
  2308  0074  082B               	movf	(main@UPf+1)^080h,w
  2309  0075  3A80               	xorlw	80h
  2310  0076  00FF               	movwf	btemp+1
  2311  0077  3080               	movlw	(high(03h))^80h
  2312  0078  027F               	subwf	btemp+1,w
  2313  0079  1D03               	skipz
  2314  007A  287D               	goto	u7575
  2315  007B  3003               	movlw	low(03h)
  2316  007C  022A               	subwf	(main@UPf)^080h,w
  2317  007D                     u7575:
  2318                           
  2319  007D  1803               	skipnc
  2320  007E  2880               	goto	u7571
  2321  007F  2881               	goto	u7570
  2322  0080                     u7571:
  2323  0080  29CD               	goto	l8572
  2324  0081                     u7570:
  2325                           	
  2326  0081                     l8528:	
  2327  0081  1683               	bsf	status, 5	;RP0=1, select bank1
  2328  0082  1303               	bcf	status, 6	;RP1=0, select bank1
  2329  0083  082F               	movf	((main@VOL_STAT+1)^080h),w
  2330  0084  042E               	iorwf	((main@VOL_STAT)^080h),w
  2331  0085  1D03               	skipz
  2332  0086  2888               	goto	u7581
  2333  0087  2889               	goto	u7580
  2334  0088                     u7581:
  2335  0088  29CD               	goto	l8572
  2336  0089                     u7580:
  2337                           	line	585
  2338                           	
  2339  0089                     l8530:	
  2340                           ;FM_RADIO_main.c: 585: if(UPf == 2){
  2341  0089  3002               	movlw	02h
  2342  008A  062A               	xorwf	(main@UPf)^080h,w
  2343  008B  042B               	iorwf	(main@UPf+1)^080h,w
  2344  008C  1D03               	skipz
  2345  008D  288F               	goto	u7591
  2346  008E  2890               	goto	u7590
  2347  008F                     u7591:
  2348  008F  2964               	goto	l1278
  2349  0090                     u7590:
  2350                           	line	586
  2351                           	
  2352  0090                     l8532:	
  2353                           ;FM_RADIO_main.c: 586: if(fmNo < 32)fmNo++;
  2354  0090  0835               	movf	(main@fmNo+1)^080h,w
  2355  0091  3A80               	xorlw	80h
  2356  0092  00FF               	movwf	btemp+1
  2357  0093  3080               	movlw	(high(020h))^80h
  2358  0094  027F               	subwf	btemp+1,w
  2359  0095  1D03               	skipz
  2360  0096  2899               	goto	u7605
  2361  0097  3020               	movlw	low(020h)
  2362  0098  0234               	subwf	(main@fmNo)^080h,w
  2363  0099                     u7605:
  2364                           
  2365  0099  1803               	skipnc
  2366  009A  289C               	goto	u7601
  2367  009B  289D               	goto	u7600
  2368  009C                     u7601:
  2369  009C  28A6               	goto	l8536
  2370  009D                     u7600:
  2371                           	
  2372  009D                     l8534:	
  2373  009D  3001               	movlw	low(01h)
  2374  009E  1683               	bsf	status, 5	;RP0=1, select bank1
  2375  009F  1303               	bcf	status, 6	;RP1=0, select bank1
  2376  00A0  07B4               	addwf	(main@fmNo)^080h,f
  2377  00A1  1803               	skipnc
  2378  00A2  0AB5               	incf	(main@fmNo+1)^080h,f
  2379  00A3  3000               	movlw	high(01h)
  2380  00A4  07B5               	addwf	(main@fmNo+1)^080h,f
  2381  00A5  28A6               	goto	l8536
  2382                           	
  2383  00A6                     l1274:	
  2384                           	line	587
  2385                           	
  2386  00A6                     l8536:	
  2387                           ;FM_RADIO_main.c: 587: oscsel(0);
  2388  00A6  3000               	movlw	low(0)
  2389  00A7  00F4               	movwf	(?_oscsel)
  2390  00A8  3000               	movlw	high(0)
  2391  00A9  00F5               	movwf	((?_oscsel))+1
  2392  00AA  160A  158A  2067   	fcall	_oscsel
              120A  118A         
  2393                           	line	588
  2394                           	
  2395  00AF                     l8538:	
  2396                           ;FM_RADIO_main.c: 588: lcd_int(2,0x42,fmNo);
  2397  00AF  3002               	movlw	low(02h)
  2398  00B0  1283               	bcf	status, 5	;RP0=0, select bank0
  2399  00B1  1303               	bcf	status, 6	;RP1=0, select bank0
  2400  00B2  00AE               	movwf	(?_lcd_int)
  2401  00B3  3000               	movlw	high(02h)
  2402  00B4  00AF               	movwf	((?_lcd_int))+1
  2403  00B5  3042               	movlw	low(042h)
  2404  00B6  00B0               	movwf	0+(?_lcd_int)+02h
  2405  00B7  3000               	movlw	high(042h)
  2406  00B8  00B1               	movwf	(0+(?_lcd_int)+02h)+1
  2407  00B9  1683               	bsf	status, 5	;RP0=1, select bank1
  2408  00BA  1303               	bcf	status, 6	;RP1=0, select bank1
  2409  00BB  0835               	movf	(main@fmNo+1)^080h,w
  2410  00BC  1283               	bcf	status, 5	;RP0=0, select bank0
  2411  00BD  1303               	bcf	status, 6	;RP1=0, select bank0
  2412  00BE  01B3               	clrf	1+(?_lcd_int)+04h
  2413  00BF  07B3               	addwf	1+(?_lcd_int)+04h
  2414  00C0  1683               	bsf	status, 5	;RP0=1, select bank1
  2415  00C1  1303               	bcf	status, 6	;RP1=0, select bank1
  2416  00C2  0834               	movf	(main@fmNo)^080h,w
  2417  00C3  1283               	bcf	status, 5	;RP0=0, select bank0
  2418  00C4  1303               	bcf	status, 6	;RP1=0, select bank0
  2419  00C5  01B2               	clrf	0+(?_lcd_int)+04h
  2420  00C6  07B2               	addwf	0+(?_lcd_int)+04h
  2421                           
  2422  00C7  120A  118A  2768   	fcall	_lcd_int
              120A  118A         
  2423                           	line	589
  2424                           	
  2425  00CC                     l8540:	
  2426                           ;FM_RADIO_main.c: 589: fcont_pp = memory_fcont(0,fmNo,0);
  2427  00CC  3000               	movlw	low(0)
  2428  00CD  1283               	bcf	status, 5	;RP0=0, select bank0
  2429  00CE  1303               	bcf	status, 6	;RP1=0, select bank0
  2430  00CF  00AA               	movwf	(?_memory_fcont)
  2431  00D0  3000               	movlw	high(0)
  2432  00D1  00AB               	movwf	((?_memory_fcont))+1
  2433  00D2  1683               	bsf	status, 5	;RP0=1, select bank1
  2434  00D3  1303               	bcf	status, 6	;RP1=0, select bank1
  2435  00D4  0835               	movf	(main@fmNo+1)^080h,w
  2436  00D5  1283               	bcf	status, 5	;RP0=0, select bank0
  2437  00D6  1303               	bcf	status, 6	;RP1=0, select bank0
  2438  00D7  01AD               	clrf	1+(?_memory_fcont)+02h
  2439  00D8  07AD               	addwf	1+(?_memory_fcont)+02h
  2440  00D9  1683               	bsf	status, 5	;RP0=1, select bank1
  2441  00DA  1303               	bcf	status, 6	;RP1=0, select bank1
  2442  00DB  0834               	movf	(main@fmNo)^080h,w
  2443  00DC  1283               	bcf	status, 5	;RP0=0, select bank0
  2444  00DD  1303               	bcf	status, 6	;RP1=0, select bank0
  2445  00DE  01AC               	clrf	0+(?_memory_fcont)+02h
  2446  00DF  07AC               	addwf	0+(?_memory_fcont)+02h
  2447                           
  2448  00E0  3000               	movlw	low(0)
  2449  00E1  00AE               	movwf	0+(?_memory_fcont)+04h
  2450  00E2  3000               	movlw	high(0)
  2451  00E3  00AF               	movwf	(0+(?_memory_fcont)+04h)+1
  2452  00E4  160A  158A  2352   	fcall	_memory_fcont
              120A  118A         
  2453  00E9  1283               	bcf	status, 5	;RP0=0, select bank0
  2454  00EA  1303               	bcf	status, 6	;RP1=0, select bank0
  2455  00EB  082B               	movf	(1+(?_memory_fcont)),w
  2456  00EC  01F9               	clrf	(_fcont_pp+1)
  2457  00ED  07F9               	addwf	(_fcont_pp+1)
  2458  00EE  082A               	movf	(0+(?_memory_fcont)),w
  2459  00EF  01F8               	clrf	(_fcont_pp)
  2460  00F0  07F8               	addwf	(_fcont_pp)
  2461                           
  2462                           	line	590
  2463                           	
  2464  00F1                     l8542:	
  2465                           ;FM_RADIO_main.c: 590: fm_fcon_write(memory_fcont(0,fmNo,0));
  2466  00F1  3000               	movlw	low(0)
  2467  00F2  00AA               	movwf	(?_memory_fcont)
  2468  00F3  3000               	movlw	high(0)
  2469  00F4  00AB               	movwf	((?_memory_fcont))+1
  2470  00F5  1683               	bsf	status, 5	;RP0=1, select bank1
  2471  00F6  1303               	bcf	status, 6	;RP1=0, select bank1
  2472  00F7  0835               	movf	(main@fmNo+1)^080h,w
  2473  00F8  1283               	bcf	status, 5	;RP0=0, select bank0
  2474  00F9  1303               	bcf	status, 6	;RP1=0, select bank0
  2475  00FA  01AD               	clrf	1+(?_memory_fcont)+02h
  2476  00FB  07AD               	addwf	1+(?_memory_fcont)+02h
  2477  00FC  1683               	bsf	status, 5	;RP0=1, select bank1
  2478  00FD  1303               	bcf	status, 6	;RP1=0, select bank1
  2479  00FE  0834               	movf	(main@fmNo)^080h,w
  2480  00FF  1283               	bcf	status, 5	;RP0=0, select bank0
  2481  0100  1303               	bcf	status, 6	;RP1=0, select bank0
  2482  0101  01AC               	clrf	0+(?_memory_fcont)+02h
  2483  0102  07AC               	addwf	0+(?_memory_fcont)+02h
  2484                           
  2485  0103  3000               	movlw	low(0)
  2486  0104  00AE               	movwf	0+(?_memory_fcont)+04h
  2487  0105  3000               	movlw	high(0)
  2488  0106  00AF               	movwf	(0+(?_memory_fcont)+04h)+1
  2489  0107  160A  158A  2352   	fcall	_memory_fcont
              120A  118A         
  2490  010C  1283               	bcf	status, 5	;RP0=0, select bank0
  2491  010D  1303               	bcf	status, 6	;RP1=0, select bank0
  2492  010E  082B               	movf	(1+(?_memory_fcont)),w
  2493  010F  01B6               	clrf	(?_fm_fcon_write+1)
  2494  0110  07B6               	addwf	(?_fm_fcon_write+1)
  2495  0111  082A               	movf	(0+(?_memory_fcont)),w
  2496  0112  01B5               	clrf	(?_fm_fcon_write)
  2497  0113  07B5               	addwf	(?_fm_fcon_write)
  2498                           
  2499  0114  160A  158A  21A2   	fcall	_fm_fcon_write
              120A  118A         
  2500                           	line	591
  2501                           	
  2502  0119                     l8544:	
  2503                           ;FM_RADIO_main.c: 591: lcd_float(0x01,memory_fcont(0,fmNo,0));
  2504  0119  3001               	movlw	low(01h)
  2505  011A  1283               	bcf	status, 5	;RP0=0, select bank0
  2506  011B  1303               	bcf	status, 6	;RP1=0, select bank0
  2507  011C  00B5               	movwf	(?_lcd_float)
  2508  011D  3000               	movlw	high(01h)
  2509  011E  00B6               	movwf	((?_lcd_float))+1
  2510  011F  3000               	movlw	low(0)
  2511  0120  00AA               	movwf	(?_memory_fcont)
  2512  0121  3000               	movlw	high(0)
  2513  0122  00AB               	movwf	((?_memory_fcont))+1
  2514  0123  1683               	bsf	status, 5	;RP0=1, select bank1
  2515  0124  1303               	bcf	status, 6	;RP1=0, select bank1
  2516  0125  0835               	movf	(main@fmNo+1)^080h,w
  2517  0126  1283               	bcf	status, 5	;RP0=0, select bank0
  2518  0127  1303               	bcf	status, 6	;RP1=0, select bank0
  2519  0128  01AD               	clrf	1+(?_memory_fcont)+02h
  2520  0129  07AD               	addwf	1+(?_memory_fcont)+02h
  2521  012A  1683               	bsf	status, 5	;RP0=1, select bank1
  2522  012B  1303               	bcf	status, 6	;RP1=0, select bank1
  2523  012C  0834               	movf	(main@fmNo)^080h,w
  2524  012D  1283               	bcf	status, 5	;RP0=0, select bank0
  2525  012E  1303               	bcf	status, 6	;RP1=0, select bank0
  2526  012F  01AC               	clrf	0+(?_memory_fcont)+02h
  2527  0130  07AC               	addwf	0+(?_memory_fcont)+02h
  2528                           
  2529  0131  3000               	movlw	low(0)
  2530  0132  00AE               	movwf	0+(?_memory_fcont)+04h
  2531  0133  3000               	movlw	high(0)
  2532  0134  00AF               	movwf	(0+(?_memory_fcont)+04h)+1
  2533  0135  160A  158A  2352   	fcall	_memory_fcont
              120A  118A         
  2534  013A  1283               	bcf	status, 5	;RP0=0, select bank0
  2535  013B  1303               	bcf	status, 6	;RP1=0, select bank0
  2536  013C  082B               	movf	(1+(?_memory_fcont)),w
  2537  013D  01B8               	clrf	1+(?_lcd_float)+02h
  2538  013E  07B8               	addwf	1+(?_lcd_float)+02h
  2539  013F  082A               	movf	(0+(?_memory_fcont)),w
  2540  0140  01B7               	clrf	0+(?_lcd_float)+02h
  2541  0141  07B7               	addwf	0+(?_lcd_float)+02h
  2542                           
  2543  0142  160A  158A  24C7   	fcall	_lcd_float
              120A  118A         
  2544                           	line	592
  2545                           	
  2546  0147                     l8546:	
  2547                           ;FM_RADIO_main.c: 592: VOL_STAT = 1;
  2548  0147  3001               	movlw	low(01h)
  2549  0148  1683               	bsf	status, 5	;RP0=1, select bank1
  2550  0149  1303               	bcf	status, 6	;RP1=0, select bank1
  2551  014A  00AE               	movwf	(main@VOL_STAT)^080h
  2552  014B  3000               	movlw	high(01h)
  2553  014C  00AF               	movwf	((main@VOL_STAT)^080h)+1
  2554                           	line	593
  2555                           	
  2556  014D                     l8548:	
  2557                           ;FM_RADIO_main.c: 593: oscsel(1);
  2558  014D  3001               	movlw	low(01h)
  2559  014E  00F4               	movwf	(?_oscsel)
  2560  014F  3000               	movlw	high(01h)
  2561  0150  00F5               	movwf	((?_oscsel))+1
  2562  0151  160A  158A  2067   	fcall	_oscsel
              120A  118A         
  2563                           	line	594
  2564                           ;FM_RADIO_main.c: 594: while(RA1 || RA2);
  2565  0156  2957               	goto	l1275
  2566                           	
  2567  0157                     l1276:	
  2568                           	
  2569  0157                     l1275:	
  2570  0157  1283               	bcf	status, 5	;RP0=0, select bank0
  2571  0158  1303               	bcf	status, 6	;RP1=0, select bank0
  2572  0159  1885               	btfsc	(41/8),(41)&7
  2573  015A  295C               	goto	u7611
  2574  015B  295D               	goto	u7610
  2575  015C                     u7611:
  2576  015C  2957               	goto	l1275
  2577  015D                     u7610:
  2578                           	
  2579  015D                     l8550:	
  2580  015D  1905               	btfsc	(42/8),(42)&7
  2581  015E  2960               	goto	u7621
  2582  015F  2961               	goto	u7620
  2583  0160                     u7621:
  2584  0160  2957               	goto	l1275
  2585  0161                     u7620:
  2586  0161  2964               	goto	l1278
  2587                           	
  2588  0162                     l1277:	
  2589  0162  2964               	goto	l1278
  2590                           	line	595
  2591                           	
  2592  0163                     l1273:	
  2593                           	line	597
  2594                           ;FM_RADIO_main.c: 595: }
  2595                           ;FM_RADIO_main.c: 597: while(RA1);
  2596  0163  2964               	goto	l1278
  2597                           	
  2598  0164                     l1279:	
  2599                           	
  2600  0164                     l1278:	
  2601  0164  1283               	bcf	status, 5	;RP0=0, select bank0
  2602  0165  1885               	btfsc	(41/8),(41)&7
  2603  0166  2968               	goto	u7631
  2604  0167  2969               	goto	u7630
  2605  0168                     u7631:
  2606  0168  2964               	goto	l1278
  2607  0169                     u7630:
  2608  0169  296A               	goto	l8552
  2609                           	
  2610  016A                     l1280:	
  2611                           	line	599
  2612                           	
  2613  016A                     l8552:	
  2614                           ;FM_RADIO_main.c: 599: if((FMVOL<0b00011111) && (VOL_STAT==0) && (UPf == 1)){
  2615  016A  3000               	movlw	high(01Fh)
  2616  016B  1683               	bsf	status, 5	;RP0=1, select bank1
  2617  016C  1303               	bcf	status, 6	;RP1=0, select bank1
  2618  016D  0233               	subwf	(main@FMVOL+1)^080h,w
  2619  016E  301F               	movlw	low(01Fh)
  2620  016F  1903               	skipnz
  2621  0170  0232               	subwf	(main@FMVOL)^080h,w
  2622  0171  1803               	skipnc
  2623  0172  2974               	goto	u7641
  2624  0173  2975               	goto	u7640
  2625  0174                     u7641:
  2626  0174  29BF               	goto	l8568
  2627  0175                     u7640:
  2628                           	
  2629  0175                     l8554:	
  2630  0175  082F               	movf	((main@VOL_STAT+1)^080h),w
  2631  0176  042E               	iorwf	((main@VOL_STAT)^080h),w
  2632  0177  1D03               	skipz
  2633  0178  297A               	goto	u7651
  2634  0179  297B               	goto	u7650
  2635  017A                     u7651:
  2636  017A  29BF               	goto	l8568
  2637  017B                     u7650:
  2638                           	
  2639  017B                     l8556:	
  2640  017B  3001               	movlw	01h
  2641  017C  062A               	xorwf	(main@UPf)^080h,w
  2642  017D  042B               	iorwf	(main@UPf+1)^080h,w
  2643  017E  1D03               	skipz
  2644  017F  2981               	goto	u7661
  2645  0180  2982               	goto	u7660
  2646  0181                     u7661:
  2647  0181  29BF               	goto	l8568
  2648  0182                     u7660:
  2649                           	line	600
  2650                           	
  2651  0182                     l8558:	
  2652                           ;FM_RADIO_main.c: 600: oscsel(0);
  2653  0182  3000               	movlw	low(0)
  2654  0183  00F4               	movwf	(?_oscsel)
  2655  0184  3000               	movlw	high(0)
  2656  0185  00F5               	movwf	((?_oscsel))+1
  2657  0186  160A  158A  2067   	fcall	_oscsel
              120A  118A         
  2658                           	line	601
  2659                           	
  2660  018B                     l8560:	
  2661                           ;FM_RADIO_main.c: 601: FMVOL = FMVOL + 0x01;
  2662  018B  1683               	bsf	status, 5	;RP0=1, select bank1
  2663  018C  1303               	bcf	status, 6	;RP1=0, select bank1
  2664  018D  0832               	movf	(main@FMVOL)^080h,w
  2665  018E  3E01               	addlw	low(01h)
  2666  018F  00B2               	movwf	(main@FMVOL)^080h
  2667  0190  0833               	movf	(main@FMVOL+1)^080h,w
  2668  0191  1803               	skipnc
  2669  0192  3E01               	addlw	1
  2670  0193  3E00               	addlw	high(01h)
  2671  0194  00B3               	movwf	1+(main@FMVOL)^080h
  2672                           	line	602
  2673                           	
  2674  0195                     l8562:	
  2675                           ;FM_RADIO_main.c: 602: cnt1++;
  2676  0195  3001               	movlw	low(01h)
  2677  0196  07B0               	addwf	(main@cnt1)^080h,f
  2678  0197  1803               	skipnc
  2679  0198  0AB1               	incf	(main@cnt1+1)^080h,f
  2680  0199  3000               	movlw	high(01h)
  2681  019A  07B1               	addwf	(main@cnt1+1)^080h,f
  2682                           	line	603
  2683                           	
  2684  019B                     l8564:	
  2685                           ;FM_RADIO_main.c: 603: fmIC_VOL(FMVOL);
  2686  019B  0832               	movf	(main@FMVOL)^080h,w
  2687  019C  160A  158A  202D   	fcall	_fmIC_VOL
              120A  118A         
  2688                           	line	604
  2689                           	
  2690  01A1                     l8566:	
  2691                           ;FM_RADIO_main.c: 604: lcd_int(2,0x46,cnt1);
  2692  01A1  3002               	movlw	low(02h)
  2693  01A2  1283               	bcf	status, 5	;RP0=0, select bank0
  2694  01A3  1303               	bcf	status, 6	;RP1=0, select bank0
  2695  01A4  00AE               	movwf	(?_lcd_int)
  2696  01A5  3000               	movlw	high(02h)
  2697  01A6  00AF               	movwf	((?_lcd_int))+1
  2698  01A7  3046               	movlw	low(046h)
  2699  01A8  00B0               	movwf	0+(?_lcd_int)+02h
  2700  01A9  3000               	movlw	high(046h)
  2701  01AA  00B1               	movwf	(0+(?_lcd_int)+02h)+1
  2702  01AB  1683               	bsf	status, 5	;RP0=1, select bank1
  2703  01AC  1303               	bcf	status, 6	;RP1=0, select bank1
  2704  01AD  0831               	movf	(main@cnt1+1)^080h,w
  2705  01AE  1283               	bcf	status, 5	;RP0=0, select bank0
  2706  01AF  1303               	bcf	status, 6	;RP1=0, select bank0
  2707  01B0  01B3               	clrf	1+(?_lcd_int)+04h
  2708  01B1  07B3               	addwf	1+(?_lcd_int)+04h
  2709  01B2  1683               	bsf	status, 5	;RP0=1, select bank1
  2710  01B3  1303               	bcf	status, 6	;RP1=0, select bank1
  2711  01B4  0830               	movf	(main@cnt1)^080h,w
  2712  01B5  1283               	bcf	status, 5	;RP0=0, select bank0
  2713  01B6  1303               	bcf	status, 6	;RP1=0, select bank0
  2714  01B7  01B2               	clrf	0+(?_lcd_int)+04h
  2715  01B8  07B2               	addwf	0+(?_lcd_int)+04h
  2716                           
  2717  01B9  120A  118A  2768   	fcall	_lcd_int
              120A  118A         
  2718  01BE  29BF               	goto	l8568
  2719                           	line	605
  2720                           	
  2721  01BF                     l1281:	
  2722                           	line	606
  2723                           	
  2724  01BF                     l8568:	
  2725                           ;FM_RADIO_main.c: 605: }
  2726                           ;FM_RADIO_main.c: 606: oscsel(1);
  2727  01BF  3001               	movlw	low(01h)
  2728  01C0  00F4               	movwf	(?_oscsel)
  2729  01C1  3000               	movlw	high(01h)
  2730  01C2  00F5               	movwf	((?_oscsel))+1
  2731  01C3  160A  158A  2067   	fcall	_oscsel
              120A  118A         
  2732                           	line	607
  2733                           	
  2734  01C8                     l8570:	
  2735                           ;FM_RADIO_main.c: 607: VOL_STAT=0;
  2736  01C8  1683               	bsf	status, 5	;RP0=1, select bank1
  2737  01C9  1303               	bcf	status, 6	;RP1=0, select bank1
  2738  01CA  01AE               	clrf	(main@VOL_STAT)^080h
  2739  01CB  01AF               	clrf	(main@VOL_STAT+1)^080h
  2740  01CC  29CD               	goto	l8572
  2741                           	line	608
  2742                           	
  2743  01CD                     l1272:	
  2744                           	line	609
  2745                           	
  2746  01CD                     l8572:	
  2747                           ;FM_RADIO_main.c: 608: }
  2748                           ;FM_RADIO_main.c: 609: VOL_STAT=0;
  2749  01CD  1683               	bsf	status, 5	;RP0=1, select bank1
  2750  01CE  1303               	bcf	status, 6	;RP1=0, select bank1
  2751  01CF  01AE               	clrf	(main@VOL_STAT)^080h
  2752  01D0  01AF               	clrf	(main@VOL_STAT+1)^080h
  2753                           	line	611
  2754                           	
  2755  01D1                     l8574:	
  2756                           ;FM_RADIO_main.c: 611: oscsel(2);
  2757  01D1  3002               	movlw	low(02h)
  2758  01D2  00F4               	movwf	(?_oscsel)
  2759  01D3  3000               	movlw	high(02h)
  2760  01D4  00F5               	movwf	((?_oscsel))+1
  2761  01D5  160A  158A  2067   	fcall	_oscsel
              120A  118A         
  2762                           	line	612
  2763                           	
  2764  01DA                     l8576:	
  2765                           ;FM_RADIO_main.c: 612: TMR1H = (c >> 8) ;
  2766  01DA  1683               	bsf	status, 5	;RP0=1, select bank1
  2767  01DB  1303               	bcf	status, 6	;RP1=0, select bank1
  2768  01DC  0829               	movf	(main@c+1)^080h,w
  2769  01DD  1283               	bcf	status, 5	;RP0=0, select bank0
  2770  01DE  1303               	bcf	status, 6	;RP1=0, select bank0
  2771  01DF  008F               	movwf	(15)	;volatile
  2772                           	line	613
  2773                           	
  2774  01E0                     l8578:	
  2775                           ;FM_RADIO_main.c: 613: TMR1L = (c & 0x00ff) ;
  2776  01E0  1683               	bsf	status, 5	;RP0=1, select bank1
  2777  01E1  1303               	bcf	status, 6	;RP1=0, select bank1
  2778  01E2  0828               	movf	(main@c)^080h,w
  2779  01E3  1283               	bcf	status, 5	;RP0=0, select bank0
  2780  01E4  1303               	bcf	status, 6	;RP1=0, select bank0
  2781  01E5  008E               	movwf	(14)	;volatile
  2782                           	line	614
  2783                           	
  2784  01E6                     l8580:	
  2785                           ;FM_RADIO_main.c: 614: TMR1ON_Flag = 1 ;
  2786  01E6  3001               	movlw	low(01h)
  2787  01E7  00F6               	movwf	(_TMR1ON_Flag)
  2788  01E8  3000               	movlw	high(01h)
  2789  01E9  00F7               	movwf	((_TMR1ON_Flag))+1
  2790                           	line	615
  2791                           	
  2792  01EA                     l8582:	
  2793                           ;FM_RADIO_main.c: 615: DWf = 0;
  2794  01EA  1683               	bsf	status, 5	;RP0=1, select bank1
  2795  01EB  1303               	bcf	status, 6	;RP1=0, select bank1
  2796  01EC  01AC               	clrf	(main@DWf)^080h
  2797  01ED  01AD               	clrf	(main@DWf+1)^080h
  2798                           	line	616
  2799                           	
  2800  01EE                     l8584:	
  2801                           ;FM_RADIO_main.c: 616: TMR1ON = 1 ;
  2802  01EE  1283               	bcf	status, 5	;RP0=0, select bank0
  2803  01EF  1303               	bcf	status, 6	;RP1=0, select bank0
  2804  01F0  1410               	bsf	(128/8),(128)&7
  2805                           	line	617
  2806                           ;FM_RADIO_main.c: 617: while((RA3 = 1) && (DWf < 2)){
  2807  01F1  2A8B               	goto	l8612
  2808                           	
  2809  01F2                     l1283:	
  2810                           	line	618
  2811                           ;FM_RADIO_main.c: 618: if((RA3 == 1) && (TMR1ON_Flag == 0)){
  2812  01F2  1283               	bcf	status, 5	;RP0=0, select bank0
  2813  01F3  1303               	bcf	status, 6	;RP1=0, select bank0
  2814  01F4  1D85               	btfss	(43/8),(43)&7
  2815  01F5  29F7               	goto	u7671
  2816  01F6  29F8               	goto	u7670
  2817  01F7                     u7671:
  2818  01F7  2A68               	goto	l1284
  2819  01F8                     u7670:
  2820                           	
  2821  01F8                     l8586:	
  2822  01F8  0877               	movf	((_TMR1ON_Flag+1)),w
  2823  01F9  0476               	iorwf	((_TMR1ON_Flag)),w
  2824  01FA  1D03               	skipz
  2825  01FB  29FD               	goto	u7681
  2826  01FC  29FE               	goto	u7680
  2827  01FD                     u7681:
  2828  01FD  2A68               	goto	l1284
  2829  01FE                     u7680:
  2830                           	line	619
  2831                           	
  2832  01FE                     l8588:	
  2833                           ;FM_RADIO_main.c: 619: oscsel(0);
  2834  01FE  3000               	movlw	low(0)
  2835  01FF  00F4               	movwf	(?_oscsel)
  2836  0200  3000               	movlw	high(0)
  2837  0201  00F5               	movwf	((?_oscsel))+1
  2838  0202  160A  158A  2067   	fcall	_oscsel
              120A  118A         
  2839                           	line	620
  2840                           	
  2841  0207                     l8590:	
  2842                           ;FM_RADIO_main.c: 620: i2c_byte_write(0,0x7C,0x00,(0x80 + 0x44),0);
  2843  0207  3000               	movlw	low(0)
  2844  0208  1283               	bcf	status, 5	;RP0=0, select bank0
  2845  0209  1303               	bcf	status, 6	;RP1=0, select bank0
  2846  020A  00A0               	movwf	(?_i2c_byte_write)
  2847  020B  3000               	movlw	high(0)
  2848  020C  00A1               	movwf	((?_i2c_byte_write))+1
  2849  020D  307C               	movlw	(07Ch)
  2850  020E  00DA               	movwf	(??_main+0)+0
  2851  020F  085A               	movf	(??_main+0)+0,w
  2852  0210  00A2               	movwf	0+(?_i2c_byte_write)+02h
  2853  0211  01A3               	clrf	0+(?_i2c_byte_write)+03h
  2854  0212  30C4               	movlw	(0C4h)
  2855  0213  00DB               	movwf	(??_main+1)+0
  2856  0214  085B               	movf	(??_main+1)+0,w
  2857  0215  00A4               	movwf	0+(?_i2c_byte_write)+04h
  2858  0216  01A5               	clrf	0+(?_i2c_byte_write)+05h
  2859  0217  160A  158A  20C7   	fcall	_i2c_byte_write
              120A  118A         
  2860                           	line	621
  2861                           	
  2862  021C                     l8592:	
  2863                           ;FM_RADIO_main.c: 621: i2c_byte_write(0,0x7C,0xC0,0b01111111,0);
  2864  021C  3000               	movlw	low(0)
  2865  021D  1283               	bcf	status, 5	;RP0=0, select bank0
  2866  021E  1303               	bcf	status, 6	;RP1=0, select bank0
  2867  021F  00A0               	movwf	(?_i2c_byte_write)
  2868  0220  3000               	movlw	high(0)
  2869  0221  00A1               	movwf	((?_i2c_byte_write))+1
  2870  0222  307C               	movlw	(07Ch)
  2871  0223  00DA               	movwf	(??_main+0)+0
  2872  0224  085A               	movf	(??_main+0)+0,w
  2873  0225  00A2               	movwf	0+(?_i2c_byte_write)+02h
  2874  0226  30C0               	movlw	(0C0h)
  2875  0227  00DB               	movwf	(??_main+1)+0
  2876  0228  085B               	movf	(??_main+1)+0,w
  2877  0229  00A3               	movwf	0+(?_i2c_byte_write)+03h
  2878  022A  307F               	movlw	(07Fh)
  2879  022B  00DC               	movwf	(??_main+2)+0
  2880  022C  085C               	movf	(??_main+2)+0,w
  2881  022D  00A4               	movwf	0+(?_i2c_byte_write)+04h
  2882  022E  01A5               	clrf	0+(?_i2c_byte_write)+05h
  2883  022F  160A  158A  20C7   	fcall	_i2c_byte_write
              120A  118A         
  2884                           	line	622
  2885                           	
  2886  0234                     l8594:	
  2887                           ;FM_RADIO_main.c: 622: DWf = 3;
  2888  0234  3003               	movlw	low(03h)
  2889  0235  1683               	bsf	status, 5	;RP0=1, select bank1
  2890  0236  1303               	bcf	status, 6	;RP1=0, select bank1
  2891  0237  00AC               	movwf	(main@DWf)^080h
  2892  0238  3000               	movlw	high(03h)
  2893  0239  00AD               	movwf	((main@DWf)^080h)+1
  2894                           	line	623
  2895                           	
  2896  023A                     l8596:	
  2897                           ;FM_RADIO_main.c: 623: VOL_STAT = 1;
  2898  023A  3001               	movlw	low(01h)
  2899  023B  00AE               	movwf	(main@VOL_STAT)^080h
  2900  023C  3000               	movlw	high(01h)
  2901  023D  00AF               	movwf	((main@VOL_STAT)^080h)+1
  2902                           	line	624
  2903                           	
  2904  023E                     l8598:	
  2905                           ;FM_RADIO_main.c: 624: fcont_pp = fm_serch(2,fcont_pp);
  2906  023E  3002               	movlw	low(02h)
  2907  023F  1283               	bcf	status, 5	;RP0=0, select bank0
  2908  0240  1303               	bcf	status, 6	;RP1=0, select bank0
  2909  0241  00C2               	movwf	(?_fm_serch)
  2910  0242  3000               	movlw	high(02h)
  2911  0243  00C3               	movwf	((?_fm_serch))+1
  2912  0244  0879               	movf	(_fcont_pp+1),w
  2913  0245  01C5               	clrf	1+(?_fm_serch)+02h
  2914  0246  07C5               	addwf	1+(?_fm_serch)+02h
  2915  0247  0878               	movf	(_fcont_pp),w
  2916  0248  01C4               	clrf	0+(?_fm_serch)+02h
  2917  0249  07C4               	addwf	0+(?_fm_serch)+02h
  2918                           
  2919  024A  160A  118A  2185   	fcall	_fm_serch
              120A  118A         
  2920  024F  1283               	bcf	status, 5	;RP0=0, select bank0
  2921  0250  1303               	bcf	status, 6	;RP1=0, select bank0
  2922  0251  0843               	movf	(1+(?_fm_serch)),w
  2923  0252  01F9               	clrf	(_fcont_pp+1)
  2924  0253  07F9               	addwf	(_fcont_pp+1)
  2925  0254  0842               	movf	(0+(?_fm_serch)),w
  2926  0255  01F8               	clrf	(_fcont_pp)
  2927  0256  07F8               	addwf	(_fcont_pp)
  2928                           
  2929                           	line	625
  2930                           	
  2931  0257                     l8600:	
  2932                           ;FM_RADIO_main.c: 625: oscsel(1);
  2933  0257  3001               	movlw	low(01h)
  2934  0258  00F4               	movwf	(?_oscsel)
  2935  0259  3000               	movlw	high(01h)
  2936  025A  00F5               	movwf	((?_oscsel))+1
  2937  025B  160A  158A  2067   	fcall	_oscsel
              120A  118A         
  2938                           	line	626
  2939                           ;FM_RADIO_main.c: 626: while(RA3);
  2940  0260  2A61               	goto	l1285
  2941                           	
  2942  0261                     l1286:	
  2943                           	
  2944  0261                     l1285:	
  2945  0261  1283               	bcf	status, 5	;RP0=0, select bank0
  2946  0262  1303               	bcf	status, 6	;RP1=0, select bank0
  2947  0263  1985               	btfsc	(43/8),(43)&7
  2948  0264  2A66               	goto	u7691
  2949  0265  2A67               	goto	u7690
  2950  0266                     u7691:
  2951  0266  2A61               	goto	l1285
  2952  0267                     u7690:
  2953  0267  2A68               	goto	l1284
  2954                           	
  2955  0268                     l1287:	
  2956                           	line	627
  2957                           	
  2958  0268                     l1284:	
  2959                           	line	628
  2960                           ;FM_RADIO_main.c: 627: }
  2961                           ;FM_RADIO_main.c: 628: if((RA3 == 1) && (TMR1ON_Flag == 1))DWf = 1;
  2962  0268  1D85               	btfss	(43/8),(43)&7
  2963  0269  2A6B               	goto	u7701
  2964  026A  2A6C               	goto	u7700
  2965  026B                     u7701:
  2966  026B  2A7A               	goto	l8606
  2967  026C                     u7700:
  2968                           	
  2969  026C                     l8602:	
  2970  026C  3001               	movlw	01h
  2971  026D  0676               	xorwf	(_TMR1ON_Flag),w
  2972  026E  0477               	iorwf	(_TMR1ON_Flag+1),w
  2973  026F  1D03               	skipz
  2974  0270  2A72               	goto	u7711
  2975  0271  2A73               	goto	u7710
  2976  0272                     u7711:
  2977  0272  2A7A               	goto	l8606
  2978  0273                     u7710:
  2979                           	
  2980  0273                     l8604:	
  2981  0273  3001               	movlw	low(01h)
  2982  0274  1683               	bsf	status, 5	;RP0=1, select bank1
  2983  0275  1303               	bcf	status, 6	;RP1=0, select bank1
  2984  0276  00AC               	movwf	(main@DWf)^080h
  2985  0277  3000               	movlw	high(01h)
  2986  0278  00AD               	movwf	((main@DWf)^080h)+1
  2987  0279  2A7A               	goto	l8606
  2988                           	
  2989  027A                     l1288:	
  2990                           	line	629
  2991                           	
  2992  027A                     l8606:	
  2993                           ;FM_RADIO_main.c: 629: if((RA3 == 1) && (RA2 == 1))DWf = 2;
  2994  027A  1283               	bcf	status, 5	;RP0=0, select bank0
  2995  027B  1D85               	btfss	(43/8),(43)&7
  2996  027C  2A7E               	goto	u7721
  2997  027D  2A7F               	goto	u7720
  2998  027E                     u7721:
  2999  027E  2A8B               	goto	l8612
  3000  027F                     u7720:
  3001                           	
  3002  027F                     l8608:	
  3003  027F  1D05               	btfss	(42/8),(42)&7
  3004  0280  2A82               	goto	u7731
  3005  0281  2A83               	goto	u7730
  3006  0282                     u7731:
  3007  0282  2A8B               	goto	l8612
  3008  0283                     u7730:
  3009                           	
  3010  0283                     l8610:	
  3011  0283  3002               	movlw	low(02h)
  3012  0284  1683               	bsf	status, 5	;RP0=1, select bank1
  3013  0285  1303               	bcf	status, 6	;RP1=0, select bank1
  3014  0286  00AC               	movwf	(main@DWf)^080h
  3015  0287  3000               	movlw	high(02h)
  3016  0288  00AD               	movwf	((main@DWf)^080h)+1
  3017  0289  2A8B               	goto	l8612
  3018                           	
  3019  028A                     l1289:	
  3020  028A  2A8B               	goto	l8612
  3021                           	line	630
  3022                           	
  3023  028B                     l1282:	
  3024                           	line	617
  3025                           	
  3026  028B                     l8612:	
  3027  028B  1283               	bcf	status, 5	;RP0=0, select bank0
  3028  028C  1585               	bsf	(43/8),(43)&7
  3029  028D  1D85               	btfss	(43/8),(43)&7
  3030  028E  2A90               	goto	u7741
  3031  028F  2A91               	goto	u7740
  3032  0290                     u7741:
  3033  0290  2AA1               	goto	l1292
  3034  0291                     u7740:
  3035                           	
  3036  0291                     l8614:	
  3037  0291  1683               	bsf	status, 5	;RP0=1, select bank1
  3038  0292  1303               	bcf	status, 6	;RP1=0, select bank1
  3039  0293  082D               	movf	(main@DWf+1)^080h,w
  3040  0294  3A80               	xorlw	80h
  3041  0295  00FF               	movwf	btemp+1
  3042  0296  3080               	movlw	(high(02h))^80h
  3043  0297  027F               	subwf	btemp+1,w
  3044  0298  1D03               	skipz
  3045  0299  2A9C               	goto	u7755
  3046  029A  3002               	movlw	low(02h)
  3047  029B  022C               	subwf	(main@DWf)^080h,w
  3048  029C                     u7755:
  3049                           
  3050  029C  1C03               	skipc
  3051  029D  2A9F               	goto	u7751
  3052  029E  2AA0               	goto	u7750
  3053  029F                     u7751:
  3054  029F  29F2               	goto	l1283
  3055  02A0                     u7750:
  3056  02A0  2AA1               	goto	l1292
  3057                           	
  3058  02A1                     l1291:	
  3059                           	
  3060  02A1                     l1292:	
  3061                           	line	631
  3062                           ;FM_RADIO_main.c: 630: }
  3063                           ;FM_RADIO_main.c: 631: TMR1ON = 0 ;
  3064  02A1  1283               	bcf	status, 5	;RP0=0, select bank0
  3065  02A2  1303               	bcf	status, 6	;RP1=0, select bank0
  3066  02A3  1010               	bcf	(128/8),(128)&7
  3067                           	line	632
  3068                           	
  3069  02A4                     l8616:	
  3070                           ;FM_RADIO_main.c: 632: oscsel(1);
  3071  02A4  3001               	movlw	low(01h)
  3072  02A5  00F4               	movwf	(?_oscsel)
  3073  02A6  3000               	movlw	high(01h)
  3074  02A7  00F5               	movwf	((?_oscsel))+1
  3075  02A8  160A  158A  2067   	fcall	_oscsel
              120A  118A         
  3076                           	line	633
  3077                           	
  3078  02AD                     l8618:	
  3079                           ;FM_RADIO_main.c: 633: if((DWf > 0) && (DWf < 3) && (VOL_STAT == 0)){
  3080  02AD  1683               	bsf	status, 5	;RP0=1, select bank1
  3081  02AE  1303               	bcf	status, 6	;RP1=0, select bank1
  3082  02AF  082D               	movf	(main@DWf+1)^080h,w
  3083  02B0  3A80               	xorlw	80h
  3084  02B1  00FF               	movwf	btemp+1
  3085  02B2  3080               	movlw	(high(01h))^80h
  3086  02B3  027F               	subwf	btemp+1,w
  3087  02B4  1D03               	skipz
  3088  02B5  2AB8               	goto	u7765
  3089  02B6  3001               	movlw	low(01h)
  3090  02B7  022C               	subwf	(main@DWf)^080h,w
  3091  02B8                     u7765:
  3092                           
  3093  02B8  1C03               	skipc
  3094  02B9  2ABB               	goto	u7761
  3095  02BA  2ABC               	goto	u7760
  3096  02BB                     u7761:
  3097  02BB  2C13               	goto	l8666
  3098  02BC                     u7760:
  3099                           	
  3100  02BC                     l8620:	
  3101  02BC  1683               	bsf	status, 5	;RP0=1, select bank1
  3102  02BD  1303               	bcf	status, 6	;RP1=0, select bank1
  3103  02BE  082D               	movf	(main@DWf+1)^080h,w
  3104  02BF  3A80               	xorlw	80h
  3105  02C0  00FF               	movwf	btemp+1
  3106  02C1  3080               	movlw	(high(03h))^80h
  3107  02C2  027F               	subwf	btemp+1,w
  3108  02C3  1D03               	skipz
  3109  02C4  2AC7               	goto	u7775
  3110  02C5  3003               	movlw	low(03h)
  3111  02C6  022C               	subwf	(main@DWf)^080h,w
  3112  02C7                     u7775:
  3113                           
  3114  02C7  1803               	skipnc
  3115  02C8  2ACA               	goto	u7771
  3116  02C9  2ACB               	goto	u7770
  3117  02CA                     u7771:
  3118  02CA  2C13               	goto	l8666
  3119  02CB                     u7770:
  3120                           	
  3121  02CB                     l8622:	
  3122  02CB  1683               	bsf	status, 5	;RP0=1, select bank1
  3123  02CC  1303               	bcf	status, 6	;RP1=0, select bank1
  3124  02CD  082F               	movf	((main@VOL_STAT+1)^080h),w
  3125  02CE  042E               	iorwf	((main@VOL_STAT)^080h),w
  3126  02CF  1D03               	skipz
  3127  02D0  2AD2               	goto	u7781
  3128  02D1  2AD3               	goto	u7780
  3129  02D2                     u7781:
  3130  02D2  2C13               	goto	l8666
  3131  02D3                     u7780:
  3132                           	line	634
  3133                           	
  3134  02D3                     l8624:	
  3135                           ;FM_RADIO_main.c: 634: if(DWf == 2){
  3136  02D3  3002               	movlw	02h
  3137  02D4  062C               	xorwf	(main@DWf)^080h,w
  3138  02D5  042D               	iorwf	(main@DWf+1)^080h,w
  3139  02D6  1D03               	skipz
  3140  02D7  2AD9               	goto	u7791
  3141  02D8  2ADA               	goto	u7790
  3142  02D9                     u7791:
  3143  02D9  2BAD               	goto	l1299
  3144  02DA                     u7790:
  3145                           	line	635
  3146                           	
  3147  02DA                     l8626:	
  3148                           ;FM_RADIO_main.c: 635: if(fmNo > 0)fmNo--;
  3149  02DA  0835               	movf	(main@fmNo+1)^080h,w
  3150  02DB  3A80               	xorlw	80h
  3151  02DC  00FF               	movwf	btemp+1
  3152  02DD  3080               	movlw	(high(01h))^80h
  3153  02DE  027F               	subwf	btemp+1,w
  3154  02DF  1D03               	skipz
  3155  02E0  2AE3               	goto	u7805
  3156  02E1  3001               	movlw	low(01h)
  3157  02E2  0234               	subwf	(main@fmNo)^080h,w
  3158  02E3                     u7805:
  3159                           
  3160  02E3  1C03               	skipc
  3161  02E4  2AE6               	goto	u7801
  3162  02E5  2AE7               	goto	u7800
  3163  02E6                     u7801:
  3164  02E6  2AF0               	goto	l8630
  3165  02E7                     u7800:
  3166                           	
  3167  02E7                     l8628:	
  3168  02E7  30FF               	movlw	low(-1)
  3169  02E8  1683               	bsf	status, 5	;RP0=1, select bank1
  3170  02E9  1303               	bcf	status, 6	;RP1=0, select bank1
  3171  02EA  07B4               	addwf	(main@fmNo)^080h,f
  3172  02EB  1803               	skipnc
  3173  02EC  0AB5               	incf	(main@fmNo+1)^080h,f
  3174  02ED  30FF               	movlw	high(-1)
  3175  02EE  07B5               	addwf	(main@fmNo+1)^080h,f
  3176  02EF  2AF0               	goto	l8630
  3177                           	
  3178  02F0                     l1295:	
  3179                           	line	636
  3180                           	
  3181  02F0                     l8630:	
  3182                           ;FM_RADIO_main.c: 636: oscsel(0);
  3183  02F0  3000               	movlw	low(0)
  3184  02F1  00F4               	movwf	(?_oscsel)
  3185  02F2  3000               	movlw	high(0)
  3186  02F3  00F5               	movwf	((?_oscsel))+1
  3187  02F4  160A  158A  2067   	fcall	_oscsel
              120A  118A         
  3188                           	line	637
  3189                           	
  3190  02F9                     l8632:	
  3191                           ;FM_RADIO_main.c: 637: lcd_int(2,0x42,fmNo);
  3192  02F9  3002               	movlw	low(02h)
  3193  02FA  1283               	bcf	status, 5	;RP0=0, select bank0
  3194  02FB  1303               	bcf	status, 6	;RP1=0, select bank0
  3195  02FC  00AE               	movwf	(?_lcd_int)
  3196  02FD  3000               	movlw	high(02h)
  3197  02FE  00AF               	movwf	((?_lcd_int))+1
  3198  02FF  3042               	movlw	low(042h)
  3199  0300  00B0               	movwf	0+(?_lcd_int)+02h
  3200  0301  3000               	movlw	high(042h)
  3201  0302  00B1               	movwf	(0+(?_lcd_int)+02h)+1
  3202  0303  1683               	bsf	status, 5	;RP0=1, select bank1
  3203  0304  1303               	bcf	status, 6	;RP1=0, select bank1
  3204  0305  0835               	movf	(main@fmNo+1)^080h,w
  3205  0306  1283               	bcf	status, 5	;RP0=0, select bank0
  3206  0307  1303               	bcf	status, 6	;RP1=0, select bank0
  3207  0308  01B3               	clrf	1+(?_lcd_int)+04h
  3208  0309  07B3               	addwf	1+(?_lcd_int)+04h
  3209  030A  1683               	bsf	status, 5	;RP0=1, select bank1
  3210  030B  1303               	bcf	status, 6	;RP1=0, select bank1
  3211  030C  0834               	movf	(main@fmNo)^080h,w
  3212  030D  1283               	bcf	status, 5	;RP0=0, select bank0
  3213  030E  1303               	bcf	status, 6	;RP1=0, select bank0
  3214  030F  01B2               	clrf	0+(?_lcd_int)+04h
  3215  0310  07B2               	addwf	0+(?_lcd_int)+04h
  3216                           
  3217  0311  120A  118A  2768   	fcall	_lcd_int
              120A  118A         
  3218                           	line	638
  3219                           	
  3220  0316                     l8634:	
  3221                           ;FM_RADIO_main.c: 638: fcont_pp = memory_fcont(0,fmNo,0);
  3222  0316  3000               	movlw	low(0)
  3223  0317  1283               	bcf	status, 5	;RP0=0, select bank0
  3224  0318  1303               	bcf	status, 6	;RP1=0, select bank0
  3225  0319  00AA               	movwf	(?_memory_fcont)
  3226  031A  3000               	movlw	high(0)
  3227  031B  00AB               	movwf	((?_memory_fcont))+1
  3228  031C  1683               	bsf	status, 5	;RP0=1, select bank1
  3229  031D  1303               	bcf	status, 6	;RP1=0, select bank1
  3230  031E  0835               	movf	(main@fmNo+1)^080h,w
  3231  031F  1283               	bcf	status, 5	;RP0=0, select bank0
  3232  0320  1303               	bcf	status, 6	;RP1=0, select bank0
  3233  0321  01AD               	clrf	1+(?_memory_fcont)+02h
  3234  0322  07AD               	addwf	1+(?_memory_fcont)+02h
  3235  0323  1683               	bsf	status, 5	;RP0=1, select bank1
  3236  0324  1303               	bcf	status, 6	;RP1=0, select bank1
  3237  0325  0834               	movf	(main@fmNo)^080h,w
  3238  0326  1283               	bcf	status, 5	;RP0=0, select bank0
  3239  0327  1303               	bcf	status, 6	;RP1=0, select bank0
  3240  0328  01AC               	clrf	0+(?_memory_fcont)+02h
  3241  0329  07AC               	addwf	0+(?_memory_fcont)+02h
  3242                           
  3243  032A  3000               	movlw	low(0)
  3244  032B  00AE               	movwf	0+(?_memory_fcont)+04h
  3245  032C  3000               	movlw	high(0)
  3246  032D  00AF               	movwf	(0+(?_memory_fcont)+04h)+1
  3247  032E  160A  158A  2352   	fcall	_memory_fcont
              120A  118A         
  3248  0333  1283               	bcf	status, 5	;RP0=0, select bank0
  3249  0334  1303               	bcf	status, 6	;RP1=0, select bank0
  3250  0335  082B               	movf	(1+(?_memory_fcont)),w
  3251  0336  01F9               	clrf	(_fcont_pp+1)
  3252  0337  07F9               	addwf	(_fcont_pp+1)
  3253  0338  082A               	movf	(0+(?_memory_fcont)),w
  3254  0339  01F8               	clrf	(_fcont_pp)
  3255  033A  07F8               	addwf	(_fcont_pp)
  3256                           
  3257                           	line	639
  3258                           	
  3259  033B                     l8636:	
  3260                           ;FM_RADIO_main.c: 639: fm_fcon_write(memory_fcont(0,fmNo,0));
  3261  033B  3000               	movlw	low(0)
  3262  033C  00AA               	movwf	(?_memory_fcont)
  3263  033D  3000               	movlw	high(0)
  3264  033E  00AB               	movwf	((?_memory_fcont))+1
  3265  033F  1683               	bsf	status, 5	;RP0=1, select bank1
  3266  0340  1303               	bcf	status, 6	;RP1=0, select bank1
  3267  0341  0835               	movf	(main@fmNo+1)^080h,w
  3268  0342  1283               	bcf	status, 5	;RP0=0, select bank0
  3269  0343  1303               	bcf	status, 6	;RP1=0, select bank0
  3270  0344  01AD               	clrf	1+(?_memory_fcont)+02h
  3271  0345  07AD               	addwf	1+(?_memory_fcont)+02h
  3272  0346  1683               	bsf	status, 5	;RP0=1, select bank1
  3273  0347  1303               	bcf	status, 6	;RP1=0, select bank1
  3274  0348  0834               	movf	(main@fmNo)^080h,w
  3275  0349  1283               	bcf	status, 5	;RP0=0, select bank0
  3276  034A  1303               	bcf	status, 6	;RP1=0, select bank0
  3277  034B  01AC               	clrf	0+(?_memory_fcont)+02h
  3278  034C  07AC               	addwf	0+(?_memory_fcont)+02h
  3279                           
  3280  034D  3000               	movlw	low(0)
  3281  034E  00AE               	movwf	0+(?_memory_fcont)+04h
  3282  034F  3000               	movlw	high(0)
  3283  0350  00AF               	movwf	(0+(?_memory_fcont)+04h)+1
  3284  0351  160A  158A  2352   	fcall	_memory_fcont
              120A  118A         
  3285  0356  1283               	bcf	status, 5	;RP0=0, select bank0
  3286  0357  1303               	bcf	status, 6	;RP1=0, select bank0
  3287  0358  082B               	movf	(1+(?_memory_fcont)),w
  3288  0359  01B6               	clrf	(?_fm_fcon_write+1)
  3289  035A  07B6               	addwf	(?_fm_fcon_write+1)
  3290  035B  082A               	movf	(0+(?_memory_fcont)),w
  3291  035C  01B5               	clrf	(?_fm_fcon_write)
  3292  035D  07B5               	addwf	(?_fm_fcon_write)
  3293                           
  3294  035E  160A  158A  21A2   	fcall	_fm_fcon_write
              120A  118A         
  3295                           	line	640
  3296                           	
  3297  0363                     l8638:	
  3298                           ;FM_RADIO_main.c: 640: lcd_float(0x01,memory_fcont(0,fmNo,0));
  3299  0363  3001               	movlw	low(01h)
  3300  0364  1283               	bcf	status, 5	;RP0=0, select bank0
  3301  0365  1303               	bcf	status, 6	;RP1=0, select bank0
  3302  0366  00B5               	movwf	(?_lcd_float)
  3303  0367  3000               	movlw	high(01h)
  3304  0368  00B6               	movwf	((?_lcd_float))+1
  3305  0369  3000               	movlw	low(0)
  3306  036A  00AA               	movwf	(?_memory_fcont)
  3307  036B  3000               	movlw	high(0)
  3308  036C  00AB               	movwf	((?_memory_fcont))+1
  3309  036D  1683               	bsf	status, 5	;RP0=1, select bank1
  3310  036E  1303               	bcf	status, 6	;RP1=0, select bank1
  3311  036F  0835               	movf	(main@fmNo+1)^080h,w
  3312  0370  1283               	bcf	status, 5	;RP0=0, select bank0
  3313  0371  1303               	bcf	status, 6	;RP1=0, select bank0
  3314  0372  01AD               	clrf	1+(?_memory_fcont)+02h
  3315  0373  07AD               	addwf	1+(?_memory_fcont)+02h
  3316  0374  1683               	bsf	status, 5	;RP0=1, select bank1
  3317  0375  1303               	bcf	status, 6	;RP1=0, select bank1
  3318  0376  0834               	movf	(main@fmNo)^080h,w
  3319  0377  1283               	bcf	status, 5	;RP0=0, select bank0
  3320  0378  1303               	bcf	status, 6	;RP1=0, select bank0
  3321  0379  01AC               	clrf	0+(?_memory_fcont)+02h
  3322  037A  07AC               	addwf	0+(?_memory_fcont)+02h
  3323                           
  3324  037B  3000               	movlw	low(0)
  3325  037C  00AE               	movwf	0+(?_memory_fcont)+04h
  3326  037D  3000               	movlw	high(0)
  3327  037E  00AF               	movwf	(0+(?_memory_fcont)+04h)+1
  3328  037F  160A  158A  2352   	fcall	_memory_fcont
              120A  118A         
  3329  0384  1283               	bcf	status, 5	;RP0=0, select bank0
  3330  0385  1303               	bcf	status, 6	;RP1=0, select bank0
  3331  0386  082B               	movf	(1+(?_memory_fcont)),w
  3332  0387  01B8               	clrf	1+(?_lcd_float)+02h
  3333  0388  07B8               	addwf	1+(?_lcd_float)+02h
  3334  0389  082A               	movf	(0+(?_memory_fcont)),w
  3335  038A  01B7               	clrf	0+(?_lcd_float)+02h
  3336  038B  07B7               	addwf	0+(?_lcd_float)+02h
  3337                           
  3338  038C  160A  158A  24C7   	fcall	_lcd_float
              120A  118A         
  3339                           	line	641
  3340                           	
  3341  0391                     l8640:	
  3342                           ;FM_RADIO_main.c: 641: oscsel(1);
  3343  0391  3001               	movlw	low(01h)
  3344  0392  00F4               	movwf	(?_oscsel)
  3345  0393  3000               	movlw	high(01h)
  3346  0394  00F5               	movwf	((?_oscsel))+1
  3347  0395  160A  158A  2067   	fcall	_oscsel
              120A  118A         
  3348                           	line	642
  3349                           	
  3350  039A                     l8642:	
  3351                           ;FM_RADIO_main.c: 642: VOL_STAT = 1;
  3352  039A  3001               	movlw	low(01h)
  3353  039B  1683               	bsf	status, 5	;RP0=1, select bank1
  3354  039C  1303               	bcf	status, 6	;RP1=0, select bank1
  3355  039D  00AE               	movwf	(main@VOL_STAT)^080h
  3356  039E  3000               	movlw	high(01h)
  3357  039F  00AF               	movwf	((main@VOL_STAT)^080h)+1
  3358                           	line	643
  3359                           ;FM_RADIO_main.c: 643: while(RA3 || RA2);
  3360  03A0  2BA1               	goto	l1296
  3361                           	
  3362  03A1                     l1297:	
  3363                           	
  3364  03A1                     l1296:	
  3365  03A1  1283               	bcf	status, 5	;RP0=0, select bank0
  3366  03A2  1985               	btfsc	(43/8),(43)&7
  3367  03A3  2BA5               	goto	u7811
  3368  03A4  2BA6               	goto	u7810
  3369  03A5                     u7811:
  3370  03A5  2BA1               	goto	l1296
  3371  03A6                     u7810:
  3372                           	
  3373  03A6                     l8644:	
  3374  03A6  1905               	btfsc	(42/8),(42)&7
  3375  03A7  2BA9               	goto	u7821
  3376  03A8  2BAA               	goto	u7820
  3377  03A9                     u7821:
  3378  03A9  2BA1               	goto	l1296
  3379  03AA                     u7820:
  3380  03AA  2BAD               	goto	l1299
  3381                           	
  3382  03AB                     l1298:	
  3383  03AB  2BAD               	goto	l1299
  3384                           	line	644
  3385                           	
  3386  03AC                     l1294:	
  3387                           	line	645
  3388                           ;FM_RADIO_main.c: 644: }
  3389                           ;FM_RADIO_main.c: 645: while(RA3);
  3390  03AC  2BAD               	goto	l1299
  3391                           	
  3392  03AD                     l1300:	
  3393                           	
  3394  03AD                     l1299:	
  3395  03AD  1283               	bcf	status, 5	;RP0=0, select bank0
  3396  03AE  1985               	btfsc	(43/8),(43)&7
  3397  03AF  2BB1               	goto	u7831
  3398  03B0  2BB2               	goto	u7830
  3399  03B1                     u7831:
  3400  03B1  2BAD               	goto	l1299
  3401  03B2                     u7830:
  3402  03B2  2BB3               	goto	l8646
  3403                           	
  3404  03B3                     l1301:	
  3405                           	line	646
  3406                           	
  3407  03B3                     l8646:	
  3408                           ;FM_RADIO_main.c: 646: if((FMVOL>0b00000000) && (VOL_STAT==0) && (DWf == 1)){
  3409  03B3  1683               	bsf	status, 5	;RP0=1, select bank1
  3410  03B4  1303               	bcf	status, 6	;RP1=0, select bank1
  3411  03B5  0833               	movf	(main@FMVOL+1)^080h,w
  3412  03B6  0432               	iorwf	(main@FMVOL)^080h,w
  3413  03B7  1903               	skipnz
  3414  03B8  2BBA               	goto	u7841
  3415  03B9  2BBB               	goto	u7840
  3416  03BA                     u7841:
  3417  03BA  2C05               	goto	l8662
  3418  03BB                     u7840:
  3419                           	
  3420  03BB                     l8648:	
  3421  03BB  082F               	movf	((main@VOL_STAT+1)^080h),w
  3422  03BC  042E               	iorwf	((main@VOL_STAT)^080h),w
  3423  03BD  1D03               	skipz
  3424  03BE  2BC0               	goto	u7851
  3425  03BF  2BC1               	goto	u7850
  3426  03C0                     u7851:
  3427  03C0  2C05               	goto	l8662
  3428  03C1                     u7850:
  3429                           	
  3430  03C1                     l8650:	
  3431  03C1  3001               	movlw	01h
  3432  03C2  062C               	xorwf	(main@DWf)^080h,w
  3433  03C3  042D               	iorwf	(main@DWf+1)^080h,w
  3434  03C4  1D03               	skipz
  3435  03C5  2BC7               	goto	u7861
  3436  03C6  2BC8               	goto	u7860
  3437  03C7                     u7861:
  3438  03C7  2C05               	goto	l8662
  3439  03C8                     u7860:
  3440                           	line	647
  3441                           	
  3442  03C8                     l8652:	
  3443                           ;FM_RADIO_main.c: 647: oscsel(0);
  3444  03C8  3000               	movlw	low(0)
  3445  03C9  00F4               	movwf	(?_oscsel)
  3446  03CA  3000               	movlw	high(0)
  3447  03CB  00F5               	movwf	((?_oscsel))+1
  3448  03CC  160A  158A  2067   	fcall	_oscsel
              120A  118A         
  3449                           	line	648
  3450                           	
  3451  03D1                     l8654:	
  3452                           ;FM_RADIO_main.c: 648: FMVOL = FMVOL - 0x01;
  3453  03D1  1683               	bsf	status, 5	;RP0=1, select bank1
  3454  03D2  1303               	bcf	status, 6	;RP1=0, select bank1
  3455  03D3  0832               	movf	(main@FMVOL)^080h,w
  3456  03D4  3EFF               	addlw	low(0FFFFh)
  3457  03D5  00B2               	movwf	(main@FMVOL)^080h
  3458  03D6  0833               	movf	(main@FMVOL+1)^080h,w
  3459  03D7  1803               	skipnc
  3460  03D8  3E01               	addlw	1
  3461  03D9  3EFF               	addlw	high(0FFFFh)
  3462  03DA  00B3               	movwf	1+(main@FMVOL)^080h
  3463                           	line	649
  3464                           	
  3465  03DB                     l8656:	
  3466                           ;FM_RADIO_main.c: 649: cnt1--;
  3467  03DB  30FF               	movlw	low(-1)
  3468  03DC  07B0               	addwf	(main@cnt1)^080h,f
  3469  03DD  1803               	skipnc
  3470  03DE  0AB1               	incf	(main@cnt1+1)^080h,f
  3471  03DF  30FF               	movlw	high(-1)
  3472  03E0  07B1               	addwf	(main@cnt1+1)^080h,f
  3473                           	line	650
  3474                           	
  3475  03E1                     l8658:	
  3476                           ;FM_RADIO_main.c: 650: fmIC_VOL(FMVOL);
  3477  03E1  0832               	movf	(main@FMVOL)^080h,w
  3478  03E2  160A  158A  202D   	fcall	_fmIC_VOL
              120A  118A         
  3479                           	line	651
  3480                           	
  3481  03E7                     l8660:	
  3482                           ;FM_RADIO_main.c: 651: lcd_int(2,0x46,cnt1);
  3483  03E7  3002               	movlw	low(02h)
  3484  03E8  1283               	bcf	status, 5	;RP0=0, select bank0
  3485  03E9  1303               	bcf	status, 6	;RP1=0, select bank0
  3486  03EA  00AE               	movwf	(?_lcd_int)
  3487  03EB  3000               	movlw	high(02h)
  3488  03EC  00AF               	movwf	((?_lcd_int))+1
  3489  03ED  3046               	movlw	low(046h)
  3490  03EE  00B0               	movwf	0+(?_lcd_int)+02h
  3491  03EF  3000               	movlw	high(046h)
  3492  03F0  00B1               	movwf	(0+(?_lcd_int)+02h)+1
  3493  03F1  1683               	bsf	status, 5	;RP0=1, select bank1
  3494  03F2  1303               	bcf	status, 6	;RP1=0, select bank1
  3495  03F3  0831               	movf	(main@cnt1+1)^080h,w
  3496  03F4  1283               	bcf	status, 5	;RP0=0, select bank0
  3497  03F5  1303               	bcf	status, 6	;RP1=0, select bank0
  3498  03F6  01B3               	clrf	1+(?_lcd_int)+04h
  3499  03F7  07B3               	addwf	1+(?_lcd_int)+04h
  3500  03F8  1683               	bsf	status, 5	;RP0=1, select bank1
  3501  03F9  1303               	bcf	status, 6	;RP1=0, select bank1
  3502  03FA  0830               	movf	(main@cnt1)^080h,w
  3503  03FB  1283               	bcf	status, 5	;RP0=0, select bank0
  3504  03FC  1303               	bcf	status, 6	;RP1=0, select bank0
  3505  03FD  01B2               	clrf	0+(?_lcd_int)+04h
  3506  03FE  07B2               	addwf	0+(?_lcd_int)+04h
  3507                           
  3508  03FF  120A  118A  2768   	fcall	_lcd_int
              120A  118A         
  3509  0404  2C05               	goto	l8662
  3510                           	line	652
  3511                           	
  3512  0405                     l1302:	
  3513                           	line	653
  3514                           	
  3515  0405                     l8662:	
  3516                           ;FM_RADIO_main.c: 652: }
  3517                           ;FM_RADIO_main.c: 653: oscsel(1);
  3518  0405  3001               	movlw	low(01h)
  3519  0406  00F4               	movwf	(?_oscsel)
  3520  0407  3000               	movlw	high(01h)
  3521  0408  00F5               	movwf	((?_oscsel))+1
  3522  0409  160A  158A  2067   	fcall	_oscsel
              120A  118A         
  3523                           	line	654
  3524                           	
  3525  040E                     l8664:	
  3526                           ;FM_RADIO_main.c: 654: VOL_STAT=0;
  3527  040E  1683               	bsf	status, 5	;RP0=1, select bank1
  3528  040F  1303               	bcf	status, 6	;RP1=0, select bank1
  3529  0410  01AE               	clrf	(main@VOL_STAT)^080h
  3530  0411  01AF               	clrf	(main@VOL_STAT+1)^080h
  3531  0412  2C13               	goto	l8666
  3532                           	line	655
  3533                           	
  3534  0413                     l1293:	
  3535                           	line	656
  3536                           	
  3537  0413                     l8666:	
  3538                           ;FM_RADIO_main.c: 655: }
  3539                           ;FM_RADIO_main.c: 656: VOL_STAT=0;
  3540  0413  1683               	bsf	status, 5	;RP0=1, select bank1
  3541  0414  1303               	bcf	status, 6	;RP1=0, select bank1
  3542  0415  01AE               	clrf	(main@VOL_STAT)^080h
  3543  0416  01AF               	clrf	(main@VOL_STAT+1)^080h
  3544                           	line	657
  3545                           	
  3546  0417                     l8668:	
  3547                           ;FM_RADIO_main.c: 657: oscsel(1);
  3548  0417  3001               	movlw	low(01h)
  3549  0418  00F4               	movwf	(?_oscsel)
  3550  0419  3000               	movlw	high(01h)
  3551  041A  00F5               	movwf	((?_oscsel))+1
  3552  041B  160A  158A  2067   	fcall	_oscsel
              120A  118A         
  3553                           	line	659
  3554                           	
  3555  0420                     l8670:	
  3556                           ;FM_RADIO_main.c: 659: _delay((unsigned long)((100)*(32000/4000.0)));
  3557                           	opt asmopt_off
  3558  0420  30C7               movlw	199
  3559  0421  1283               	bcf	status, 5	;RP0=0, select bank0
  3560  0422  1303               	bcf	status, 6	;RP1=0, select bank0
  3561  0423  00DA               movwf	(??_main+0)+0,f
  3562  0424                     u8107:
  3563  0424  0064               	clrwdt
  3564  0425  0BDA               decfsz	(??_main+0)+0,f
  3565  0426  2C24               	goto	u8107
  3566  0427  2C28               	nop2	;nop
  3567  0428  0064               	clrwdt
  3568                           opt asmopt_on
  3569                           
  3570                           	line	660
  3571                           	
  3572  0429                     l8672:	
  3573                           ;FM_RADIO_main.c: 660: if(RA2 == 1 && RA1 == 0 && RA3 == 0){
  3574  0429  1283               	bcf	status, 5	;RP0=0, select bank0
  3575  042A  1303               	bcf	status, 6	;RP1=0, select bank0
  3576  042B  1D05               	btfss	(42/8),(42)&7
  3577  042C  2C2E               	goto	u7871
  3578  042D  2C2F               	goto	u7870
  3579  042E                     u7871:
  3580  042E  2D24               	goto	l8726
  3581  042F                     u7870:
  3582                           	
  3583  042F                     l8674:	
  3584  042F  1885               	btfsc	(41/8),(41)&7
  3585  0430  2C32               	goto	u7881
  3586  0431  2C33               	goto	u7880
  3587  0432                     u7881:
  3588  0432  2D24               	goto	l8726
  3589  0433                     u7880:
  3590                           	
  3591  0433                     l8676:	
  3592  0433  1985               	btfsc	(43/8),(43)&7
  3593  0434  2C36               	goto	u7891
  3594  0435  2C37               	goto	u7890
  3595  0436                     u7891:
  3596  0436  2D24               	goto	l8726
  3597  0437                     u7890:
  3598                           	line	661
  3599                           	
  3600  0437                     l8678:	
  3601                           ;FM_RADIO_main.c: 661: oscsel(2);
  3602  0437  3002               	movlw	low(02h)
  3603  0438  00F4               	movwf	(?_oscsel)
  3604  0439  3000               	movlw	high(02h)
  3605  043A  00F5               	movwf	((?_oscsel))+1
  3606  043B  160A  158A  2067   	fcall	_oscsel
              120A  118A         
  3607                           	line	662
  3608                           	
  3609  0440                     l8680:	
  3610                           ;FM_RADIO_main.c: 662: TMR1H = (c >> 8);
  3611  0440  1683               	bsf	status, 5	;RP0=1, select bank1
  3612  0441  1303               	bcf	status, 6	;RP1=0, select bank1
  3613  0442  0829               	movf	(main@c+1)^080h,w
  3614  0443  1283               	bcf	status, 5	;RP0=0, select bank0
  3615  0444  1303               	bcf	status, 6	;RP1=0, select bank0
  3616  0445  008F               	movwf	(15)	;volatile
  3617                           	line	663
  3618                           	
  3619  0446                     l8682:	
  3620                           ;FM_RADIO_main.c: 663: TMR1L = (c & 0x00ff);
  3621  0446  1683               	bsf	status, 5	;RP0=1, select bank1
  3622  0447  1303               	bcf	status, 6	;RP1=0, select bank1
  3623  0448  0828               	movf	(main@c)^080h,w
  3624  0449  1283               	bcf	status, 5	;RP0=0, select bank0
  3625  044A  1303               	bcf	status, 6	;RP1=0, select bank0
  3626  044B  008E               	movwf	(14)	;volatile
  3627                           	line	664
  3628                           	
  3629  044C                     l8684:	
  3630                           ;FM_RADIO_main.c: 664: TMR1ON_Flag = 1 ;
  3631  044C  3001               	movlw	low(01h)
  3632  044D  00F6               	movwf	(_TMR1ON_Flag)
  3633  044E  3000               	movlw	high(01h)
  3634  044F  00F7               	movwf	((_TMR1ON_Flag))+1
  3635                           	line	665
  3636                           	
  3637  0450                     l8686:	
  3638                           ;FM_RADIO_main.c: 665: TMR1ON = 1 ;
  3639  0450  1410               	bsf	(128/8),(128)&7
  3640                           	line	666
  3641                           ;FM_RADIO_main.c: 666: while(RA2){
  3642  0451  2CFA               	goto	l1304
  3643                           	
  3644  0452                     l1305:	
  3645                           	line	667
  3646                           ;FM_RADIO_main.c: 667: if(RA2 == 1 && TMR1ON_Flag == 0){
  3647  0452  1D05               	btfss	(42/8),(42)&7
  3648  0453  2C55               	goto	u7901
  3649  0454  2C56               	goto	u7900
  3650  0455                     u7901:
  3651  0455  2CD7               	goto	l8704
  3652  0456                     u7900:
  3653                           	
  3654  0456                     l8688:	
  3655  0456  0877               	movf	((_TMR1ON_Flag+1)),w
  3656  0457  0476               	iorwf	((_TMR1ON_Flag)),w
  3657  0458  1D03               	skipz
  3658  0459  2C5B               	goto	u7911
  3659  045A  2C5C               	goto	u7910
  3660  045B                     u7911:
  3661  045B  2CD7               	goto	l8704
  3662  045C                     u7910:
  3663                           	line	668
  3664                           	
  3665  045C                     l8690:	
  3666                           ;FM_RADIO_main.c: 668: oscsel(0);
  3667  045C  3000               	movlw	low(0)
  3668  045D  00F4               	movwf	(?_oscsel)
  3669  045E  3000               	movlw	high(0)
  3670  045F  00F5               	movwf	((?_oscsel))+1
  3671  0460  160A  158A  2067   	fcall	_oscsel
              120A  118A         
  3672                           	line	669
  3673                           	
  3674  0465                     l8692:	
  3675                           ;FM_RADIO_main.c: 669: PW_STAT = 1;
  3676  0465  3001               	movlw	low(01h)
  3677  0466  1683               	bsf	status, 5	;RP0=1, select bank1
  3678  0467  1303               	bcf	status, 6	;RP1=0, select bank1
  3679  0468  00A0               	movwf	(main@PW_STAT)^080h
  3680  0469  3000               	movlw	high(01h)
  3681  046A  00A1               	movwf	((main@PW_STAT)^080h)+1
  3682                           	line	670
  3683                           	
  3684  046B                     l8694:	
  3685                           ;FM_RADIO_main.c: 670: fmNo_in(fmNo,fcont_pp);
  3686  046B  0835               	movf	(main@fmNo+1)^080h,w
  3687  046C  1283               	bcf	status, 5	;RP0=0, select bank0
  3688  046D  1303               	bcf	status, 6	;RP1=0, select bank0
  3689  046E  01CA               	clrf	(?_fmNo_in+1)
  3690  046F  07CA               	addwf	(?_fmNo_in+1)
  3691  0470  1683               	bsf	status, 5	;RP0=1, select bank1
  3692  0471  1303               	bcf	status, 6	;RP1=0, select bank1
  3693  0472  0834               	movf	(main@fmNo)^080h,w
  3694  0473  1283               	bcf	status, 5	;RP0=0, select bank0
  3695  0474  1303               	bcf	status, 6	;RP1=0, select bank0
  3696  0475  01C9               	clrf	(?_fmNo_in)
  3697  0476  07C9               	addwf	(?_fmNo_in)
  3698                           
  3699  0477  0879               	movf	(_fcont_pp+1),w
  3700  0478  01CC               	clrf	1+(?_fmNo_in)+02h
  3701  0479  07CC               	addwf	1+(?_fmNo_in)+02h
  3702  047A  0878               	movf	(_fcont_pp),w
  3703  047B  01CB               	clrf	0+(?_fmNo_in)+02h
  3704  047C  07CB               	addwf	0+(?_fmNo_in)+02h
  3705                           
  3706  047D  120A  158A  20EB   	fcall	_fmNo_in
              120A  118A         
  3707                           	line	671
  3708                           	
  3709  0482                     l8696:	
  3710                           ;FM_RADIO_main.c: 671: lcd_int(2,0x46,cnt1);
  3711  0482  3002               	movlw	low(02h)
  3712  0483  1283               	bcf	status, 5	;RP0=0, select bank0
  3713  0484  1303               	bcf	status, 6	;RP1=0, select bank0
  3714  0485  00AE               	movwf	(?_lcd_int)
  3715  0486  3000               	movlw	high(02h)
  3716  0487  00AF               	movwf	((?_lcd_int))+1
  3717  0488  3046               	movlw	low(046h)
  3718  0489  00B0               	movwf	0+(?_lcd_int)+02h
  3719  048A  3000               	movlw	high(046h)
  3720  048B  00B1               	movwf	(0+(?_lcd_int)+02h)+1
  3721  048C  1683               	bsf	status, 5	;RP0=1, select bank1
  3722  048D  1303               	bcf	status, 6	;RP1=0, select bank1
  3723  048E  0831               	movf	(main@cnt1+1)^080h,w
  3724  048F  1283               	bcf	status, 5	;RP0=0, select bank0
  3725  0490  1303               	bcf	status, 6	;RP1=0, select bank0
  3726  0491  01B3               	clrf	1+(?_lcd_int)+04h
  3727  0492  07B3               	addwf	1+(?_lcd_int)+04h
  3728  0493  1683               	bsf	status, 5	;RP0=1, select bank1
  3729  0494  1303               	bcf	status, 6	;RP1=0, select bank1
  3730  0495  0830               	movf	(main@cnt1)^080h,w
  3731  0496  1283               	bcf	status, 5	;RP0=0, select bank0
  3732  0497  1303               	bcf	status, 6	;RP1=0, select bank0
  3733  0498  01B2               	clrf	0+(?_lcd_int)+04h
  3734  0499  07B2               	addwf	0+(?_lcd_int)+04h
  3735                           
  3736  049A  120A  118A  2768   	fcall	_lcd_int
              120A  118A         
  3737                           	line	672
  3738                           	
  3739  049F                     l8698:	
  3740                           ;FM_RADIO_main.c: 672: lcd_int(2,0x42,fmNo);
  3741  049F  3002               	movlw	low(02h)
  3742  04A0  1283               	bcf	status, 5	;RP0=0, select bank0
  3743  04A1  1303               	bcf	status, 6	;RP1=0, select bank0
  3744  04A2  00AE               	movwf	(?_lcd_int)
  3745  04A3  3000               	movlw	high(02h)
  3746  04A4  00AF               	movwf	((?_lcd_int))+1
  3747  04A5  3042               	movlw	low(042h)
  3748  04A6  00B0               	movwf	0+(?_lcd_int)+02h
  3749  04A7  3000               	movlw	high(042h)
  3750  04A8  00B1               	movwf	(0+(?_lcd_int)+02h)+1
  3751  04A9  1683               	bsf	status, 5	;RP0=1, select bank1
  3752  04AA  1303               	bcf	status, 6	;RP1=0, select bank1
  3753  04AB  0835               	movf	(main@fmNo+1)^080h,w
  3754  04AC  1283               	bcf	status, 5	;RP0=0, select bank0
  3755  04AD  1303               	bcf	status, 6	;RP1=0, select bank0
  3756  04AE  01B3               	clrf	1+(?_lcd_int)+04h
  3757  04AF  07B3               	addwf	1+(?_lcd_int)+04h
  3758  04B0  1683               	bsf	status, 5	;RP0=1, select bank1
  3759  04B1  1303               	bcf	status, 6	;RP1=0, select bank1
  3760  04B2  0834               	movf	(main@fmNo)^080h,w
  3761  04B3  1283               	bcf	status, 5	;RP0=0, select bank0
  3762  04B4  1303               	bcf	status, 6	;RP1=0, select bank0
  3763  04B5  01B2               	clrf	0+(?_lcd_int)+04h
  3764  04B6  07B2               	addwf	0+(?_lcd_int)+04h
  3765                           
  3766  04B7  120A  118A  2768   	fcall	_lcd_int
              120A  118A         
  3767                           	line	673
  3768                           	
  3769  04BC                     l8700:	
  3770                           ;FM_RADIO_main.c: 673: lcd_float(0x01,fcont_pp);
  3771  04BC  3001               	movlw	low(01h)
  3772  04BD  1283               	bcf	status, 5	;RP0=0, select bank0
  3773  04BE  1303               	bcf	status, 6	;RP1=0, select bank0
  3774  04BF  00B5               	movwf	(?_lcd_float)
  3775  04C0  3000               	movlw	high(01h)
  3776  04C1  00B6               	movwf	((?_lcd_float))+1
  3777  04C2  0879               	movf	(_fcont_pp+1),w
  3778  04C3  01B8               	clrf	1+(?_lcd_float)+02h
  3779  04C4  07B8               	addwf	1+(?_lcd_float)+02h
  3780  04C5  0878               	movf	(_fcont_pp),w
  3781  04C6  01B7               	clrf	0+(?_lcd_float)+02h
  3782  04C7  07B7               	addwf	0+(?_lcd_float)+02h
  3783                           
  3784  04C8  160A  158A  24C7   	fcall	_lcd_float
              120A  118A         
  3785                           	line	674
  3786                           	
  3787  04CD                     l8702:	
  3788                           ;FM_RADIO_main.c: 674: oscsel(1);
  3789  04CD  3001               	movlw	low(01h)
  3790  04CE  00F4               	movwf	(?_oscsel)
  3791  04CF  3000               	movlw	high(01h)
  3792  04D0  00F5               	movwf	((?_oscsel))+1
  3793  04D1  160A  158A  2067   	fcall	_oscsel
              120A  118A         
  3794  04D6  2CD7               	goto	l8704
  3795                           	line	675
  3796                           	
  3797  04D7                     l1306:	
  3798                           	line	676
  3799                           	
  3800  04D7                     l8704:	
  3801                           ;FM_RADIO_main.c: 675: }
  3802                           ;FM_RADIO_main.c: 676: if(RA2 == 1 && TMR1ON_Flag == 1)MAIN_CON = 1;
  3803  04D7  1283               	bcf	status, 5	;RP0=0, select bank0
  3804  04D8  1303               	bcf	status, 6	;RP1=0, select bank0
  3805  04D9  1D05               	btfss	(42/8),(42)&7
  3806  04DA  2CDC               	goto	u7921
  3807  04DB  2CDD               	goto	u7920
  3808  04DC                     u7921:
  3809  04DC  2CEB               	goto	l8710
  3810  04DD                     u7920:
  3811                           	
  3812  04DD                     l8706:	
  3813  04DD  3001               	movlw	01h
  3814  04DE  0676               	xorwf	(_TMR1ON_Flag),w
  3815  04DF  0477               	iorwf	(_TMR1ON_Flag+1),w
  3816  04E0  1D03               	skipz
  3817  04E1  2CE3               	goto	u7931
  3818  04E2  2CE4               	goto	u7930
  3819  04E3                     u7931:
  3820  04E3  2CEB               	goto	l8710
  3821  04E4                     u7930:
  3822                           	
  3823  04E4                     l8708:	
  3824  04E4  3001               	movlw	low(01h)
  3825  04E5  1683               	bsf	status, 5	;RP0=1, select bank1
  3826  04E6  1303               	bcf	status, 6	;RP1=0, select bank1
  3827  04E7  00A4               	movwf	(main@MAIN_CON)^080h
  3828  04E8  3000               	movlw	high(01h)
  3829  04E9  00A5               	movwf	((main@MAIN_CON)^080h)+1
  3830  04EA  2CEB               	goto	l8710
  3831                           	
  3832  04EB                     l1307:	
  3833                           	line	677
  3834                           	
  3835  04EB                     l8710:	
  3836                           ;FM_RADIO_main.c: 677: if((RA3 == 1 || RA1 == 1) && RA2 == 1)break;
  3837  04EB  1283               	bcf	status, 5	;RP0=0, select bank0
  3838  04EC  1985               	btfsc	(43/8),(43)&7
  3839  04ED  2CEF               	goto	u7941
  3840  04EE  2CF0               	goto	u7940
  3841  04EF                     u7941:
  3842  04EF  2CF4               	goto	l1310
  3843  04F0                     u7940:
  3844                           	
  3845  04F0                     l8712:	
  3846  04F0  1C85               	btfss	(41/8),(41)&7
  3847  04F1  2CF3               	goto	u7951
  3848  04F2  2CF4               	goto	u7950
  3849  04F3                     u7951:
  3850  04F3  2CFA               	goto	l1304
  3851  04F4                     u7950:
  3852                           	
  3853  04F4                     l1310:	
  3854  04F4  1D05               	btfss	(42/8),(42)&7
  3855  04F5  2CF7               	goto	u7961
  3856  04F6  2CF8               	goto	u7960
  3857  04F7                     u7961:
  3858  04F7  2CFA               	goto	l1304
  3859  04F8                     u7960:
  3860  04F8  2CFE               	goto	l1311
  3861                           	
  3862  04F9                     l8714:	
  3863  04F9  2CFE               	goto	l1311
  3864                           	
  3865  04FA                     l1308:	
  3866                           	line	678
  3867                           	
  3868  04FA                     l1304:	
  3869                           	line	666
  3870  04FA  1905               	btfsc	(42/8),(42)&7
  3871  04FB  2CFD               	goto	u7971
  3872  04FC  2CFE               	goto	u7970
  3873  04FD                     u7971:
  3874  04FD  2C52               	goto	l1305
  3875  04FE                     u7970:
  3876                           	
  3877  04FE                     l1311:	
  3878                           	line	679
  3879                           ;FM_RADIO_main.c: 678: }
  3880                           ;FM_RADIO_main.c: 679: TMR1ON = 0 ;
  3881  04FE  1010               	bcf	(128/8),(128)&7
  3882                           	line	680
  3883                           	
  3884  04FF                     l8716:	
  3885                           ;FM_RADIO_main.c: 680: oscsel(1);
  3886  04FF  3001               	movlw	low(01h)
  3887  0500  00F4               	movwf	(?_oscsel)
  3888  0501  3000               	movlw	high(01h)
  3889  0502  00F5               	movwf	((?_oscsel))+1
  3890  0503  160A  158A  2067   	fcall	_oscsel
              120A  118A         
  3891                           	line	681
  3892                           	
  3893  0508                     l8718:	
  3894                           ;FM_RADIO_main.c: 681: if(RA3 == 1 || RA1 == 1 || PW_STAT == 1){
  3895  0508  1283               	bcf	status, 5	;RP0=0, select bank0
  3896  0509  1303               	bcf	status, 6	;RP1=0, select bank0
  3897  050A  1985               	btfsc	(43/8),(43)&7
  3898  050B  2D0D               	goto	u7981
  3899  050C  2D0E               	goto	u7980
  3900  050D                     u7981:
  3901  050D  2D1C               	goto	l8724
  3902  050E                     u7980:
  3903                           	
  3904  050E                     l8720:	
  3905  050E  1885               	btfsc	(41/8),(41)&7
  3906  050F  2D11               	goto	u7991
  3907  0510  2D12               	goto	u7990
  3908  0511                     u7991:
  3909  0511  2D1C               	goto	l8724
  3910  0512                     u7990:
  3911                           	
  3912  0512                     l8722:	
  3913  0512  3001               	movlw	01h
  3914  0513  1683               	bsf	status, 5	;RP0=1, select bank1
  3915  0514  1303               	bcf	status, 6	;RP1=0, select bank1
  3916  0515  0620               	xorwf	(main@PW_STAT)^080h,w
  3917  0516  0421               	iorwf	(main@PW_STAT+1)^080h,w
  3918  0517  1D03               	skipz
  3919  0518  2D1A               	goto	u8001
  3920  0519  2D1B               	goto	u8000
  3921  051A                     u8001:
  3922  051A  2D24               	goto	l8726
  3923  051B                     u8000:
  3924  051B  2D1C               	goto	l8724
  3925                           	
  3926  051C                     l1314:	
  3927                           	line	682
  3928                           	
  3929  051C                     l8724:	
  3930                           ;FM_RADIO_main.c: 682: MAIN_CON = 0;
  3931  051C  1683               	bsf	status, 5	;RP0=1, select bank1
  3932  051D  1303               	bcf	status, 6	;RP1=0, select bank1
  3933  051E  01A4               	clrf	(main@MAIN_CON)^080h
  3934  051F  01A5               	clrf	(main@MAIN_CON+1)^080h
  3935                           	line	683
  3936                           ;FM_RADIO_main.c: 683: PW_STAT = 0;
  3937  0520  01A0               	clrf	(main@PW_STAT)^080h
  3938  0521  01A1               	clrf	(main@PW_STAT+1)^080h
  3939  0522  2D24               	goto	l8726
  3940                           	line	684
  3941                           	
  3942  0523                     l1312:	
  3943  0523  2D24               	goto	l8726
  3944                           	line	685
  3945                           	
  3946  0524                     l1303:	
  3947                           	line	686
  3948                           	
  3949  0524                     l8726:	
  3950                           ;FM_RADIO_main.c: 684: }
  3951                           ;FM_RADIO_main.c: 685: }
  3952                           ;FM_RADIO_main.c: 686: oscsel(0);
  3953  0524  3000               	movlw	low(0)
  3954  0525  00F4               	movwf	(?_oscsel)
  3955  0526  3000               	movlw	high(0)
  3956  0527  00F5               	movwf	((?_oscsel))+1
  3957  0528  160A  158A  2067   	fcall	_oscsel
              120A  118A         
  3958                           	line	687
  3959                           	
  3960  052D                     l8728:	
  3961                           ;FM_RADIO_main.c: 687: lcd_int(2,0x46,cnt1);
  3962  052D  3002               	movlw	low(02h)
  3963  052E  1283               	bcf	status, 5	;RP0=0, select bank0
  3964  052F  1303               	bcf	status, 6	;RP1=0, select bank0
  3965  0530  00AE               	movwf	(?_lcd_int)
  3966  0531  3000               	movlw	high(02h)
  3967  0532  00AF               	movwf	((?_lcd_int))+1
  3968  0533  3046               	movlw	low(046h)
  3969  0534  00B0               	movwf	0+(?_lcd_int)+02h
  3970  0535  3000               	movlw	high(046h)
  3971  0536  00B1               	movwf	(0+(?_lcd_int)+02h)+1
  3972  0537  1683               	bsf	status, 5	;RP0=1, select bank1
  3973  0538  1303               	bcf	status, 6	;RP1=0, select bank1
  3974  0539  0831               	movf	(main@cnt1+1)^080h,w
  3975  053A  1283               	bcf	status, 5	;RP0=0, select bank0
  3976  053B  1303               	bcf	status, 6	;RP1=0, select bank0
  3977  053C  01B3               	clrf	1+(?_lcd_int)+04h
  3978  053D  07B3               	addwf	1+(?_lcd_int)+04h
  3979  053E  1683               	bsf	status, 5	;RP0=1, select bank1
  3980  053F  1303               	bcf	status, 6	;RP1=0, select bank1
  3981  0540  0830               	movf	(main@cnt1)^080h,w
  3982  0541  1283               	bcf	status, 5	;RP0=0, select bank0
  3983  0542  1303               	bcf	status, 6	;RP1=0, select bank0
  3984  0543  01B2               	clrf	0+(?_lcd_int)+04h
  3985  0544  07B2               	addwf	0+(?_lcd_int)+04h
  3986                           
  3987  0545  120A  118A  2768   	fcall	_lcd_int
              120A  118A         
  3988                           	line	688
  3989                           	
  3990  054A                     l8730:	
  3991                           ;FM_RADIO_main.c: 688: lcd_int(2,0x42,fmNo);
  3992  054A  3002               	movlw	low(02h)
  3993  054B  1283               	bcf	status, 5	;RP0=0, select bank0
  3994  054C  1303               	bcf	status, 6	;RP1=0, select bank0
  3995  054D  00AE               	movwf	(?_lcd_int)
  3996  054E  3000               	movlw	high(02h)
  3997  054F  00AF               	movwf	((?_lcd_int))+1
  3998  0550  3042               	movlw	low(042h)
  3999  0551  00B0               	movwf	0+(?_lcd_int)+02h
  4000  0552  3000               	movlw	high(042h)
  4001  0553  00B1               	movwf	(0+(?_lcd_int)+02h)+1
  4002  0554  1683               	bsf	status, 5	;RP0=1, select bank1
  4003  0555  1303               	bcf	status, 6	;RP1=0, select bank1
  4004  0556  0835               	movf	(main@fmNo+1)^080h,w
  4005  0557  1283               	bcf	status, 5	;RP0=0, select bank0
  4006  0558  1303               	bcf	status, 6	;RP1=0, select bank0
  4007  0559  01B3               	clrf	1+(?_lcd_int)+04h
  4008  055A  07B3               	addwf	1+(?_lcd_int)+04h
  4009  055B  1683               	bsf	status, 5	;RP0=1, select bank1
  4010  055C  1303               	bcf	status, 6	;RP1=0, select bank1
  4011  055D  0834               	movf	(main@fmNo)^080h,w
  4012  055E  1283               	bcf	status, 5	;RP0=0, select bank0
  4013  055F  1303               	bcf	status, 6	;RP1=0, select bank0
  4014  0560  01B2               	clrf	0+(?_lcd_int)+04h
  4015  0561  07B2               	addwf	0+(?_lcd_int)+04h
  4016                           
  4017  0562  120A  118A  2768   	fcall	_lcd_int
              120A  118A         
  4018                           	line	689
  4019                           	
  4020  0567                     l8732:	
  4021                           ;FM_RADIO_main.c: 689: lcd_float(0x01,fcont_pp);
  4022  0567  3001               	movlw	low(01h)
  4023  0568  1283               	bcf	status, 5	;RP0=0, select bank0
  4024  0569  1303               	bcf	status, 6	;RP1=0, select bank0
  4025  056A  00B5               	movwf	(?_lcd_float)
  4026  056B  3000               	movlw	high(01h)
  4027  056C  00B6               	movwf	((?_lcd_float))+1
  4028  056D  0879               	movf	(_fcont_pp+1),w
  4029  056E  01B8               	clrf	1+(?_lcd_float)+02h
  4030  056F  07B8               	addwf	1+(?_lcd_float)+02h
  4031  0570  0878               	movf	(_fcont_pp),w
  4032  0571  01B7               	clrf	0+(?_lcd_float)+02h
  4033  0572  07B7               	addwf	0+(?_lcd_float)+02h
  4034                           
  4035  0573  160A  158A  24C7   	fcall	_lcd_float
              120A  118A         
  4036                           	line	690
  4037                           	
  4038  0578                     l8734:	
  4039                           ;FM_RADIO_main.c: 690: oscsel(1);
  4040  0578  3001               	movlw	low(01h)
  4041  0579  00F4               	movwf	(?_oscsel)
  4042  057A  3000               	movlw	high(01h)
  4043  057B  00F5               	movwf	((?_oscsel))+1
  4044  057C  160A  158A  2067   	fcall	_oscsel
              120A  118A         
  4045  0581  2D82               	goto	l8736
  4046                           	line	691
  4047                           	
  4048  0582                     l1252:	
  4049                           	line	546
  4050                           	
  4051  0582                     l8736:	
  4052  0582  1683               	bsf	status, 5	;RP0=1, select bank1
  4053  0583  1303               	bcf	status, 6	;RP1=0, select bank1
  4054  0584  0825               	movf	(main@MAIN_CON+1)^080h,w
  4055  0585  0424               	iorwf	(main@MAIN_CON)^080h,w
  4056  0586  1903               	skipnz
  4057  0587  2D89               	goto	u8011
  4058  0588  2D8C               	goto	u8010
  4059  0589                     u8011:
  4060  0589  160A  158A  2F5C   	goto	l8474
  4061  058C                     u8010:
  4062  058C  2D8D               	goto	l8738
  4063                           	
  4064  058D                     l1315:	
  4065                           	line	695
  4066                           	
  4067  058D                     l8738:	
  4068                           ;FM_RADIO_main.c: 691: }
  4069                           ;FM_RADIO_main.c: 695: oscsel(0);
  4070  058D  3000               	movlw	low(0)
  4071  058E  00F4               	movwf	(?_oscsel)
  4072  058F  3000               	movlw	high(0)
  4073  0590  00F5               	movwf	((?_oscsel))+1
  4074  0591  160A  158A  2067   	fcall	_oscsel
              120A  118A         
  4075                           	line	696
  4076                           	
  4077  0596                     l8740:	
  4078                           ;FM_RADIO_main.c: 696: RC6 = 0;
  4079  0596  1283               	bcf	status, 5	;RP0=0, select bank0
  4080  0597  1303               	bcf	status, 6	;RP1=0, select bank0
  4081  0598  1307               	bcf	(62/8),(62)&7
  4082                           	line	697
  4083                           	
  4084  0599                     l8742:	
  4085                           ;FM_RADIO_main.c: 697: RC5 = 0;
  4086  0599  1287               	bcf	(61/8),(61)&7
  4087                           	line	698
  4088                           	
  4089  059A                     l8744:	
  4090                           ;FM_RADIO_main.c: 698: MAIN_CON = 0;
  4091  059A  1683               	bsf	status, 5	;RP0=1, select bank1
  4092  059B  1303               	bcf	status, 6	;RP1=0, select bank1
  4093  059C  01A4               	clrf	(main@MAIN_CON)^080h
  4094  059D  01A5               	clrf	(main@MAIN_CON+1)^080h
  4095                           	line	699
  4096                           	
  4097  059E                     l8746:	
  4098                           ;FM_RADIO_main.c: 699: LIP = 0;
  4099  059E  01A6               	clrf	(main@LIP)^080h
  4100  059F  01A7               	clrf	(main@LIP+1)^080h
  4101                           	line	700
  4102                           	
  4103  05A0                     l8748:	
  4104                           ;FM_RADIO_main.c: 700: RD4 = 0;
  4105  05A0  1283               	bcf	status, 5	;RP0=0, select bank0
  4106  05A1  1303               	bcf	status, 6	;RP1=0, select bank0
  4107  05A2  1208               	bcf	(68/8),(68)&7
  4108                           	line	703
  4109                           	
  4110  05A3                     l8750:	
  4111                           ;FM_RADIO_main.c: 703: if (MAIN_STAT == 1) {
  4112  05A3  3001               	movlw	01h
  4113  05A4  1683               	bsf	status, 5	;RP0=1, select bank1
  4114  05A5  1303               	bcf	status, 6	;RP1=0, select bank1
  4115  05A6  0622               	xorwf	(main@MAIN_STAT)^080h,w
  4116  05A7  0423               	iorwf	(main@MAIN_STAT+1)^080h,w
  4117  05A8  1D03               	skipz
  4118  05A9  2DAB               	goto	u8021
  4119  05AA  2DAC               	goto	u8020
  4120  05AB                     u8021:
  4121  05AB  2E1C               	goto	l8758
  4122  05AC                     u8020:
  4123                           	line	705
  4124                           	
  4125  05AC                     l8752:	
  4126                           ;FM_RADIO_main.c: 705: eeprom_write(0, FMVOL);
  4127  05AC  0832               	movf	(main@FMVOL)^080h,w
  4128  05AD  1283               	bcf	status, 5	;RP0=0, select bank0
  4129  05AE  1303               	bcf	status, 6	;RP1=0, select bank0
  4130  05AF  00DA               	movwf	(??_main+0)+0
  4131  05B0  085A               	movf	(??_main+0)+0,w
  4132  05B1  00F5               	movwf	(?_eeprom_write)
  4133  05B2  3000               	movlw	(0)
  4134  05B3  160A  158A  2090   	fcall	_eeprom_write
              120A  118A         
  4135                           	line	706
  4136                           ;FM_RADIO_main.c: 706: eeprom_write(1, cnt1);
  4137  05B8  1683               	bsf	status, 5	;RP0=1, select bank1
  4138  05B9  1303               	bcf	status, 6	;RP1=0, select bank1
  4139  05BA  0830               	movf	(main@cnt1)^080h,w
  4140  05BB  1283               	bcf	status, 5	;RP0=0, select bank0
  4141  05BC  1303               	bcf	status, 6	;RP1=0, select bank0
  4142  05BD  00DA               	movwf	(??_main+0)+0
  4143  05BE  085A               	movf	(??_main+0)+0,w
  4144  05BF  00F5               	movwf	(?_eeprom_write)
  4145  05C0  3001               	movlw	(01h)
  4146  05C1  160A  158A  2090   	fcall	_eeprom_write
              120A  118A         
  4147                           	line	707
  4148                           ;FM_RADIO_main.c: 707: eeprom_write(2, (fcont_pp / 10));
  4149  05C6  300A               	movlw	low(0Ah)
  4150  05C7  1283               	bcf	status, 5	;RP0=0, select bank0
  4151  05C8  1303               	bcf	status, 6	;RP1=0, select bank0
  4152  05C9  00A0               	movwf	(?___awdiv)
  4153  05CA  3000               	movlw	high(0Ah)
  4154  05CB  00A1               	movwf	((?___awdiv))+1
  4155  05CC  0879               	movf	(_fcont_pp+1),w
  4156  05CD  01A3               	clrf	1+(?___awdiv)+02h
  4157  05CE  07A3               	addwf	1+(?___awdiv)+02h
  4158  05CF  0878               	movf	(_fcont_pp),w
  4159  05D0  01A2               	clrf	0+(?___awdiv)+02h
  4160  05D1  07A2               	addwf	0+(?___awdiv)+02h
  4161                           
  4162  05D2  160A  158A  22DC   	fcall	___awdiv
              120A  118A         
  4163  05D7  1283               	bcf	status, 5	;RP0=0, select bank0
  4164  05D8  1303               	bcf	status, 6	;RP1=0, select bank0
  4165  05D9  0820               	movf	(0+(?___awdiv)),w
  4166  05DA  00DA               	movwf	(??_main+0)+0
  4167  05DB  085A               	movf	(??_main+0)+0,w
  4168  05DC  00F5               	movwf	(?_eeprom_write)
  4169  05DD  3002               	movlw	(02h)
  4170  05DE  160A  158A  2090   	fcall	_eeprom_write
              120A  118A         
  4171                           	line	708
  4172                           ;FM_RADIO_main.c: 708: eeprom_write(3, (fcont_pp % 10));
  4173  05E3  300A               	movlw	low(0Ah)
  4174  05E4  1283               	bcf	status, 5	;RP0=0, select bank0
  4175  05E5  1303               	bcf	status, 6	;RP1=0, select bank0
  4176  05E6  00A0               	movwf	(?___awmod)
  4177  05E7  3000               	movlw	high(0Ah)
  4178  05E8  00A1               	movwf	((?___awmod))+1
  4179  05E9  0879               	movf	(_fcont_pp+1),w
  4180  05EA  01A3               	clrf	1+(?___awmod)+02h
  4181  05EB  07A3               	addwf	1+(?___awmod)+02h
  4182  05EC  0878               	movf	(_fcont_pp),w
  4183  05ED  01A2               	clrf	0+(?___awmod)+02h
  4184  05EE  07A2               	addwf	0+(?___awmod)+02h
  4185                           
  4186  05EF  160A  158A  2201   	fcall	___awmod
              120A  118A         
  4187  05F4  1283               	bcf	status, 5	;RP0=0, select bank0
  4188  05F5  1303               	bcf	status, 6	;RP1=0, select bank0
  4189  05F6  0820               	movf	(0+(?___awmod)),w
  4190  05F7  00DA               	movwf	(??_main+0)+0
  4191  05F8  085A               	movf	(??_main+0)+0,w
  4192  05F9  00F5               	movwf	(?_eeprom_write)
  4193  05FA  3003               	movlw	(03h)
  4194  05FB  160A  158A  2090   	fcall	_eeprom_write
              120A  118A         
  4195                           	line	709
  4196                           ;FM_RADIO_main.c: 709: eeprom_write(4, fmNo);
  4197  0600  1683               	bsf	status, 5	;RP0=1, select bank1
  4198  0601  1303               	bcf	status, 6	;RP1=0, select bank1
  4199  0602  0834               	movf	(main@fmNo)^080h,w
  4200  0603  1283               	bcf	status, 5	;RP0=0, select bank0
  4201  0604  1303               	bcf	status, 6	;RP1=0, select bank0
  4202  0605  00DA               	movwf	(??_main+0)+0
  4203  0606  085A               	movf	(??_main+0)+0,w
  4204  0607  00F5               	movwf	(?_eeprom_write)
  4205  0608  3004               	movlw	(04h)
  4206  0609  160A  158A  2090   	fcall	_eeprom_write
              120A  118A         
  4207                           	line	710
  4208                           	
  4209  060E                     l8754:	
  4210                           ;FM_RADIO_main.c: 710: MAIN_STAT = 0;
  4211  060E  1683               	bsf	status, 5	;RP0=1, select bank1
  4212  060F  1303               	bcf	status, 6	;RP1=0, select bank1
  4213  0610  01A2               	clrf	(main@MAIN_STAT)^080h
  4214  0611  01A3               	clrf	(main@MAIN_STAT+1)^080h
  4215                           	line	711
  4216                           	
  4217  0612                     l8756:	
  4218                           ;FM_RADIO_main.c: 711: RD4 = 0;
  4219  0612  1283               	bcf	status, 5	;RP0=0, select bank0
  4220  0613  1303               	bcf	status, 6	;RP1=0, select bank0
  4221  0614  1208               	bcf	(68/8),(68)&7
  4222                           	line	712
  4223                           ;FM_RADIO_main.c: 712: while (RA2);
  4224  0615  2E16               	goto	l1317
  4225                           	
  4226  0616                     l1318:	
  4227                           	
  4228  0616                     l1317:	
  4229  0616  1905               	btfsc	(42/8),(42)&7
  4230  0617  2E19               	goto	u8031
  4231  0618  2E1A               	goto	u8030
  4232  0619                     u8031:
  4233  0619  2E16               	goto	l1317
  4234  061A                     u8030:
  4235  061A  2E1C               	goto	l8758
  4236                           	
  4237  061B                     l1319:	
  4238  061B  2E1C               	goto	l8758
  4239                           	line	713
  4240                           	
  4241  061C                     l1316:	
  4242                           	line	714
  4243                           	
  4244  061C                     l8758:	
  4245                           ;FM_RADIO_main.c: 713: }
  4246                           ;FM_RADIO_main.c: 714: oscsel(1);
  4247  061C  3001               	movlw	low(01h)
  4248  061D  00F4               	movwf	(?_oscsel)
  4249  061E  3000               	movlw	high(01h)
  4250  061F  00F5               	movwf	((?_oscsel))+1
  4251  0620  160A  158A  2067   	fcall	_oscsel
              120A  118A         
  4252  0625  2E26               	goto	l8760
  4253                           	line	715
  4254                           	
  4255  0626                     l1248:	
  4256                           	line	716
  4257                           	
  4258  0626                     l8760:	
  4259                           ;FM_RADIO_main.c: 715: }
  4260                           ;FM_RADIO_main.c: 716: if (RA6 || RC1) {
  4261  0626  1283               	bcf	status, 5	;RP0=0, select bank0
  4262  0627  1303               	bcf	status, 6	;RP1=0, select bank0
  4263  0628  1B05               	btfsc	(46/8),(46)&7
  4264  0629  2E2B               	goto	u8041
  4265  062A  2E2C               	goto	u8040
  4266  062B                     u8041:
  4267  062B  2E31               	goto	l8764
  4268  062C                     u8040:
  4269                           	
  4270  062C                     l8762:	
  4271  062C  1C87               	btfss	(57/8),(57)&7
  4272  062D  2E2F               	goto	u8051
  4273  062E  2E30               	goto	u8050
  4274  062F                     u8051:
  4275  062F  2F44               	goto	l8800
  4276  0630                     u8050:
  4277  0630  2E31               	goto	l8764
  4278                           	
  4279  0631                     l1322:	
  4280                           	line	717
  4281                           	
  4282  0631                     l8764:	
  4283                           ;FM_RADIO_main.c: 717: if(LIP == 0){
  4284  0631  1683               	bsf	status, 5	;RP0=1, select bank1
  4285  0632  1303               	bcf	status, 6	;RP1=0, select bank1
  4286  0633  0827               	movf	((main@LIP+1)^080h),w
  4287  0634  0426               	iorwf	((main@LIP)^080h),w
  4288  0635  1D03               	skipz
  4289  0636  2E38               	goto	u8061
  4290  0637  2E39               	goto	u8060
  4291  0638                     u8061:
  4292  0638  2E54               	goto	l8776
  4293  0639                     u8060:
  4294                           	line	718
  4295                           	
  4296  0639                     l8766:	
  4297                           ;FM_RADIO_main.c: 718: RD4 = 1;
  4298  0639  1283               	bcf	status, 5	;RP0=0, select bank0
  4299  063A  1303               	bcf	status, 6	;RP1=0, select bank0
  4300  063B  1608               	bsf	(68/8),(68)&7
  4301                           	line	719
  4302                           	
  4303  063C                     l8768:	
  4304                           ;FM_RADIO_main.c: 719: oscsel(0);
  4305  063C  3000               	movlw	low(0)
  4306  063D  00F4               	movwf	(?_oscsel)
  4307  063E  3000               	movlw	high(0)
  4308  063F  00F5               	movwf	((?_oscsel))+1
  4309  0640  160A  158A  2067   	fcall	_oscsel
              120A  118A         
  4310                           	line	720
  4311                           	
  4312  0645                     l8770:	
  4313                           ;FM_RADIO_main.c: 720: LIP = 1;
  4314  0645  3001               	movlw	low(01h)
  4315  0646  1683               	bsf	status, 5	;RP0=1, select bank1
  4316  0647  1303               	bcf	status, 6	;RP1=0, select bank1
  4317  0648  00A6               	movwf	(main@LIP)^080h
  4318  0649  3000               	movlw	high(01h)
  4319  064A  00A7               	movwf	((main@LIP)^080h)+1
  4320                           	line	721
  4321                           	
  4322  064B                     l8772:	
  4323                           ;FM_RADIO_main.c: 721: lcd_RS();
  4324  064B  160A  158A  23D8   	fcall	_lcd_RS
              120A  118A         
  4325                           	line	722
  4326                           	
  4327  0650                     l8774:	
  4328                           ;FM_RADIO_main.c: 722: RB3 = 1;
  4329  0650  1283               	bcf	status, 5	;RP0=0, select bank0
  4330  0651  1303               	bcf	status, 6	;RP1=0, select bank0
  4331  0652  1586               	bsf	(51/8),(51)&7
  4332  0653  2E54               	goto	l8776
  4333                           	line	723
  4334                           	
  4335  0654                     l1323:	
  4336                           	line	724
  4337                           	
  4338  0654                     l8776:	
  4339                           ;FM_RADIO_main.c: 723: }
  4340                           ;FM_RADIO_main.c: 724: if (RC1 == 1) {
  4341  0654  1283               	bcf	status, 5	;RP0=0, select bank0
  4342  0655  1C87               	btfss	(57/8),(57)&7
  4343  0656  2E58               	goto	u8071
  4344  0657  2E5B               	goto	u8070
  4345  0658                     u8071:
  4346  0658  160A  118A  28EA   	goto	l8432
  4347  065B                     u8070:
  4348                           	line	725
  4349                           	
  4350  065B                     l8778:	
  4351                           ;FM_RADIO_main.c: 725: oscsel(0);
  4352  065B  3000               	movlw	low(0)
  4353  065C  00F4               	movwf	(?_oscsel)
  4354  065D  3000               	movlw	high(0)
  4355  065E  00F5               	movwf	((?_oscsel))+1
  4356  065F  160A  158A  2067   	fcall	_oscsel
              120A  118A         
  4357                           	line	726
  4358                           	
  4359  0664                     l8780:	
  4360                           ;FM_RADIO_main.c: 726: i2c_byte_write(0, 0x7C, 0x00, (0x80 + 0x00), 0);
  4361  0664  3000               	movlw	low(0)
  4362  0665  1283               	bcf	status, 5	;RP0=0, select bank0
  4363  0666  1303               	bcf	status, 6	;RP1=0, select bank0
  4364  0667  00A0               	movwf	(?_i2c_byte_write)
  4365  0668  3000               	movlw	high(0)
  4366  0669  00A1               	movwf	((?_i2c_byte_write))+1
  4367  066A  307C               	movlw	(07Ch)
  4368  066B  00DA               	movwf	(??_main+0)+0
  4369  066C  085A               	movf	(??_main+0)+0,w
  4370  066D  00A2               	movwf	0+(?_i2c_byte_write)+02h
  4371  066E  01A3               	clrf	0+(?_i2c_byte_write)+03h
  4372  066F  3080               	movlw	(080h)
  4373  0670  00DB               	movwf	(??_main+1)+0
  4374  0671  085B               	movf	(??_main+1)+0,w
  4375  0672  00A4               	movwf	0+(?_i2c_byte_write)+04h
  4376  0673  01A5               	clrf	0+(?_i2c_byte_write)+05h
  4377  0674  160A  158A  20C7   	fcall	_i2c_byte_write
              120A  118A         
  4378                           	line	727
  4379                           	
  4380  0679                     l8782:	
  4381                           ;FM_RADIO_main.c: 727: i2c_byte_write(0, 0x7C, 0xC0,'(', 0);
  4382  0679  3000               	movlw	low(0)
  4383  067A  1283               	bcf	status, 5	;RP0=0, select bank0
  4384  067B  1303               	bcf	status, 6	;RP1=0, select bank0
  4385  067C  00A0               	movwf	(?_i2c_byte_write)
  4386  067D  3000               	movlw	high(0)
  4387  067E  00A1               	movwf	((?_i2c_byte_write))+1
  4388  067F  307C               	movlw	(07Ch)
  4389  0680  00DA               	movwf	(??_main+0)+0
  4390  0681  085A               	movf	(??_main+0)+0,w
  4391  0682  00A2               	movwf	0+(?_i2c_byte_write)+02h
  4392  0683  30C0               	movlw	(0C0h)
  4393  0684  00DB               	movwf	(??_main+1)+0
  4394  0685  085B               	movf	(??_main+1)+0,w
  4395  0686  00A3               	movwf	0+(?_i2c_byte_write)+03h
  4396  0687  3028               	movlw	(028h)
  4397  0688  00DC               	movwf	(??_main+2)+0
  4398  0689  085C               	movf	(??_main+2)+0,w
  4399  068A  00A4               	movwf	0+(?_i2c_byte_write)+04h
  4400  068B  01A5               	clrf	0+(?_i2c_byte_write)+05h
  4401  068C  160A  158A  20C7   	fcall	_i2c_byte_write
              120A  118A         
  4402                           	line	728
  4403                           	
  4404  0691                     l8784:	
  4405                           ;FM_RADIO_main.c: 728: i2c_byte_write(0, 0x7C, 0xC0, 0b00111110, 0);
  4406  0691  3000               	movlw	low(0)
  4407  0692  1283               	bcf	status, 5	;RP0=0, select bank0
  4408  0693  1303               	bcf	status, 6	;RP1=0, select bank0
  4409  0694  00A0               	movwf	(?_i2c_byte_write)
  4410  0695  3000               	movlw	high(0)
  4411  0696  00A1               	movwf	((?_i2c_byte_write))+1
  4412  0697  307C               	movlw	(07Ch)
  4413  0698  00DA               	movwf	(??_main+0)+0
  4414  0699  085A               	movf	(??_main+0)+0,w
  4415  069A  00A2               	movwf	0+(?_i2c_byte_write)+02h
  4416  069B  30C0               	movlw	(0C0h)
  4417  069C  00DB               	movwf	(??_main+1)+0
  4418  069D  085B               	movf	(??_main+1)+0,w
  4419  069E  00A3               	movwf	0+(?_i2c_byte_write)+03h
  4420  069F  303E               	movlw	(03Eh)
  4421  06A0  00DC               	movwf	(??_main+2)+0
  4422  06A1  085C               	movf	(??_main+2)+0,w
  4423  06A2  00A4               	movwf	0+(?_i2c_byte_write)+04h
  4424  06A3  01A5               	clrf	0+(?_i2c_byte_write)+05h
  4425  06A4  160A  158A  20C7   	fcall	_i2c_byte_write
              120A  118A         
  4426                           	line	729
  4427                           	
  4428  06A9                     l8786:	
  4429                           ;FM_RADIO_main.c: 729: i2c_byte_write(0, 0x7C, 0xC0, 0b00111100, 0);
  4430  06A9  3000               	movlw	low(0)
  4431  06AA  1283               	bcf	status, 5	;RP0=0, select bank0
  4432  06AB  1303               	bcf	status, 6	;RP1=0, select bank0
  4433  06AC  00A0               	movwf	(?_i2c_byte_write)
  4434  06AD  3000               	movlw	high(0)
  4435  06AE  00A1               	movwf	((?_i2c_byte_write))+1
  4436  06AF  307C               	movlw	(07Ch)
  4437  06B0  00DA               	movwf	(??_main+0)+0
  4438  06B1  085A               	movf	(??_main+0)+0,w
  4439  06B2  00A2               	movwf	0+(?_i2c_byte_write)+02h
  4440  06B3  30C0               	movlw	(0C0h)
  4441  06B4  00DB               	movwf	(??_main+1)+0
  4442  06B5  085B               	movf	(??_main+1)+0,w
  4443  06B6  00A3               	movwf	0+(?_i2c_byte_write)+03h
  4444  06B7  303C               	movlw	(03Ch)
  4445  06B8  00DC               	movwf	(??_main+2)+0
  4446  06B9  085C               	movf	(??_main+2)+0,w
  4447  06BA  00A4               	movwf	0+(?_i2c_byte_write)+04h
  4448  06BB  01A5               	clrf	0+(?_i2c_byte_write)+05h
  4449  06BC  160A  158A  20C7   	fcall	_i2c_byte_write
              120A  118A         
  4450                           	line	730
  4451                           	
  4452  06C1                     l8788:	
  4453                           ;FM_RADIO_main.c: 730: i2c_byte_write(0, 0x7C, 0xC0,')', 0);
  4454  06C1  3000               	movlw	low(0)
  4455  06C2  1283               	bcf	status, 5	;RP0=0, select bank0
  4456  06C3  1303               	bcf	status, 6	;RP1=0, select bank0
  4457  06C4  00A0               	movwf	(?_i2c_byte_write)
  4458  06C5  3000               	movlw	high(0)
  4459  06C6  00A1               	movwf	((?_i2c_byte_write))+1
  4460  06C7  307C               	movlw	(07Ch)
  4461  06C8  00DA               	movwf	(??_main+0)+0
  4462  06C9  085A               	movf	(??_main+0)+0,w
  4463  06CA  00A2               	movwf	0+(?_i2c_byte_write)+02h
  4464  06CB  30C0               	movlw	(0C0h)
  4465  06CC  00DB               	movwf	(??_main+1)+0
  4466  06CD  085B               	movf	(??_main+1)+0,w
  4467  06CE  00A3               	movwf	0+(?_i2c_byte_write)+03h
  4468  06CF  3029               	movlw	(029h)
  4469  06D0  00DC               	movwf	(??_main+2)+0
  4470  06D1  085C               	movf	(??_main+2)+0,w
  4471  06D2  00A4               	movwf	0+(?_i2c_byte_write)+04h
  4472  06D3  01A5               	clrf	0+(?_i2c_byte_write)+05h
  4473  06D4  160A  158A  20C7   	fcall	_i2c_byte_write
              120A  118A         
  4474                           	line	731
  4475                           	
  4476  06D9                     l8790:	
  4477                           ;FM_RADIO_main.c: 731: i2c_byte_write(0, 0x7C, 0xC0,'/', 0);
  4478  06D9  3000               	movlw	low(0)
  4479  06DA  1283               	bcf	status, 5	;RP0=0, select bank0
  4480  06DB  1303               	bcf	status, 6	;RP1=0, select bank0
  4481  06DC  00A0               	movwf	(?_i2c_byte_write)
  4482  06DD  3000               	movlw	high(0)
  4483  06DE  00A1               	movwf	((?_i2c_byte_write))+1
  4484  06DF  307C               	movlw	(07Ch)
  4485  06E0  00DA               	movwf	(??_main+0)+0
  4486  06E1  085A               	movf	(??_main+0)+0,w
  4487  06E2  00A2               	movwf	0+(?_i2c_byte_write)+02h
  4488  06E3  30C0               	movlw	(0C0h)
  4489  06E4  00DB               	movwf	(??_main+1)+0
  4490  06E5  085B               	movf	(??_main+1)+0,w
  4491  06E6  00A3               	movwf	0+(?_i2c_byte_write)+03h
  4492  06E7  302F               	movlw	(02Fh)
  4493  06E8  00DC               	movwf	(??_main+2)+0
  4494  06E9  085C               	movf	(??_main+2)+0,w
  4495  06EA  00A4               	movwf	0+(?_i2c_byte_write)+04h
  4496  06EB  01A5               	clrf	0+(?_i2c_byte_write)+05h
  4497  06EC  160A  158A  20C7   	fcall	_i2c_byte_write
              120A  118A         
  4498                           	line	732
  4499                           	
  4500  06F1                     l8792:	
  4501                           ;FM_RADIO_main.c: 732: i2c_byte_write(0, 0x7C, 0xC0,0b10110001, 0);
  4502  06F1  3000               	movlw	low(0)
  4503  06F2  1283               	bcf	status, 5	;RP0=0, select bank0
  4504  06F3  1303               	bcf	status, 6	;RP1=0, select bank0
  4505  06F4  00A0               	movwf	(?_i2c_byte_write)
  4506  06F5  3000               	movlw	high(0)
  4507  06F6  00A1               	movwf	((?_i2c_byte_write))+1
  4508  06F7  307C               	movlw	(07Ch)
  4509  06F8  00DA               	movwf	(??_main+0)+0
  4510  06F9  085A               	movf	(??_main+0)+0,w
  4511  06FA  00A2               	movwf	0+(?_i2c_byte_write)+02h
  4512  06FB  30C0               	movlw	(0C0h)
  4513  06FC  00DB               	movwf	(??_main+1)+0
  4514  06FD  085B               	movf	(??_main+1)+0,w
  4515  06FE  00A3               	movwf	0+(?_i2c_byte_write)+03h
  4516  06FF  30B1               	movlw	(0B1h)
  4517  0700  00DC               	movwf	(??_main+2)+0
  4518  0701  085C               	movf	(??_main+2)+0,w
  4519  0702  00A4               	movwf	0+(?_i2c_byte_write)+04h
  4520  0703  01A5               	clrf	0+(?_i2c_byte_write)+05h
  4521  0704  160A  158A  20C7   	fcall	_i2c_byte_write
              120A  118A         
  4522                           	line	733
  4523                           	
  4524  0709                     l8794:	
  4525                           ;FM_RADIO_main.c: 733: i2c_byte_write(0, 0x7C, 0xC0,0b10111001, 0);
  4526  0709  3000               	movlw	low(0)
  4527  070A  1283               	bcf	status, 5	;RP0=0, select bank0
  4528  070B  1303               	bcf	status, 6	;RP1=0, select bank0
  4529  070C  00A0               	movwf	(?_i2c_byte_write)
  4530  070D  3000               	movlw	high(0)
  4531  070E  00A1               	movwf	((?_i2c_byte_write))+1
  4532  070F  307C               	movlw	(07Ch)
  4533  0710  00DA               	movwf	(??_main+0)+0
  4534  0711  085A               	movf	(??_main+0)+0,w
  4535  0712  00A2               	movwf	0+(?_i2c_byte_write)+02h
  4536  0713  30C0               	movlw	(0C0h)
  4537  0714  00DB               	movwf	(??_main+1)+0
  4538  0715  085B               	movf	(??_main+1)+0,w
  4539  0716  00A3               	movwf	0+(?_i2c_byte_write)+03h
  4540  0717  30B9               	movlw	(0B9h)
  4541  0718  00DC               	movwf	(??_main+2)+0
  4542  0719  085C               	movf	(??_main+2)+0,w
  4543  071A  00A4               	movwf	0+(?_i2c_byte_write)+04h
  4544  071B  01A5               	clrf	0+(?_i2c_byte_write)+05h
  4545  071C  160A  158A  20C7   	fcall	_i2c_byte_write
              120A  118A         
  4546                           	line	734
  4547                           	
  4548  0721                     l8796:	
  4549                           ;FM_RADIO_main.c: 734: i2c_byte_write(0, 0x7C, 0xC0,0b11011110, 0);
  4550  0721  3000               	movlw	low(0)
  4551  0722  1283               	bcf	status, 5	;RP0=0, select bank0
  4552  0723  1303               	bcf	status, 6	;RP1=0, select bank0
  4553  0724  00A0               	movwf	(?_i2c_byte_write)
  4554  0725  3000               	movlw	high(0)
  4555  0726  00A1               	movwf	((?_i2c_byte_write))+1
  4556  0727  307C               	movlw	(07Ch)
  4557  0728  00DA               	movwf	(??_main+0)+0
  4558  0729  085A               	movf	(??_main+0)+0,w
  4559  072A  00A2               	movwf	0+(?_i2c_byte_write)+02h
  4560  072B  30C0               	movlw	(0C0h)
  4561  072C  00DB               	movwf	(??_main+1)+0
  4562  072D  085B               	movf	(??_main+1)+0,w
  4563  072E  00A3               	movwf	0+(?_i2c_byte_write)+03h
  4564  072F  30DE               	movlw	(0DEh)
  4565  0730  00DC               	movwf	(??_main+2)+0
  4566  0731  085C               	movf	(??_main+2)+0,w
  4567  0732  00A4               	movwf	0+(?_i2c_byte_write)+04h
  4568  0733  01A5               	clrf	0+(?_i2c_byte_write)+05h
  4569  0734  160A  158A  20C7   	fcall	_i2c_byte_write
              120A  118A         
  4570                           	line	735
  4571                           	
  4572  0739                     l8798:	
  4573                           ;FM_RADIO_main.c: 735: oscsel(1);
  4574  0739  3001               	movlw	low(01h)
  4575  073A  00F4               	movwf	(?_oscsel)
  4576  073B  3000               	movlw	high(01h)
  4577  073C  00F5               	movwf	((?_oscsel))+1
  4578  073D  160A  158A  2067   	fcall	_oscsel
              120A  118A         
  4579  0742  2E58               	goto	l8432
  4580                           	line	736
  4581                           	
  4582  0743                     l1324:	
  4583                           	line	737
  4584                           ;FM_RADIO_main.c: 736: }
  4585                           ;FM_RADIO_main.c: 737: }
  4586  0743  2E58               	goto	l8432
  4587                           	line	738
  4588                           	
  4589  0744                     l1320:	
  4590                           	line	739
  4591                           	
  4592  0744                     l8800:	
  4593                           ;FM_RADIO_main.c: 738: else {
  4594                           ;FM_RADIO_main.c: 739: oscsel(0);
  4595  0744  3000               	movlw	low(0)
  4596  0745  00F4               	movwf	(?_oscsel)
  4597  0746  3000               	movlw	high(0)
  4598  0747  00F5               	movwf	((?_oscsel))+1
  4599  0748  160A  158A  2067   	fcall	_oscsel
              120A  118A         
  4600                           	line	740
  4601                           	
  4602  074D                     l8802:	
  4603                           ;FM_RADIO_main.c: 740: RB3 = 0;
  4604  074D  1283               	bcf	status, 5	;RP0=0, select bank0
  4605  074E  1303               	bcf	status, 6	;RP1=0, select bank0
  4606  074F  1186               	bcf	(51/8),(51)&7
  4607                           	line	741
  4608                           	
  4609  0750                     l8804:	
  4610                           ;FM_RADIO_main.c: 741: RC6 = 0;
  4611  0750  1307               	bcf	(62/8),(62)&7
  4612                           	line	742
  4613                           	
  4614  0751                     l8806:	
  4615                           ;FM_RADIO_main.c: 742: RC5 = 0;
  4616  0751  1287               	bcf	(61/8),(61)&7
  4617                           	line	743
  4618                           	
  4619  0752                     l8808:	
  4620                           ;FM_RADIO_main.c: 743: LIP = 0;
  4621  0752  1683               	bsf	status, 5	;RP0=1, select bank1
  4622  0753  1303               	bcf	status, 6	;RP1=0, select bank1
  4623  0754  01A6               	clrf	(main@LIP)^080h
  4624  0755  01A7               	clrf	(main@LIP+1)^080h
  4625                           	line	744
  4626                           	
  4627  0756                     l8810:	
  4628                           ;FM_RADIO_main.c: 744: RD4 = 0;
  4629  0756  1283               	bcf	status, 5	;RP0=0, select bank0
  4630  0757  1303               	bcf	status, 6	;RP1=0, select bank0
  4631  0758  1208               	bcf	(68/8),(68)&7
  4632                           	line	745
  4633                           	
  4634  0759                     l8812:	
  4635                           ;FM_RADIO_main.c: 745: oscsel(1);
  4636  0759  3001               	movlw	low(01h)
  4637  075A  00F4               	movwf	(?_oscsel)
  4638  075B  3000               	movlw	high(01h)
  4639  075C  00F5               	movwf	((?_oscsel))+1
  4640  075D  160A  158A  2067   	fcall	_oscsel
              120A  118A         
  4641  0762  2E58               	goto	l8432
  4642                           	line	746
  4643                           	
  4644  0763                     l1325:	
  4645  0763  2E58               	goto	l8432
  4646                           	line	747
  4647                           	
  4648  0764                     l1326:	
  4649                           	line	530
  4650  0764  2E58               	goto	l8432
  4651                           	
  4652  0765                     l1327:	
  4653                           	line	748
  4654                           	
  4655  0765                     l1328:	
  4656                           	global	start
  4657  0765  120A  118A  2812   	ljmp	start
  4658                           	opt stack 0
  4659                           GLOBAL	__end_of_main
  4660  0768                     	__end_of_main:
  4661 ;; =============== function _main ends ============
  4662                           
  4663                           	signat	_main,90
  4664                           	global	_fmNo_in
  4665                           psect	text898,local,class=CODE,delta=2
  4666                           global __ptext898
  4667  08EB                     __ptext898:
  4668                           
  4669 ;; *************** function _fmNo_in *****************
  4670 ;; Defined at:
  4671 ;;		line 351 in file "FM_RADIO_main.c"
  4672 ;; Parameters:    Size  Location     Type
  4673 ;;  fmNo            2   41[BANK0 ] int 
  4674 ;;  fcont           2   43[BANK0 ] int 
  4675 ;; Auto vars:     Size  Location     Type
  4676 ;;  endf            2   52[BANK0 ] int 
  4677 ;;  fcon            2   50[BANK0 ] int 
  4678 ;;  okf             2   48[BANK0 ] int 
  4679 ;; Return value:  Size  Location     Type
  4680 ;;                  2   41[BANK0 ] int 
  4681 ;; Registers used:
  4682 ;;		wreg, fsr0l, fsr0h, status,2, status,0, btemp+1, pclath, cstack
  4683 ;; Tracked objects:
  4684 ;;		On entry : 0/0
  4685 ;;		On exit  : 0/0
  4686 ;;		Unchanged: 0/0
  4687 ;; Data sizes:     COMMON   BANK0   BANK1   BANK3   BANK2
  4688 ;;      Params:         0       4       0       0       0
  4689 ;;      Locals:         0       6       0       0       0
  4690 ;;      Temps:          0       3       0       0       0
  4691 ;;      Totals:         0      13       0       0       0
  4692 ;;Total ram usage:       13 bytes
  4693 ;; Hardware stack levels used:    1
  4694 ;; Hardware stack levels required when called:    5
  4695 ;; This function calls:
  4696 ;;		_memory_fcont
  4697 ;;		_i2c_byte_write
  4698 ;;		_lcd_int
  4699 ;;		_lcd_float
  4700 ;;		_buss_boost
  4701 ;;		_seek_SNR
  4702 ;;		_seek_RSSI
  4703 ;;		_start_LCD_POINT
  4704 ;; This function is called by:
  4705 ;;		_main
  4706 ;; This function uses a non-reentrant model
  4707 ;;
  4708                           psect	text898
  4709                           	file	"FM_RADIO_main.c"
  4710                           	line	351
  4711                           	global	__size_of_fmNo_in
  4712  0715                     	__size_of_fmNo_in	equ	__end_of_fmNo_in-_fmNo_in
  4713                           	
  4714  08EB                     _fmNo_in:	
  4715                           	opt	stack 2
  4716                           ; Regs used in _fmNo_in: [wreg-fsr0h+status,2+status,0+btemp+1+pclath+cstack]
  4717                           	line	352
  4718                           	
  4719  08EB                     l8240:	
  4720                           ;FM_RADIO_main.c: 352: int fcon, endf = 0, okf = 0;
  4721  08EB  1283               	bcf	status, 5	;RP0=0, select bank0
  4722  08EC  1303               	bcf	status, 6	;RP1=0, select bank0
  4723  08ED  01D4               	clrf	(fmNo_in@endf)
  4724  08EE  01D5               	clrf	(fmNo_in@endf+1)
  4725  08EF  01D0               	clrf	(fmNo_in@okf)
  4726  08F0  01D1               	clrf	(fmNo_in@okf+1)
  4727                           	line	353
  4728                           	
  4729  08F1                     l8242:	
  4730                           ;FM_RADIO_main.c: 353: fcon = memory_fcont(0, fmNo, 0);
  4731  08F1  3000               	movlw	low(0)
  4732  08F2  00AA               	movwf	(?_memory_fcont)
  4733  08F3  3000               	movlw	high(0)
  4734  08F4  00AB               	movwf	((?_memory_fcont))+1
  4735  08F5  084A               	movf	(fmNo_in@fmNo+1),w
  4736  08F6  01AD               	clrf	1+(?_memory_fcont)+02h
  4737  08F7  07AD               	addwf	1+(?_memory_fcont)+02h
  4738  08F8  0849               	movf	(fmNo_in@fmNo),w
  4739  08F9  01AC               	clrf	0+(?_memory_fcont)+02h
  4740  08FA  07AC               	addwf	0+(?_memory_fcont)+02h
  4741                           
  4742  08FB  3000               	movlw	low(0)
  4743  08FC  00AE               	movwf	0+(?_memory_fcont)+04h
  4744  08FD  3000               	movlw	high(0)
  4745  08FE  00AF               	movwf	(0+(?_memory_fcont)+04h)+1
  4746  08FF  160A  158A  2352   	fcall	_memory_fcont
              120A  158A         
  4747  0904  1283               	bcf	status, 5	;RP0=0, select bank0
  4748  0905  1303               	bcf	status, 6	;RP1=0, select bank0
  4749  0906  082B               	movf	(1+(?_memory_fcont)),w
  4750  0907  01D3               	clrf	(fmNo_in@fcon+1)
  4751  0908  07D3               	addwf	(fmNo_in@fcon+1)
  4752  0909  082A               	movf	(0+(?_memory_fcont)),w
  4753  090A  01D2               	clrf	(fmNo_in@fcon)
  4754  090B  07D2               	addwf	(fmNo_in@fcon)
  4755                           
  4756                           	line	354
  4757                           ;FM_RADIO_main.c: 354: while(!okf){
  4758  090C  2C14               	goto	l1172
  4759                           	
  4760  090D                     l1173:	
  4761                           	line	355
  4762                           	
  4763  090D                     l8244:	
  4764                           ;FM_RADIO_main.c: 355: i2c_byte_write(0, 0x7C, 0x00, 0x01, 0);
  4765  090D  3000               	movlw	low(0)
  4766  090E  00A0               	movwf	(?_i2c_byte_write)
  4767  090F  3000               	movlw	high(0)
  4768  0910  00A1               	movwf	((?_i2c_byte_write))+1
  4769  0911  307C               	movlw	(07Ch)
  4770  0912  00CD               	movwf	(??_fmNo_in+0)+0
  4771  0913  084D               	movf	(??_fmNo_in+0)+0,w
  4772  0914  00A2               	movwf	0+(?_i2c_byte_write)+02h
  4773  0915  01A3               	clrf	0+(?_i2c_byte_write)+03h
  4774  0916  01A4               	clrf	0+(?_i2c_byte_write)+04h
  4775  0917  1403               	bsf	status,0
  4776  0918  0DA4               	rlf	0+(?_i2c_byte_write)+04h,f
  4777  0919  01A5               	clrf	0+(?_i2c_byte_write)+05h
  4778  091A  160A  158A  20C7   	fcall	_i2c_byte_write
              120A  158A         
  4779                           	line	356
  4780                           ;FM_RADIO_main.c: 356: i2c_byte_write(0, 0x7C, 0x00, (0x80 + 0x40), 0);
  4781  091F  3000               	movlw	low(0)
  4782  0920  1283               	bcf	status, 5	;RP0=0, select bank0
  4783  0921  1303               	bcf	status, 6	;RP1=0, select bank0
  4784  0922  00A0               	movwf	(?_i2c_byte_write)
  4785  0923  3000               	movlw	high(0)
  4786  0924  00A1               	movwf	((?_i2c_byte_write))+1
  4787  0925  307C               	movlw	(07Ch)
  4788  0926  00CD               	movwf	(??_fmNo_in+0)+0
  4789  0927  084D               	movf	(??_fmNo_in+0)+0,w
  4790  0928  00A2               	movwf	0+(?_i2c_byte_write)+02h
  4791  0929  01A3               	clrf	0+(?_i2c_byte_write)+03h
  4792  092A  30C0               	movlw	(0C0h)
  4793  092B  00CE               	movwf	(??_fmNo_in+1)+0
  4794  092C  084E               	movf	(??_fmNo_in+1)+0,w
  4795  092D  00A4               	movwf	0+(?_i2c_byte_write)+04h
  4796  092E  01A5               	clrf	0+(?_i2c_byte_write)+05h
  4797  092F  160A  158A  20C7   	fcall	_i2c_byte_write
              120A  158A         
  4798                           	line	357
  4799                           ;FM_RADIO_main.c: 357: i2c_byte_write(0, 0x7C, 0xC0, ' ', 0);
  4800  0934  3000               	movlw	low(0)
  4801  0935  1283               	bcf	status, 5	;RP0=0, select bank0
  4802  0936  1303               	bcf	status, 6	;RP1=0, select bank0
  4803  0937  00A0               	movwf	(?_i2c_byte_write)
  4804  0938  3000               	movlw	high(0)
  4805  0939  00A1               	movwf	((?_i2c_byte_write))+1
  4806  093A  307C               	movlw	(07Ch)
  4807  093B  00CD               	movwf	(??_fmNo_in+0)+0
  4808  093C  084D               	movf	(??_fmNo_in+0)+0,w
  4809  093D  00A2               	movwf	0+(?_i2c_byte_write)+02h
  4810  093E  30C0               	movlw	(0C0h)
  4811  093F  00CE               	movwf	(??_fmNo_in+1)+0
  4812  0940  084E               	movf	(??_fmNo_in+1)+0,w
  4813  0941  00A3               	movwf	0+(?_i2c_byte_write)+03h
  4814  0942  3020               	movlw	(020h)
  4815  0943  00CF               	movwf	(??_fmNo_in+2)+0
  4816  0944  084F               	movf	(??_fmNo_in+2)+0,w
  4817  0945  00A4               	movwf	0+(?_i2c_byte_write)+04h
  4818  0946  01A5               	clrf	0+(?_i2c_byte_write)+05h
  4819  0947  160A  158A  20C7   	fcall	_i2c_byte_write
              120A  158A         
  4820                           	line	358
  4821                           ;FM_RADIO_main.c: 358: i2c_byte_write(0, 0x7C, 0x00, (0x80 + 0x43), 0);
  4822  094C  3000               	movlw	low(0)
  4823  094D  1283               	bcf	status, 5	;RP0=0, select bank0
  4824  094E  1303               	bcf	status, 6	;RP1=0, select bank0
  4825  094F  00A0               	movwf	(?_i2c_byte_write)
  4826  0950  3000               	movlw	high(0)
  4827  0951  00A1               	movwf	((?_i2c_byte_write))+1
  4828  0952  307C               	movlw	(07Ch)
  4829  0953  00CD               	movwf	(??_fmNo_in+0)+0
  4830  0954  084D               	movf	(??_fmNo_in+0)+0,w
  4831  0955  00A2               	movwf	0+(?_i2c_byte_write)+02h
  4832  0956  01A3               	clrf	0+(?_i2c_byte_write)+03h
  4833  0957  30C3               	movlw	(0C3h)
  4834  0958  00CE               	movwf	(??_fmNo_in+1)+0
  4835  0959  084E               	movf	(??_fmNo_in+1)+0,w
  4836  095A  00A4               	movwf	0+(?_i2c_byte_write)+04h
  4837  095B  01A5               	clrf	0+(?_i2c_byte_write)+05h
  4838  095C  160A  158A  20C7   	fcall	_i2c_byte_write
              120A  158A         
  4839                           	line	359
  4840                           ;FM_RADIO_main.c: 359: i2c_byte_write(0, 0x7C, 0xC0, '.', 0);
  4841  0961  3000               	movlw	low(0)
  4842  0962  1283               	bcf	status, 5	;RP0=0, select bank0
  4843  0963  1303               	bcf	status, 6	;RP1=0, select bank0
  4844  0964  00A0               	movwf	(?_i2c_byte_write)
  4845  0965  3000               	movlw	high(0)
  4846  0966  00A1               	movwf	((?_i2c_byte_write))+1
  4847  0967  307C               	movlw	(07Ch)
  4848  0968  00CD               	movwf	(??_fmNo_in+0)+0
  4849  0969  084D               	movf	(??_fmNo_in+0)+0,w
  4850  096A  00A2               	movwf	0+(?_i2c_byte_write)+02h
  4851  096B  30C0               	movlw	(0C0h)
  4852  096C  00CE               	movwf	(??_fmNo_in+1)+0
  4853  096D  084E               	movf	(??_fmNo_in+1)+0,w
  4854  096E  00A3               	movwf	0+(?_i2c_byte_write)+03h
  4855  096F  302E               	movlw	(02Eh)
  4856  0970  00CF               	movwf	(??_fmNo_in+2)+0
  4857  0971  084F               	movf	(??_fmNo_in+2)+0,w
  4858  0972  00A4               	movwf	0+(?_i2c_byte_write)+04h
  4859  0973  01A5               	clrf	0+(?_i2c_byte_write)+05h
  4860  0974  160A  158A  20C7   	fcall	_i2c_byte_write
              120A  158A         
  4861                           	line	360
  4862                           ;FM_RADIO_main.c: 360: i2c_byte_write(0, 0x7C, 0x00, (0x80 + 0x45), 0);
  4863  0979  3000               	movlw	low(0)
  4864  097A  1283               	bcf	status, 5	;RP0=0, select bank0
  4865  097B  1303               	bcf	status, 6	;RP1=0, select bank0
  4866  097C  00A0               	movwf	(?_i2c_byte_write)
  4867  097D  3000               	movlw	high(0)
  4868  097E  00A1               	movwf	((?_i2c_byte_write))+1
  4869  097F  307C               	movlw	(07Ch)
  4870  0980  00CD               	movwf	(??_fmNo_in+0)+0
  4871  0981  084D               	movf	(??_fmNo_in+0)+0,w
  4872  0982  00A2               	movwf	0+(?_i2c_byte_write)+02h
  4873  0983  01A3               	clrf	0+(?_i2c_byte_write)+03h
  4874  0984  30C5               	movlw	(0C5h)
  4875  0985  00CE               	movwf	(??_fmNo_in+1)+0
  4876  0986  084E               	movf	(??_fmNo_in+1)+0,w
  4877  0987  00A4               	movwf	0+(?_i2c_byte_write)+04h
  4878  0988  01A5               	clrf	0+(?_i2c_byte_write)+05h
  4879  0989  160A  158A  20C7   	fcall	_i2c_byte_write
              120A  158A         
  4880                           	line	361
  4881                           ;FM_RADIO_main.c: 361: i2c_byte_write(0, 0x7C, 0xC0, 'M', 0);
  4882  098E  3000               	movlw	low(0)
  4883  098F  1283               	bcf	status, 5	;RP0=0, select bank0
  4884  0990  1303               	bcf	status, 6	;RP1=0, select bank0
  4885  0991  00A0               	movwf	(?_i2c_byte_write)
  4886  0992  3000               	movlw	high(0)
  4887  0993  00A1               	movwf	((?_i2c_byte_write))+1
  4888  0994  307C               	movlw	(07Ch)
  4889  0995  00CD               	movwf	(??_fmNo_in+0)+0
  4890  0996  084D               	movf	(??_fmNo_in+0)+0,w
  4891  0997  00A2               	movwf	0+(?_i2c_byte_write)+02h
  4892  0998  30C0               	movlw	(0C0h)
  4893  0999  00CE               	movwf	(??_fmNo_in+1)+0
  4894  099A  084E               	movf	(??_fmNo_in+1)+0,w
  4895  099B  00A3               	movwf	0+(?_i2c_byte_write)+03h
  4896  099C  304D               	movlw	(04Dh)
  4897  099D  00CF               	movwf	(??_fmNo_in+2)+0
  4898  099E  084F               	movf	(??_fmNo_in+2)+0,w
  4899  099F  00A4               	movwf	0+(?_i2c_byte_write)+04h
  4900  09A0  01A5               	clrf	0+(?_i2c_byte_write)+05h
  4901  09A1  160A  158A  20C7   	fcall	_i2c_byte_write
              120A  158A         
  4902                           	line	362
  4903                           ;FM_RADIO_main.c: 362: i2c_byte_write(0, 0x7C, 0xC0, 'H', 0);
  4904  09A6  3000               	movlw	low(0)
  4905  09A7  1283               	bcf	status, 5	;RP0=0, select bank0
  4906  09A8  1303               	bcf	status, 6	;RP1=0, select bank0
  4907  09A9  00A0               	movwf	(?_i2c_byte_write)
  4908  09AA  3000               	movlw	high(0)
  4909  09AB  00A1               	movwf	((?_i2c_byte_write))+1
  4910  09AC  307C               	movlw	(07Ch)
  4911  09AD  00CD               	movwf	(??_fmNo_in+0)+0
  4912  09AE  084D               	movf	(??_fmNo_in+0)+0,w
  4913  09AF  00A2               	movwf	0+(?_i2c_byte_write)+02h
  4914  09B0  30C0               	movlw	(0C0h)
  4915  09B1  00CE               	movwf	(??_fmNo_in+1)+0
  4916  09B2  084E               	movf	(??_fmNo_in+1)+0,w
  4917  09B3  00A3               	movwf	0+(?_i2c_byte_write)+03h
  4918  09B4  3048               	movlw	(048h)
  4919  09B5  00CF               	movwf	(??_fmNo_in+2)+0
  4920  09B6  084F               	movf	(??_fmNo_in+2)+0,w
  4921  09B7  00A4               	movwf	0+(?_i2c_byte_write)+04h
  4922  09B8  01A5               	clrf	0+(?_i2c_byte_write)+05h
  4923  09B9  160A  158A  20C7   	fcall	_i2c_byte_write
              120A  158A         
  4924                           	line	363
  4925                           ;FM_RADIO_main.c: 363: i2c_byte_write(0, 0x7C, 0xC0, 'z', 0);
  4926  09BE  3000               	movlw	low(0)
  4927  09BF  1283               	bcf	status, 5	;RP0=0, select bank0
  4928  09C0  1303               	bcf	status, 6	;RP1=0, select bank0
  4929  09C1  00A0               	movwf	(?_i2c_byte_write)
  4930  09C2  3000               	movlw	high(0)
  4931  09C3  00A1               	movwf	((?_i2c_byte_write))+1
  4932  09C4  307C               	movlw	(07Ch)
  4933  09C5  00CD               	movwf	(??_fmNo_in+0)+0
  4934  09C6  084D               	movf	(??_fmNo_in+0)+0,w
  4935  09C7  00A2               	movwf	0+(?_i2c_byte_write)+02h
  4936  09C8  30C0               	movlw	(0C0h)
  4937  09C9  00CE               	movwf	(??_fmNo_in+1)+0
  4938  09CA  084E               	movf	(??_fmNo_in+1)+0,w
  4939  09CB  00A3               	movwf	0+(?_i2c_byte_write)+03h
  4940  09CC  307A               	movlw	(07Ah)
  4941  09CD  00CF               	movwf	(??_fmNo_in+2)+0
  4942  09CE  084F               	movf	(??_fmNo_in+2)+0,w
  4943  09CF  00A4               	movwf	0+(?_i2c_byte_write)+04h
  4944  09D0  01A5               	clrf	0+(?_i2c_byte_write)+05h
  4945  09D1  160A  158A  20C7   	fcall	_i2c_byte_write
              120A  158A         
  4946                           	line	364
  4947                           ;FM_RADIO_main.c: 364: i2c_byte_write(0, 0x7C, 0x00, (0x80 + 0x00), 0);
  4948  09D6  3000               	movlw	low(0)
  4949  09D7  1283               	bcf	status, 5	;RP0=0, select bank0
  4950  09D8  1303               	bcf	status, 6	;RP1=0, select bank0
  4951  09D9  00A0               	movwf	(?_i2c_byte_write)
  4952  09DA  3000               	movlw	high(0)
  4953  09DB  00A1               	movwf	((?_i2c_byte_write))+1
  4954  09DC  307C               	movlw	(07Ch)
  4955  09DD  00CD               	movwf	(??_fmNo_in+0)+0
  4956  09DE  084D               	movf	(??_fmNo_in+0)+0,w
  4957  09DF  00A2               	movwf	0+(?_i2c_byte_write)+02h
  4958  09E0  01A3               	clrf	0+(?_i2c_byte_write)+03h
  4959  09E1  3080               	movlw	(080h)
  4960  09E2  00CE               	movwf	(??_fmNo_in+1)+0
  4961  09E3  084E               	movf	(??_fmNo_in+1)+0,w
  4962  09E4  00A4               	movwf	0+(?_i2c_byte_write)+04h
  4963  09E5  01A5               	clrf	0+(?_i2c_byte_write)+05h
  4964  09E6  160A  158A  20C7   	fcall	_i2c_byte_write
              120A  158A         
  4965                           	line	365
  4966                           ;FM_RADIO_main.c: 365: i2c_byte_write(0, 0x7C, 0xC0, 'N', 0);
  4967  09EB  3000               	movlw	low(0)
  4968  09EC  1283               	bcf	status, 5	;RP0=0, select bank0
  4969  09ED  1303               	bcf	status, 6	;RP1=0, select bank0
  4970  09EE  00A0               	movwf	(?_i2c_byte_write)
  4971  09EF  3000               	movlw	high(0)
  4972  09F0  00A1               	movwf	((?_i2c_byte_write))+1
  4973  09F1  307C               	movlw	(07Ch)
  4974  09F2  00CD               	movwf	(??_fmNo_in+0)+0
  4975  09F3  084D               	movf	(??_fmNo_in+0)+0,w
  4976  09F4  00A2               	movwf	0+(?_i2c_byte_write)+02h
  4977  09F5  30C0               	movlw	(0C0h)
  4978  09F6  00CE               	movwf	(??_fmNo_in+1)+0
  4979  09F7  084E               	movf	(??_fmNo_in+1)+0,w
  4980  09F8  00A3               	movwf	0+(?_i2c_byte_write)+03h
  4981  09F9  304E               	movlw	(04Eh)
  4982  09FA  00CF               	movwf	(??_fmNo_in+2)+0
  4983  09FB  084F               	movf	(??_fmNo_in+2)+0,w
  4984  09FC  00A4               	movwf	0+(?_i2c_byte_write)+04h
  4985  09FD  01A5               	clrf	0+(?_i2c_byte_write)+05h
  4986  09FE  160A  158A  20C7   	fcall	_i2c_byte_write
              120A  158A         
  4987                           	line	366
  4988                           ;FM_RADIO_main.c: 366: i2c_byte_write(0, 0x7C, 0xC0, 'o', 0);
  4989  0A03  3000               	movlw	low(0)
  4990  0A04  1283               	bcf	status, 5	;RP0=0, select bank0
  4991  0A05  1303               	bcf	status, 6	;RP1=0, select bank0
  4992  0A06  00A0               	movwf	(?_i2c_byte_write)
  4993  0A07  3000               	movlw	high(0)
  4994  0A08  00A1               	movwf	((?_i2c_byte_write))+1
  4995  0A09  307C               	movlw	(07Ch)
  4996  0A0A  00CD               	movwf	(??_fmNo_in+0)+0
  4997  0A0B  084D               	movf	(??_fmNo_in+0)+0,w
  4998  0A0C  00A2               	movwf	0+(?_i2c_byte_write)+02h
  4999  0A0D  30C0               	movlw	(0C0h)
  5000  0A0E  00CE               	movwf	(??_fmNo_in+1)+0
  5001  0A0F  084E               	movf	(??_fmNo_in+1)+0,w
  5002  0A10  00A3               	movwf	0+(?_i2c_byte_write)+03h
  5003  0A11  306F               	movlw	(06Fh)
  5004  0A12  00CF               	movwf	(??_fmNo_in+2)+0
  5005  0A13  084F               	movf	(??_fmNo_in+2)+0,w
  5006  0A14  00A4               	movwf	0+(?_i2c_byte_write)+04h
  5007  0A15  01A5               	clrf	0+(?_i2c_byte_write)+05h
  5008  0A16  160A  158A  20C7   	fcall	_i2c_byte_write
              120A  158A         
  5009                           	line	367
  5010                           ;FM_RADIO_main.c: 367: lcd_int(2, 0x02, fmNo);
  5011  0A1B  3002               	movlw	low(02h)
  5012  0A1C  1283               	bcf	status, 5	;RP0=0, select bank0
  5013  0A1D  1303               	bcf	status, 6	;RP1=0, select bank0
  5014  0A1E  00AE               	movwf	(?_lcd_int)
  5015  0A1F  3000               	movlw	high(02h)
  5016  0A20  00AF               	movwf	((?_lcd_int))+1
  5017  0A21  3002               	movlw	low(02h)
  5018  0A22  00B0               	movwf	0+(?_lcd_int)+02h
  5019  0A23  3000               	movlw	high(02h)
  5020  0A24  00B1               	movwf	(0+(?_lcd_int)+02h)+1
  5021  0A25  084A               	movf	(fmNo_in@fmNo+1),w
  5022  0A26  01B3               	clrf	1+(?_lcd_int)+04h
  5023  0A27  07B3               	addwf	1+(?_lcd_int)+04h
  5024  0A28  0849               	movf	(fmNo_in@fmNo),w
  5025  0A29  01B2               	clrf	0+(?_lcd_int)+04h
  5026  0A2A  07B2               	addwf	0+(?_lcd_int)+04h
  5027                           
  5028  0A2B  120A  118A  2768   	fcall	_lcd_int
              120A  158A         
  5029                           	line	368
  5030                           ;FM_RADIO_main.c: 368: lcd_float(0x41, fcon);
  5031  0A30  3041               	movlw	low(041h)
  5032  0A31  1283               	bcf	status, 5	;RP0=0, select bank0
  5033  0A32  1303               	bcf	status, 6	;RP1=0, select bank0
  5034  0A33  00B5               	movwf	(?_lcd_float)
  5035  0A34  3000               	movlw	high(041h)
  5036  0A35  00B6               	movwf	((?_lcd_float))+1
  5037  0A36  0853               	movf	(fmNo_in@fcon+1),w
  5038  0A37  01B8               	clrf	1+(?_lcd_float)+02h
  5039  0A38  07B8               	addwf	1+(?_lcd_float)+02h
  5040  0A39  0852               	movf	(fmNo_in@fcon),w
  5041  0A3A  01B7               	clrf	0+(?_lcd_float)+02h
  5042  0A3B  07B7               	addwf	0+(?_lcd_float)+02h
  5043                           
  5044  0A3C  160A  158A  24C7   	fcall	_lcd_float
              120A  158A         
  5045                           	line	369
  5046                           ;FM_RADIO_main.c: 369: while (RA2 || RA1 || RA3);
  5047  0A41  2A42               	goto	l1174
  5048                           	
  5049  0A42                     l1175:	
  5050                           	
  5051  0A42                     l1174:	
  5052  0A42  1283               	bcf	status, 5	;RP0=0, select bank0
  5053  0A43  1303               	bcf	status, 6	;RP1=0, select bank0
  5054  0A44  1905               	btfsc	(42/8),(42)&7
  5055  0A45  2A47               	goto	u7071
  5056  0A46  2A48               	goto	u7070
  5057  0A47                     u7071:
  5058  0A47  2A42               	goto	l1174
  5059  0A48                     u7070:
  5060                           	
  5061  0A48                     l8246:	
  5062  0A48  1885               	btfsc	(41/8),(41)&7
  5063  0A49  2A4B               	goto	u7081
  5064  0A4A  2A4C               	goto	u7080
  5065  0A4B                     u7081:
  5066  0A4B  2A42               	goto	l1174
  5067  0A4C                     u7080:
  5068                           	
  5069  0A4C                     l8248:	
  5070  0A4C  1985               	btfsc	(43/8),(43)&7
  5071  0A4D  2A4F               	goto	u7091
  5072  0A4E  2A50               	goto	u7090
  5073  0A4F                     u7091:
  5074  0A4F  2A42               	goto	l1174
  5075  0A50                     u7090:
  5076  0A50  2B67               	goto	l1177
  5077                           	
  5078  0A51                     l1176:	
  5079                           	line	370
  5080                           ;FM_RADIO_main.c: 370: while ((!RA2 || (RA1 || RA3)) && !endf) {
  5081  0A51  2B67               	goto	l1177
  5082                           	
  5083  0A52                     l1178:	
  5084                           	line	371
  5085                           	
  5086  0A52                     l8250:	
  5087                           ;FM_RADIO_main.c: 371: _delay((unsigned long)((60)*(4000000/4000.0)));
  5088                           	opt asmopt_off
  5089  0A52  304E               movlw	78
  5090  0A53  00CE               movwf	((??_fmNo_in+0)+0+1),f
  5091  0A54  30EB               	movlw	235
  5092  0A55  00CD               movwf	((??_fmNo_in+0)+0),f
  5093  0A56                     u8117:
  5094  0A56  0BCD               	decfsz	((??_fmNo_in+0)+0),f
  5095  0A57  2A56               	goto	u8117
  5096  0A58  0BCE               	decfsz	((??_fmNo_in+0)+0+1),f
  5097  0A59  2A56               	goto	u8117
  5098                           opt asmopt_on
  5099                           
  5100                           	line	372
  5101                           	
  5102  0A5A                     l8252:	
  5103                           ;FM_RADIO_main.c: 372: if (RA1 == 1) {
  5104  0A5A  1283               	bcf	status, 5	;RP0=0, select bank0
  5105  0A5B  1303               	bcf	status, 6	;RP1=0, select bank0
  5106  0A5C  1C85               	btfss	(41/8),(41)&7
  5107  0A5D  2A5F               	goto	u7101
  5108  0A5E  2A60               	goto	u7100
  5109  0A5F                     u7101:
  5110  0A5F  2AE1               	goto	l1179
  5111  0A60                     u7100:
  5112                           	line	373
  5113                           	
  5114  0A60                     l8254:	
  5115                           ;FM_RADIO_main.c: 373: if (fmNo < 32) {
  5116  0A60  084A               	movf	(fmNo_in@fmNo+1),w
  5117  0A61  3A80               	xorlw	80h
  5118  0A62  00FF               	movwf	btemp+1
  5119  0A63  3080               	movlw	(high(020h))^80h
  5120  0A64  027F               	subwf	btemp+1,w
  5121  0A65  1D03               	skipz
  5122  0A66  2A69               	goto	u7115
  5123  0A67  3020               	movlw	low(020h)
  5124  0A68  0249               	subwf	(fmNo_in@fmNo),w
  5125  0A69                     u7115:
  5126                           
  5127  0A69  1803               	skipnc
  5128  0A6A  2A6C               	goto	u7111
  5129  0A6B  2A6D               	goto	u7110
  5130  0A6C                     u7111:
  5131  0A6C  2A91               	goto	l8258
  5132  0A6D                     u7110:
  5133                           	line	374
  5134                           	
  5135  0A6D                     l8256:	
  5136                           ;FM_RADIO_main.c: 374: fcon = memory_fcont(0, ++fmNo, 0);
  5137  0A6D  3000               	movlw	low(0)
  5138  0A6E  1283               	bcf	status, 5	;RP0=0, select bank0
  5139  0A6F  1303               	bcf	status, 6	;RP1=0, select bank0
  5140  0A70  00AA               	movwf	(?_memory_fcont)
  5141  0A71  3000               	movlw	high(0)
  5142  0A72  00AB               	movwf	((?_memory_fcont))+1
  5143  0A73  3001               	movlw	low(01h)
  5144  0A74  07C9               	addwf	(fmNo_in@fmNo),f
  5145  0A75  1803               	skipnc
  5146  0A76  0ACA               	incf	(fmNo_in@fmNo+1),f
  5147  0A77  3000               	movlw	high(01h)
  5148  0A78  07CA               	addwf	(fmNo_in@fmNo+1),f
  5149  0A79  084A               	movf	((fmNo_in@fmNo+1)),w
  5150  0A7A  01AD               	clrf	1+(?_memory_fcont)+02h
  5151  0A7B  07AD               	addwf	1+(?_memory_fcont)+02h
  5152  0A7C  0849               	movf	((fmNo_in@fmNo)),w
  5153  0A7D  01AC               	clrf	0+(?_memory_fcont)+02h
  5154  0A7E  07AC               	addwf	0+(?_memory_fcont)+02h
  5155                           
  5156  0A7F  3000               	movlw	low(0)
  5157  0A80  00AE               	movwf	0+(?_memory_fcont)+04h
  5158  0A81  3000               	movlw	high(0)
  5159  0A82  00AF               	movwf	(0+(?_memory_fcont)+04h)+1
  5160  0A83  160A  158A  2352   	fcall	_memory_fcont
              120A  158A         
  5161  0A88  1283               	bcf	status, 5	;RP0=0, select bank0
  5162  0A89  1303               	bcf	status, 6	;RP1=0, select bank0
  5163  0A8A  082B               	movf	(1+(?_memory_fcont)),w
  5164  0A8B  01D3               	clrf	(fmNo_in@fcon+1)
  5165  0A8C  07D3               	addwf	(fmNo_in@fcon+1)
  5166  0A8D  082A               	movf	(0+(?_memory_fcont)),w
  5167  0A8E  01D2               	clrf	(fmNo_in@fcon)
  5168  0A8F  07D2               	addwf	(fmNo_in@fcon)
  5169                           
  5170  0A90  2A91               	goto	l8258
  5171                           	line	375
  5172                           	
  5173  0A91                     l1180:	
  5174                           	line	376
  5175                           	
  5176  0A91                     l8258:	
  5177                           ;FM_RADIO_main.c: 375: }
  5178                           ;FM_RADIO_main.c: 376: lcd_int(2, 0x02, fmNo);
  5179  0A91  3002               	movlw	low(02h)
  5180  0A92  1283               	bcf	status, 5	;RP0=0, select bank0
  5181  0A93  1303               	bcf	status, 6	;RP1=0, select bank0
  5182  0A94  00AE               	movwf	(?_lcd_int)
  5183  0A95  3000               	movlw	high(02h)
  5184  0A96  00AF               	movwf	((?_lcd_int))+1
  5185  0A97  3002               	movlw	low(02h)
  5186  0A98  00B0               	movwf	0+(?_lcd_int)+02h
  5187  0A99  3000               	movlw	high(02h)
  5188  0A9A  00B1               	movwf	(0+(?_lcd_int)+02h)+1
  5189  0A9B  084A               	movf	(fmNo_in@fmNo+1),w
  5190  0A9C  01B3               	clrf	1+(?_lcd_int)+04h
  5191  0A9D  07B3               	addwf	1+(?_lcd_int)+04h
  5192  0A9E  0849               	movf	(fmNo_in@fmNo),w
  5193  0A9F  01B2               	clrf	0+(?_lcd_int)+04h
  5194  0AA0  07B2               	addwf	0+(?_lcd_int)+04h
  5195                           
  5196  0AA1  120A  118A  2768   	fcall	_lcd_int
              120A  158A         
  5197                           	line	377
  5198                           	
  5199  0AA6                     l8260:	
  5200                           ;FM_RADIO_main.c: 377: lcd_float(0x41, fcon);
  5201  0AA6  3041               	movlw	low(041h)
  5202  0AA7  1283               	bcf	status, 5	;RP0=0, select bank0
  5203  0AA8  1303               	bcf	status, 6	;RP1=0, select bank0
  5204  0AA9  00B5               	movwf	(?_lcd_float)
  5205  0AAA  3000               	movlw	high(041h)
  5206  0AAB  00B6               	movwf	((?_lcd_float))+1
  5207  0AAC  0853               	movf	(fmNo_in@fcon+1),w
  5208  0AAD  01B8               	clrf	1+(?_lcd_float)+02h
  5209  0AAE  07B8               	addwf	1+(?_lcd_float)+02h
  5210  0AAF  0852               	movf	(fmNo_in@fcon),w
  5211  0AB0  01B7               	clrf	0+(?_lcd_float)+02h
  5212  0AB1  07B7               	addwf	0+(?_lcd_float)+02h
  5213                           
  5214  0AB2  160A  158A  24C7   	fcall	_lcd_float
              120A  158A         
  5215                           	line	378
  5216                           ;FM_RADIO_main.c: 378: while (RA1 && !endf) {
  5217  0AB7  2AD3               	goto	l8272
  5218                           	
  5219  0AB8                     l1182:	
  5220                           	line	379
  5221                           ;FM_RADIO_main.c: 379: if (RA3 == 1 && RA1 == 1)endf = 1;
  5222  0AB8  1D85               	btfss	(43/8),(43)&7
  5223  0AB9  2ABB               	goto	u7121
  5224  0ABA  2ABC               	goto	u7120
  5225  0ABB                     u7121:
  5226  0ABB  2AC5               	goto	l8266
  5227  0ABC                     u7120:
  5228                           	
  5229  0ABC                     l8262:	
  5230  0ABC  1C85               	btfss	(41/8),(41)&7
  5231  0ABD  2ABF               	goto	u7131
  5232  0ABE  2AC0               	goto	u7130
  5233  0ABF                     u7131:
  5234  0ABF  2AC5               	goto	l8266
  5235  0AC0                     u7130:
  5236                           	
  5237  0AC0                     l8264:	
  5238  0AC0  3001               	movlw	low(01h)
  5239  0AC1  00D4               	movwf	(fmNo_in@endf)
  5240  0AC2  3000               	movlw	high(01h)
  5241  0AC3  00D5               	movwf	((fmNo_in@endf))+1
  5242  0AC4  2AC5               	goto	l8266
  5243                           	
  5244  0AC5                     l1183:	
  5245                           	line	380
  5246                           	
  5247  0AC5                     l8266:	
  5248                           ;FM_RADIO_main.c: 380: if (RA1 == 1 && RA2 == 1)endf = 2;
  5249  0AC5  1C85               	btfss	(41/8),(41)&7
  5250  0AC6  2AC8               	goto	u7141
  5251  0AC7  2AC9               	goto	u7140
  5252  0AC8                     u7141:
  5253  0AC8  2AD3               	goto	l8272
  5254  0AC9                     u7140:
  5255                           	
  5256  0AC9                     l8268:	
  5257  0AC9  1D05               	btfss	(42/8),(42)&7
  5258  0ACA  2ACC               	goto	u7151
  5259  0ACB  2ACD               	goto	u7150
  5260  0ACC                     u7151:
  5261  0ACC  2AD3               	goto	l8272
  5262  0ACD                     u7150:
  5263                           	
  5264  0ACD                     l8270:	
  5265  0ACD  3002               	movlw	low(02h)
  5266  0ACE  00D4               	movwf	(fmNo_in@endf)
  5267  0ACF  3000               	movlw	high(02h)
  5268  0AD0  00D5               	movwf	((fmNo_in@endf))+1
  5269  0AD1  2AD3               	goto	l8272
  5270                           	
  5271  0AD2                     l1184:	
  5272  0AD2  2AD3               	goto	l8272
  5273                           	line	381
  5274                           	
  5275  0AD3                     l1181:	
  5276                           	line	378
  5277                           	
  5278  0AD3                     l8272:	
  5279  0AD3  1283               	bcf	status, 5	;RP0=0, select bank0
  5280  0AD4  1303               	bcf	status, 6	;RP1=0, select bank0
  5281  0AD5  1C85               	btfss	(41/8),(41)&7
  5282  0AD6  2AD8               	goto	u7161
  5283  0AD7  2AD9               	goto	u7160
  5284  0AD8                     u7161:
  5285  0AD8  2AE1               	goto	l1179
  5286  0AD9                     u7160:
  5287                           	
  5288  0AD9                     l8274:	
  5289  0AD9  0855               	movf	(fmNo_in@endf+1),w
  5290  0ADA  0454               	iorwf	(fmNo_in@endf),w
  5291  0ADB  1903               	skipnz
  5292  0ADC  2ADE               	goto	u7171
  5293  0ADD  2ADF               	goto	u7170
  5294  0ADE                     u7171:
  5295  0ADE  2AB8               	goto	l1182
  5296  0ADF                     u7170:
  5297  0ADF  2AE1               	goto	l1179
  5298                           	
  5299  0AE0                     l1186:	
  5300  0AE0  2AE1               	goto	l1179
  5301                           	
  5302  0AE1                     l1187:	
  5303                           	line	382
  5304                           	
  5305  0AE1                     l1179:	
  5306                           	line	384
  5307                           ;FM_RADIO_main.c: 381: }
  5308                           ;FM_RADIO_main.c: 382: }
  5309                           ;FM_RADIO_main.c: 384: if (RA3 == 1) {
  5310  0AE1  1D85               	btfss	(43/8),(43)&7
  5311  0AE2  2AE4               	goto	u7181
  5312  0AE3  2AE5               	goto	u7180
  5313  0AE4                     u7181:
  5314  0AE4  2B67               	goto	l1177
  5315  0AE5                     u7180:
  5316                           	line	385
  5317                           	
  5318  0AE5                     l8276:	
  5319                           ;FM_RADIO_main.c: 385: if (fmNo > 0)fcon = memory_fcont(0, --fmNo, 0);
  5320  0AE5  084A               	movf	(fmNo_in@fmNo+1),w
  5321  0AE6  3A80               	xorlw	80h
  5322  0AE7  00FF               	movwf	btemp+1
  5323  0AE8  3080               	movlw	(high(01h))^80h
  5324  0AE9  027F               	subwf	btemp+1,w
  5325  0AEA  1D03               	skipz
  5326  0AEB  2AEE               	goto	u7195
  5327  0AEC  3001               	movlw	low(01h)
  5328  0AED  0249               	subwf	(fmNo_in@fmNo),w
  5329  0AEE                     u7195:
  5330                           
  5331  0AEE  1C03               	skipc
  5332  0AEF  2AF1               	goto	u7191
  5333  0AF0  2AF2               	goto	u7190
  5334  0AF1                     u7191:
  5335  0AF1  2B16               	goto	l8280
  5336  0AF2                     u7190:
  5337                           	
  5338  0AF2                     l8278:	
  5339  0AF2  3000               	movlw	low(0)
  5340  0AF3  1283               	bcf	status, 5	;RP0=0, select bank0
  5341  0AF4  1303               	bcf	status, 6	;RP1=0, select bank0
  5342  0AF5  00AA               	movwf	(?_memory_fcont)
  5343  0AF6  3000               	movlw	high(0)
  5344  0AF7  00AB               	movwf	((?_memory_fcont))+1
  5345  0AF8  30FF               	movlw	low(-1)
  5346  0AF9  07C9               	addwf	(fmNo_in@fmNo),f
  5347  0AFA  1803               	skipnc
  5348  0AFB  0ACA               	incf	(fmNo_in@fmNo+1),f
  5349  0AFC  30FF               	movlw	high(-1)
  5350  0AFD  07CA               	addwf	(fmNo_in@fmNo+1),f
  5351  0AFE  084A               	movf	((fmNo_in@fmNo+1)),w
  5352  0AFF  01AD               	clrf	1+(?_memory_fcont)+02h
  5353  0B00  07AD               	addwf	1+(?_memory_fcont)+02h
  5354  0B01  0849               	movf	((fmNo_in@fmNo)),w
  5355  0B02  01AC               	clrf	0+(?_memory_fcont)+02h
  5356  0B03  07AC               	addwf	0+(?_memory_fcont)+02h
  5357                           
  5358  0B04  3000               	movlw	low(0)
  5359  0B05  00AE               	movwf	0+(?_memory_fcont)+04h
  5360  0B06  3000               	movlw	high(0)
  5361  0B07  00AF               	movwf	(0+(?_memory_fcont)+04h)+1
  5362  0B08  160A  158A  2352   	fcall	_memory_fcont
              120A  158A         
  5363  0B0D  1283               	bcf	status, 5	;RP0=0, select bank0
  5364  0B0E  1303               	bcf	status, 6	;RP1=0, select bank0
  5365  0B0F  082B               	movf	(1+(?_memory_fcont)),w
  5366  0B10  01D3               	clrf	(fmNo_in@fcon+1)
  5367  0B11  07D3               	addwf	(fmNo_in@fcon+1)
  5368  0B12  082A               	movf	(0+(?_memory_fcont)),w
  5369  0B13  01D2               	clrf	(fmNo_in@fcon)
  5370  0B14  07D2               	addwf	(fmNo_in@fcon)
  5371                           
  5372  0B15  2B16               	goto	l8280
  5373                           	
  5374  0B16                     l1189:	
  5375                           	line	386
  5376                           	
  5377  0B16                     l8280:	
  5378                           ;FM_RADIO_main.c: 386: lcd_int(2, 0x02, fmNo);
  5379  0B16  3002               	movlw	low(02h)
  5380  0B17  1283               	bcf	status, 5	;RP0=0, select bank0
  5381  0B18  1303               	bcf	status, 6	;RP1=0, select bank0
  5382  0B19  00AE               	movwf	(?_lcd_int)
  5383  0B1A  3000               	movlw	high(02h)
  5384  0B1B  00AF               	movwf	((?_lcd_int))+1
  5385  0B1C  3002               	movlw	low(02h)
  5386  0B1D  00B0               	movwf	0+(?_lcd_int)+02h
  5387  0B1E  3000               	movlw	high(02h)
  5388  0B1F  00B1               	movwf	(0+(?_lcd_int)+02h)+1
  5389  0B20  084A               	movf	(fmNo_in@fmNo+1),w
  5390  0B21  01B3               	clrf	1+(?_lcd_int)+04h
  5391  0B22  07B3               	addwf	1+(?_lcd_int)+04h
  5392  0B23  0849               	movf	(fmNo_in@fmNo),w
  5393  0B24  01B2               	clrf	0+(?_lcd_int)+04h
  5394  0B25  07B2               	addwf	0+(?_lcd_int)+04h
  5395                           
  5396  0B26  120A  118A  2768   	fcall	_lcd_int
              120A  158A         
  5397                           	line	387
  5398                           	
  5399  0B2B                     l8282:	
  5400                           ;FM_RADIO_main.c: 387: lcd_float(0x41, fcon);
  5401  0B2B  3041               	movlw	low(041h)
  5402  0B2C  1283               	bcf	status, 5	;RP0=0, select bank0
  5403  0B2D  1303               	bcf	status, 6	;RP1=0, select bank0
  5404  0B2E  00B5               	movwf	(?_lcd_float)
  5405  0B2F  3000               	movlw	high(041h)
  5406  0B30  00B6               	movwf	((?_lcd_float))+1
  5407  0B31  0853               	movf	(fmNo_in@fcon+1),w
  5408  0B32  01B8               	clrf	1+(?_lcd_float)+02h
  5409  0B33  07B8               	addwf	1+(?_lcd_float)+02h
  5410  0B34  0852               	movf	(fmNo_in@fcon),w
  5411  0B35  01B7               	clrf	0+(?_lcd_float)+02h
  5412  0B36  07B7               	addwf	0+(?_lcd_float)+02h
  5413                           
  5414  0B37  160A  158A  24C7   	fcall	_lcd_float
              120A  158A         
  5415                           	line	388
  5416                           ;FM_RADIO_main.c: 388: while (RA3 && !endf) {
  5417  0B3C  2B58               	goto	l8294
  5418                           	
  5419  0B3D                     l1191:	
  5420                           	line	389
  5421                           ;FM_RADIO_main.c: 389: if (RA3 == 1 && RA1 == 1)endf = 1;
  5422  0B3D  1D85               	btfss	(43/8),(43)&7
  5423  0B3E  2B40               	goto	u7201
  5424  0B3F  2B41               	goto	u7200
  5425  0B40                     u7201:
  5426  0B40  2B4A               	goto	l8288
  5427  0B41                     u7200:
  5428                           	
  5429  0B41                     l8284:	
  5430  0B41  1C85               	btfss	(41/8),(41)&7
  5431  0B42  2B44               	goto	u7211
  5432  0B43  2B45               	goto	u7210
  5433  0B44                     u7211:
  5434  0B44  2B4A               	goto	l8288
  5435  0B45                     u7210:
  5436                           	
  5437  0B45                     l8286:	
  5438  0B45  3001               	movlw	low(01h)
  5439  0B46  00D4               	movwf	(fmNo_in@endf)
  5440  0B47  3000               	movlw	high(01h)
  5441  0B48  00D5               	movwf	((fmNo_in@endf))+1
  5442  0B49  2B4A               	goto	l8288
  5443                           	
  5444  0B4A                     l1192:	
  5445                           	line	390
  5446                           	
  5447  0B4A                     l8288:	
  5448                           ;FM_RADIO_main.c: 390: if (RA3 == 1 && RA2 == 1)endf = 3;
  5449  0B4A  1D85               	btfss	(43/8),(43)&7
  5450  0B4B  2B4D               	goto	u7221
  5451  0B4C  2B4E               	goto	u7220
  5452  0B4D                     u7221:
  5453  0B4D  2B58               	goto	l8294
  5454  0B4E                     u7220:
  5455                           	
  5456  0B4E                     l8290:	
  5457  0B4E  1D05               	btfss	(42/8),(42)&7
  5458  0B4F  2B51               	goto	u7231
  5459  0B50  2B52               	goto	u7230
  5460  0B51                     u7231:
  5461  0B51  2B58               	goto	l8294
  5462  0B52                     u7230:
  5463                           	
  5464  0B52                     l8292:	
  5465  0B52  3003               	movlw	low(03h)
  5466  0B53  00D4               	movwf	(fmNo_in@endf)
  5467  0B54  3000               	movlw	high(03h)
  5468  0B55  00D5               	movwf	((fmNo_in@endf))+1
  5469  0B56  2B58               	goto	l8294
  5470                           	
  5471  0B57                     l1193:	
  5472  0B57  2B58               	goto	l8294
  5473                           	line	391
  5474                           	
  5475  0B58                     l1190:	
  5476                           	line	388
  5477                           	
  5478  0B58                     l8294:	
  5479  0B58  1283               	bcf	status, 5	;RP0=0, select bank0
  5480  0B59  1303               	bcf	status, 6	;RP1=0, select bank0
  5481  0B5A  1D85               	btfss	(43/8),(43)&7
  5482  0B5B  2B5D               	goto	u7241
  5483  0B5C  2B5E               	goto	u7240
  5484  0B5D                     u7241:
  5485  0B5D  2B67               	goto	l1177
  5486  0B5E                     u7240:
  5487                           	
  5488  0B5E                     l8296:	
  5489  0B5E  0855               	movf	(fmNo_in@endf+1),w
  5490  0B5F  0454               	iorwf	(fmNo_in@endf),w
  5491  0B60  1903               	skipnz
  5492  0B61  2B63               	goto	u7251
  5493  0B62  2B64               	goto	u7250
  5494  0B63                     u7251:
  5495  0B63  2B3D               	goto	l1191
  5496  0B64                     u7250:
  5497  0B64  2B67               	goto	l1177
  5498                           	
  5499  0B65                     l1195:	
  5500  0B65  2B67               	goto	l1177
  5501                           	
  5502  0B66                     l1196:	
  5503  0B66  2B67               	goto	l1177
  5504                           	line	392
  5505                           	
  5506  0B67                     l1188:	
  5507                           	line	393
  5508                           	
  5509  0B67                     l1177:	
  5510                           	line	370
  5511  0B67  1D05               	btfss	(42/8),(42)&7
  5512  0B68  2B6A               	goto	u7261
  5513  0B69  2B6B               	goto	u7260
  5514  0B6A                     u7261:
  5515  0B6A  2B75               	goto	l8302
  5516  0B6B                     u7260:
  5517                           	
  5518  0B6B                     l8298:	
  5519  0B6B  1885               	btfsc	(41/8),(41)&7
  5520  0B6C  2B6E               	goto	u7271
  5521  0B6D  2B6F               	goto	u7270
  5522  0B6E                     u7271:
  5523  0B6E  2B75               	goto	l8302
  5524  0B6F                     u7270:
  5525                           	
  5526  0B6F                     l8300:	
  5527  0B6F  1D85               	btfss	(43/8),(43)&7
  5528  0B70  2B72               	goto	u7281
  5529  0B71  2B73               	goto	u7280
  5530  0B72                     u7281:
  5531  0B72  2B7D               	goto	l8304
  5532  0B73                     u7280:
  5533  0B73  2B75               	goto	l8302
  5534                           	
  5535  0B74                     l1202:	
  5536  0B74  2B75               	goto	l8302
  5537                           	
  5538  0B75                     l1200:	
  5539                           	
  5540  0B75                     l8302:	
  5541  0B75  0855               	movf	(fmNo_in@endf+1),w
  5542  0B76  0454               	iorwf	(fmNo_in@endf),w
  5543  0B77  1903               	skipnz
  5544  0B78  2B7A               	goto	u7291
  5545  0B79  2B7B               	goto	u7290
  5546  0B7A                     u7291:
  5547  0B7A  2A52               	goto	l8250
  5548  0B7B                     u7290:
  5549  0B7B  2B7D               	goto	l8304
  5550                           	
  5551  0B7C                     l1198:	
  5552  0B7C  2B7D               	goto	l8304
  5553                           	
  5554  0B7D                     l1203:	
  5555                           	line	394
  5556                           	
  5557  0B7D                     l8304:	
  5558                           ;FM_RADIO_main.c: 391: }
  5559                           ;FM_RADIO_main.c: 392: }
  5560                           ;FM_RADIO_main.c: 393: }
  5561                           ;FM_RADIO_main.c: 394: if(endf == 0){
  5562  0B7D  0855               	movf	((fmNo_in@endf+1)),w
  5563  0B7E  0454               	iorwf	((fmNo_in@endf)),w
  5564  0B7F  1D03               	skipz
  5565  0B80  2B82               	goto	u7301
  5566  0B81  2B83               	goto	u7300
  5567  0B82                     u7301:
  5568  0B82  2BFF               	goto	l8314
  5569  0B83                     u7300:
  5570                           	line	395
  5571                           	
  5572  0B83                     l8306:	
  5573                           ;FM_RADIO_main.c: 395: i2c_byte_write(0, 0x7C, 0x00, (0x80 + 0x41), 0);
  5574  0B83  3000               	movlw	low(0)
  5575  0B84  00A0               	movwf	(?_i2c_byte_write)
  5576  0B85  3000               	movlw	high(0)
  5577  0B86  00A1               	movwf	((?_i2c_byte_write))+1
  5578  0B87  307C               	movlw	(07Ch)
  5579  0B88  00CD               	movwf	(??_fmNo_in+0)+0
  5580  0B89  084D               	movf	(??_fmNo_in+0)+0,w
  5581  0B8A  00A2               	movwf	0+(?_i2c_byte_write)+02h
  5582  0B8B  01A3               	clrf	0+(?_i2c_byte_write)+03h
  5583  0B8C  30C1               	movlw	(0C1h)
  5584  0B8D  00CE               	movwf	(??_fmNo_in+1)+0
  5585  0B8E  084E               	movf	(??_fmNo_in+1)+0,w
  5586  0B8F  00A4               	movwf	0+(?_i2c_byte_write)+04h
  5587  0B90  01A5               	clrf	0+(?_i2c_byte_write)+05h
  5588  0B91  160A  158A  20C7   	fcall	_i2c_byte_write
              120A  158A         
  5589                           	line	396
  5590                           ;FM_RADIO_main.c: 396: i2c_byte_write(0, 0x7C, 0xC0, 'O', 0);
  5591  0B96  3000               	movlw	low(0)
  5592  0B97  1283               	bcf	status, 5	;RP0=0, select bank0
  5593  0B98  1303               	bcf	status, 6	;RP1=0, select bank0
  5594  0B99  00A0               	movwf	(?_i2c_byte_write)
  5595  0B9A  3000               	movlw	high(0)
  5596  0B9B  00A1               	movwf	((?_i2c_byte_write))+1
  5597  0B9C  307C               	movlw	(07Ch)
  5598  0B9D  00CD               	movwf	(??_fmNo_in+0)+0
  5599  0B9E  084D               	movf	(??_fmNo_in+0)+0,w
  5600  0B9F  00A2               	movwf	0+(?_i2c_byte_write)+02h
  5601  0BA0  30C0               	movlw	(0C0h)
  5602  0BA1  00CE               	movwf	(??_fmNo_in+1)+0
  5603  0BA2  084E               	movf	(??_fmNo_in+1)+0,w
  5604  0BA3  00A3               	movwf	0+(?_i2c_byte_write)+03h
  5605  0BA4  304F               	movlw	(04Fh)
  5606  0BA5  00CF               	movwf	(??_fmNo_in+2)+0
  5607  0BA6  084F               	movf	(??_fmNo_in+2)+0,w
  5608  0BA7  00A4               	movwf	0+(?_i2c_byte_write)+04h
  5609  0BA8  01A5               	clrf	0+(?_i2c_byte_write)+05h
  5610  0BA9  160A  158A  20C7   	fcall	_i2c_byte_write
              120A  158A         
  5611                           	line	397
  5612                           ;FM_RADIO_main.c: 397: i2c_byte_write(0, 0x7C, 0xC0, 'K', 0);
  5613  0BAE  3000               	movlw	low(0)
  5614  0BAF  1283               	bcf	status, 5	;RP0=0, select bank0
  5615  0BB0  1303               	bcf	status, 6	;RP1=0, select bank0
  5616  0BB1  00A0               	movwf	(?_i2c_byte_write)
  5617  0BB2  3000               	movlw	high(0)
  5618  0BB3  00A1               	movwf	((?_i2c_byte_write))+1
  5619  0BB4  307C               	movlw	(07Ch)
  5620  0BB5  00CD               	movwf	(??_fmNo_in+0)+0
  5621  0BB6  084D               	movf	(??_fmNo_in+0)+0,w
  5622  0BB7  00A2               	movwf	0+(?_i2c_byte_write)+02h
  5623  0BB8  30C0               	movlw	(0C0h)
  5624  0BB9  00CE               	movwf	(??_fmNo_in+1)+0
  5625  0BBA  084E               	movf	(??_fmNo_in+1)+0,w
  5626  0BBB  00A3               	movwf	0+(?_i2c_byte_write)+03h
  5627  0BBC  304B               	movlw	(04Bh)
  5628  0BBD  00CF               	movwf	(??_fmNo_in+2)+0
  5629  0BBE  084F               	movf	(??_fmNo_in+2)+0,w
  5630  0BBF  00A4               	movwf	0+(?_i2c_byte_write)+04h
  5631  0BC0  01A5               	clrf	0+(?_i2c_byte_write)+05h
  5632  0BC1  160A  158A  20C7   	fcall	_i2c_byte_write
              120A  158A         
  5633                           	line	398
  5634                           ;FM_RADIO_main.c: 398: i2c_byte_write(0, 0x7C, 0xC0, '?', 0);
  5635  0BC6  3000               	movlw	low(0)
  5636  0BC7  1283               	bcf	status, 5	;RP0=0, select bank0
  5637  0BC8  1303               	bcf	status, 6	;RP1=0, select bank0
  5638  0BC9  00A0               	movwf	(?_i2c_byte_write)
  5639  0BCA  3000               	movlw	high(0)
  5640  0BCB  00A1               	movwf	((?_i2c_byte_write))+1
  5641  0BCC  307C               	movlw	(07Ch)
  5642  0BCD  00CD               	movwf	(??_fmNo_in+0)+0
  5643  0BCE  084D               	movf	(??_fmNo_in+0)+0,w
  5644  0BCF  00A2               	movwf	0+(?_i2c_byte_write)+02h
  5645  0BD0  30C0               	movlw	(0C0h)
  5646  0BD1  00CE               	movwf	(??_fmNo_in+1)+0
  5647  0BD2  084E               	movf	(??_fmNo_in+1)+0,w
  5648  0BD3  00A3               	movwf	0+(?_i2c_byte_write)+03h
  5649  0BD4  303F               	movlw	(03Fh)
  5650  0BD5  00CF               	movwf	(??_fmNo_in+2)+0
  5651  0BD6  084F               	movf	(??_fmNo_in+2)+0,w
  5652  0BD7  00A4               	movwf	0+(?_i2c_byte_write)+04h
  5653  0BD8  01A5               	clrf	0+(?_i2c_byte_write)+05h
  5654  0BD9  160A  158A  20C7   	fcall	_i2c_byte_write
              120A  158A         
  5655  0BDE  2BDF               	goto	l8308
  5656                           	line	399
  5657                           ;FM_RADIO_main.c: 399: while(1){
  5658                           	
  5659  0BDF                     l1205:	
  5660                           	line	400
  5661                           	
  5662  0BDF                     l8308:	
  5663                           ;FM_RADIO_main.c: 400: if(RA3 == 1){
  5664  0BDF  1283               	bcf	status, 5	;RP0=0, select bank0
  5665  0BE0  1303               	bcf	status, 6	;RP1=0, select bank0
  5666  0BE1  1D85               	btfss	(43/8),(43)&7
  5667  0BE2  2BE4               	goto	u7311
  5668  0BE3  2BE5               	goto	u7310
  5669  0BE4                     u7311:
  5670  0BE4  2BED               	goto	l1206
  5671  0BE5                     u7310:
  5672  0BE5  2BE7               	goto	l1207
  5673                           	line	401
  5674                           	
  5675  0BE6                     l8310:	
  5676                           ;FM_RADIO_main.c: 401: while(RA3);
  5677  0BE6  2BE7               	goto	l1207
  5678                           	
  5679  0BE7                     l1208:	
  5680                           	
  5681  0BE7                     l1207:	
  5682  0BE7  1985               	btfsc	(43/8),(43)&7
  5683  0BE8  2BEA               	goto	u7321
  5684  0BE9  2BEB               	goto	u7320
  5685  0BEA                     u7321:
  5686  0BEA  2BE7               	goto	l1207
  5687  0BEB                     u7320:
  5688  0BEB  2C14               	goto	l1172
  5689                           	
  5690  0BEC                     l1209:	
  5691                           	line	402
  5692                           ;FM_RADIO_main.c: 402: break;
  5693  0BEC  2C14               	goto	l1172
  5694                           	line	403
  5695                           	
  5696  0BED                     l1206:	
  5697                           	line	404
  5698                           ;FM_RADIO_main.c: 403: }
  5699                           ;FM_RADIO_main.c: 404: if(RA1 == 1){
  5700  0BED  1C85               	btfss	(41/8),(41)&7
  5701  0BEE  2BF0               	goto	u7331
  5702  0BEF  2BF1               	goto	u7330
  5703  0BF0                     u7331:
  5704  0BF0  2BDF               	goto	l8308
  5705  0BF1                     u7330:
  5706                           	line	405
  5707                           	
  5708  0BF1                     l8312:	
  5709                           ;FM_RADIO_main.c: 405: okf = 1;
  5710  0BF1  3001               	movlw	low(01h)
  5711  0BF2  00D0               	movwf	(fmNo_in@okf)
  5712  0BF3  3000               	movlw	high(01h)
  5713  0BF4  00D1               	movwf	((fmNo_in@okf))+1
  5714                           	line	406
  5715                           ;FM_RADIO_main.c: 406: while(RA1);
  5716  0BF5  2BF6               	goto	l1212
  5717                           	
  5718  0BF6                     l1213:	
  5719                           	
  5720  0BF6                     l1212:	
  5721  0BF6  1885               	btfsc	(41/8),(41)&7
  5722  0BF7  2BF9               	goto	u7341
  5723  0BF8  2BFA               	goto	u7340
  5724  0BF9                     u7341:
  5725  0BF9  2BF6               	goto	l1212
  5726  0BFA                     u7340:
  5727  0BFA  2C14               	goto	l1172
  5728                           	
  5729  0BFB                     l1214:	
  5730                           	line	407
  5731                           ;FM_RADIO_main.c: 407: break;
  5732  0BFB  2C14               	goto	l1172
  5733                           	line	408
  5734                           	
  5735  0BFC                     l1211:	
  5736  0BFC  2BDF               	goto	l8308
  5737                           	line	409
  5738                           	
  5739  0BFD                     l1215:	
  5740                           	line	399
  5741  0BFD  2BDF               	goto	l8308
  5742                           	
  5743  0BFE                     l1210:	
  5744                           	line	410
  5745                           ;FM_RADIO_main.c: 408: }
  5746                           ;FM_RADIO_main.c: 409: }
  5747                           ;FM_RADIO_main.c: 410: }
  5748  0BFE  2C14               	goto	l1172
  5749                           	line	411
  5750                           	
  5751  0BFF                     l1204:	
  5752                           	
  5753  0BFF                     l8314:	
  5754                           ;FM_RADIO_main.c: 411: else if(endf > 0){
  5755  0BFF  0855               	movf	(fmNo_in@endf+1),w
  5756  0C00  3A80               	xorlw	80h
  5757  0C01  00FF               	movwf	btemp+1
  5758  0C02  3080               	movlw	(high(01h))^80h
  5759  0C03  027F               	subwf	btemp+1,w
  5760  0C04  1D03               	skipz
  5761  0C05  2C08               	goto	u7355
  5762  0C06  3001               	movlw	low(01h)
  5763  0C07  0254               	subwf	(fmNo_in@endf),w
  5764  0C08                     u7355:
  5765                           
  5766  0C08  1C03               	skipc
  5767  0C09  2C0B               	goto	u7351
  5768  0C0A  2C0C               	goto	u7350
  5769  0C0B                     u7351:
  5770  0C0B  2C14               	goto	l1172
  5771  0C0C                     u7350:
  5772                           	line	412
  5773                           	
  5774  0C0C                     l8316:	
  5775                           ;FM_RADIO_main.c: 412: okf = 1;
  5776  0C0C  3001               	movlw	low(01h)
  5777  0C0D  1283               	bcf	status, 5	;RP0=0, select bank0
  5778  0C0E  1303               	bcf	status, 6	;RP1=0, select bank0
  5779  0C0F  00D0               	movwf	(fmNo_in@okf)
  5780  0C10  3000               	movlw	high(01h)
  5781  0C11  00D1               	movwf	((fmNo_in@okf))+1
  5782  0C12  2C14               	goto	l1172
  5783                           	line	413
  5784                           	
  5785  0C13                     l1217:	
  5786  0C13  2C14               	goto	l1172
  5787                           	line	414
  5788                           	
  5789  0C14                     l1216:	
  5790                           	
  5791  0C14                     l1172:	
  5792                           	line	354
  5793  0C14  1283               	bcf	status, 5	;RP0=0, select bank0
  5794  0C15  1303               	bcf	status, 6	;RP1=0, select bank0
  5795  0C16  0851               	movf	(fmNo_in@okf+1),w
  5796  0C17  0450               	iorwf	(fmNo_in@okf),w
  5797  0C18  1903               	skipnz
  5798  0C19  2C1B               	goto	u7361
  5799  0C1A  2C1C               	goto	u7360
  5800  0C1B                     u7361:
  5801  0C1B  290D               	goto	l8244
  5802  0C1C                     u7360:
  5803  0C1C  2C1D               	goto	l8318
  5804                           	
  5805  0C1D                     l1218:	
  5806                           	line	415
  5807                           	
  5808  0C1D                     l8318:	
  5809                           ;FM_RADIO_main.c: 413: }
  5810                           ;FM_RADIO_main.c: 414: }
  5811                           ;FM_RADIO_main.c: 415: okf = 0;
  5812  0C1D  01D0               	clrf	(fmNo_in@okf)
  5813  0C1E  01D1               	clrf	(fmNo_in@okf+1)
  5814                           	line	417
  5815                           	
  5816  0C1F                     l8320:	
  5817                           ;FM_RADIO_main.c: 417: if (endf == 0) {
  5818  0C1F  0855               	movf	((fmNo_in@endf+1)),w
  5819  0C20  0454               	iorwf	((fmNo_in@endf)),w
  5820  0C21  1D03               	skipz
  5821  0C22  2C24               	goto	u7371
  5822  0C23  2C25               	goto	u7370
  5823  0C24                     u7371:
  5824  0C24  2CD9               	goto	l8336
  5825  0C25                     u7370:
  5826                           	line	418
  5827                           	
  5828  0C25                     l8322:	
  5829                           ;FM_RADIO_main.c: 418: memory_fcont(1, fmNo, fcont);
  5830  0C25  3001               	movlw	low(01h)
  5831  0C26  00AA               	movwf	(?_memory_fcont)
  5832  0C27  3000               	movlw	high(01h)
  5833  0C28  00AB               	movwf	((?_memory_fcont))+1
  5834  0C29  084A               	movf	(fmNo_in@fmNo+1),w
  5835  0C2A  01AD               	clrf	1+(?_memory_fcont)+02h
  5836  0C2B  07AD               	addwf	1+(?_memory_fcont)+02h
  5837  0C2C  0849               	movf	(fmNo_in@fmNo),w
  5838  0C2D  01AC               	clrf	0+(?_memory_fcont)+02h
  5839  0C2E  07AC               	addwf	0+(?_memory_fcont)+02h
  5840                           
  5841  0C2F  084C               	movf	(fmNo_in@fcont+1),w
  5842  0C30  01AF               	clrf	1+(?_memory_fcont)+04h
  5843  0C31  07AF               	addwf	1+(?_memory_fcont)+04h
  5844  0C32  084B               	movf	(fmNo_in@fcont),w
  5845  0C33  01AE               	clrf	0+(?_memory_fcont)+04h
  5846  0C34  07AE               	addwf	0+(?_memory_fcont)+04h
  5847                           
  5848  0C35  160A  158A  2352   	fcall	_memory_fcont
              120A  158A         
  5849                           	line	419
  5850                           ;FM_RADIO_main.c: 419: fcon = memory_fcont(0, fmNo, 0);
  5851  0C3A  3000               	movlw	low(0)
  5852  0C3B  1283               	bcf	status, 5	;RP0=0, select bank0
  5853  0C3C  1303               	bcf	status, 6	;RP1=0, select bank0
  5854  0C3D  00AA               	movwf	(?_memory_fcont)
  5855  0C3E  3000               	movlw	high(0)
  5856  0C3F  00AB               	movwf	((?_memory_fcont))+1
  5857  0C40  084A               	movf	(fmNo_in@fmNo+1),w
  5858  0C41  01AD               	clrf	1+(?_memory_fcont)+02h
  5859  0C42  07AD               	addwf	1+(?_memory_fcont)+02h
  5860  0C43  0849               	movf	(fmNo_in@fmNo),w
  5861  0C44  01AC               	clrf	0+(?_memory_fcont)+02h
  5862  0C45  07AC               	addwf	0+(?_memory_fcont)+02h
  5863                           
  5864  0C46  3000               	movlw	low(0)
  5865  0C47  00AE               	movwf	0+(?_memory_fcont)+04h
  5866  0C48  3000               	movlw	high(0)
  5867  0C49  00AF               	movwf	(0+(?_memory_fcont)+04h)+1
  5868  0C4A  160A  158A  2352   	fcall	_memory_fcont
              120A  158A         
  5869  0C4F  1283               	bcf	status, 5	;RP0=0, select bank0
  5870  0C50  1303               	bcf	status, 6	;RP1=0, select bank0
  5871  0C51  082B               	movf	(1+(?_memory_fcont)),w
  5872  0C52  01D3               	clrf	(fmNo_in@fcon+1)
  5873  0C53  07D3               	addwf	(fmNo_in@fcon+1)
  5874  0C54  082A               	movf	(0+(?_memory_fcont)),w
  5875  0C55  01D2               	clrf	(fmNo_in@fcon)
  5876  0C56  07D2               	addwf	(fmNo_in@fcon)
  5877                           
  5878                           	line	420
  5879                           	
  5880  0C57                     l8324:	
  5881                           ;FM_RADIO_main.c: 420: lcd_int(2, 0x02, fmNo);
  5882  0C57  3002               	movlw	low(02h)
  5883  0C58  00AE               	movwf	(?_lcd_int)
  5884  0C59  3000               	movlw	high(02h)
  5885  0C5A  00AF               	movwf	((?_lcd_int))+1
  5886  0C5B  3002               	movlw	low(02h)
  5887  0C5C  00B0               	movwf	0+(?_lcd_int)+02h
  5888  0C5D  3000               	movlw	high(02h)
  5889  0C5E  00B1               	movwf	(0+(?_lcd_int)+02h)+1
  5890  0C5F  084A               	movf	(fmNo_in@fmNo+1),w
  5891  0C60  01B3               	clrf	1+(?_lcd_int)+04h
  5892  0C61  07B3               	addwf	1+(?_lcd_int)+04h
  5893  0C62  0849               	movf	(fmNo_in@fmNo),w
  5894  0C63  01B2               	clrf	0+(?_lcd_int)+04h
  5895  0C64  07B2               	addwf	0+(?_lcd_int)+04h
  5896                           
  5897  0C65  120A  118A  2768   	fcall	_lcd_int
              120A  158A         
  5898                           	line	421
  5899                           	
  5900  0C6A                     l8326:	
  5901                           ;FM_RADIO_main.c: 421: lcd_float(0x40, fcon);
  5902  0C6A  3040               	movlw	low(040h)
  5903  0C6B  1283               	bcf	status, 5	;RP0=0, select bank0
  5904  0C6C  1303               	bcf	status, 6	;RP1=0, select bank0
  5905  0C6D  00B5               	movwf	(?_lcd_float)
  5906  0C6E  3000               	movlw	high(040h)
  5907  0C6F  00B6               	movwf	((?_lcd_float))+1
  5908  0C70  0853               	movf	(fmNo_in@fcon+1),w
  5909  0C71  01B8               	clrf	1+(?_lcd_float)+02h
  5910  0C72  07B8               	addwf	1+(?_lcd_float)+02h
  5911  0C73  0852               	movf	(fmNo_in@fcon),w
  5912  0C74  01B7               	clrf	0+(?_lcd_float)+02h
  5913  0C75  07B7               	addwf	0+(?_lcd_float)+02h
  5914                           
  5915  0C76  160A  158A  24C7   	fcall	_lcd_float
              120A  158A         
  5916                           	line	422
  5917                           	
  5918  0C7B                     l8328:	
  5919                           ;FM_RADIO_main.c: 422: i2c_byte_write(0, 0x7C, 0x00, (0x80 + 0x44), 0);
  5920  0C7B  3000               	movlw	low(0)
  5921  0C7C  1283               	bcf	status, 5	;RP0=0, select bank0
  5922  0C7D  1303               	bcf	status, 6	;RP1=0, select bank0
  5923  0C7E  00A0               	movwf	(?_i2c_byte_write)
  5924  0C7F  3000               	movlw	high(0)
  5925  0C80  00A1               	movwf	((?_i2c_byte_write))+1
  5926  0C81  307C               	movlw	(07Ch)
  5927  0C82  00CD               	movwf	(??_fmNo_in+0)+0
  5928  0C83  084D               	movf	(??_fmNo_in+0)+0,w
  5929  0C84  00A2               	movwf	0+(?_i2c_byte_write)+02h
  5930  0C85  01A3               	clrf	0+(?_i2c_byte_write)+03h
  5931  0C86  30C4               	movlw	(0C4h)
  5932  0C87  00CE               	movwf	(??_fmNo_in+1)+0
  5933  0C88  084E               	movf	(??_fmNo_in+1)+0,w
  5934  0C89  00A4               	movwf	0+(?_i2c_byte_write)+04h
  5935  0C8A  01A5               	clrf	0+(?_i2c_byte_write)+05h
  5936  0C8B  160A  158A  20C7   	fcall	_i2c_byte_write
              120A  158A         
  5937                           	line	423
  5938                           	
  5939  0C90                     l8330:	
  5940                           ;FM_RADIO_main.c: 423: i2c_byte_write(0, 0x7C, 0xC0, ' ', 0);
  5941  0C90  3000               	movlw	low(0)
  5942  0C91  1283               	bcf	status, 5	;RP0=0, select bank0
  5943  0C92  1303               	bcf	status, 6	;RP1=0, select bank0
  5944  0C93  00A0               	movwf	(?_i2c_byte_write)
  5945  0C94  3000               	movlw	high(0)
  5946  0C95  00A1               	movwf	((?_i2c_byte_write))+1
  5947  0C96  307C               	movlw	(07Ch)
  5948  0C97  00CD               	movwf	(??_fmNo_in+0)+0
  5949  0C98  084D               	movf	(??_fmNo_in+0)+0,w
  5950  0C99  00A2               	movwf	0+(?_i2c_byte_write)+02h
  5951  0C9A  30C0               	movlw	(0C0h)
  5952  0C9B  00CE               	movwf	(??_fmNo_in+1)+0
  5953  0C9C  084E               	movf	(??_fmNo_in+1)+0,w
  5954  0C9D  00A3               	movwf	0+(?_i2c_byte_write)+03h
  5955  0C9E  3020               	movlw	(020h)
  5956  0C9F  00CF               	movwf	(??_fmNo_in+2)+0
  5957  0CA0  084F               	movf	(??_fmNo_in+2)+0,w
  5958  0CA1  00A4               	movwf	0+(?_i2c_byte_write)+04h
  5959  0CA2  01A5               	clrf	0+(?_i2c_byte_write)+05h
  5960  0CA3  160A  158A  20C7   	fcall	_i2c_byte_write
              120A  158A         
  5961                           	line	424
  5962                           	
  5963  0CA8                     l8332:	
  5964                           ;FM_RADIO_main.c: 424: i2c_byte_write(0, 0x7C, 0xC0, 'O', 0);
  5965  0CA8  3000               	movlw	low(0)
  5966  0CA9  1283               	bcf	status, 5	;RP0=0, select bank0
  5967  0CAA  1303               	bcf	status, 6	;RP1=0, select bank0
  5968  0CAB  00A0               	movwf	(?_i2c_byte_write)
  5969  0CAC  3000               	movlw	high(0)
  5970  0CAD  00A1               	movwf	((?_i2c_byte_write))+1
  5971  0CAE  307C               	movlw	(07Ch)
  5972  0CAF  00CD               	movwf	(??_fmNo_in+0)+0
  5973  0CB0  084D               	movf	(??_fmNo_in+0)+0,w
  5974  0CB1  00A2               	movwf	0+(?_i2c_byte_write)+02h
  5975  0CB2  30C0               	movlw	(0C0h)
  5976  0CB3  00CE               	movwf	(??_fmNo_in+1)+0
  5977  0CB4  084E               	movf	(??_fmNo_in+1)+0,w
  5978  0CB5  00A3               	movwf	0+(?_i2c_byte_write)+03h
  5979  0CB6  304F               	movlw	(04Fh)
  5980  0CB7  00CF               	movwf	(??_fmNo_in+2)+0
  5981  0CB8  084F               	movf	(??_fmNo_in+2)+0,w
  5982  0CB9  00A4               	movwf	0+(?_i2c_byte_write)+04h
  5983  0CBA  01A5               	clrf	0+(?_i2c_byte_write)+05h
  5984  0CBB  160A  158A  20C7   	fcall	_i2c_byte_write
              120A  158A         
  5985                           	line	425
  5986                           	
  5987  0CC0                     l8334:	
  5988                           ;FM_RADIO_main.c: 425: i2c_byte_write(0, 0x7C, 0xC0, 'K', 0);
  5989  0CC0  3000               	movlw	low(0)
  5990  0CC1  1283               	bcf	status, 5	;RP0=0, select bank0
  5991  0CC2  1303               	bcf	status, 6	;RP1=0, select bank0
  5992  0CC3  00A0               	movwf	(?_i2c_byte_write)
  5993  0CC4  3000               	movlw	high(0)
  5994  0CC5  00A1               	movwf	((?_i2c_byte_write))+1
  5995  0CC6  307C               	movlw	(07Ch)
  5996  0CC7  00CD               	movwf	(??_fmNo_in+0)+0
  5997  0CC8  084D               	movf	(??_fmNo_in+0)+0,w
  5998  0CC9  00A2               	movwf	0+(?_i2c_byte_write)+02h
  5999  0CCA  30C0               	movlw	(0C0h)
  6000  0CCB  00CE               	movwf	(??_fmNo_in+1)+0
  6001  0CCC  084E               	movf	(??_fmNo_in+1)+0,w
  6002  0CCD  00A3               	movwf	0+(?_i2c_byte_write)+03h
  6003  0CCE  304B               	movlw	(04Bh)
  6004  0CCF  00CF               	movwf	(??_fmNo_in+2)+0
  6005  0CD0  084F               	movf	(??_fmNo_in+2)+0,w
  6006  0CD1  00A4               	movwf	0+(?_i2c_byte_write)+04h
  6007  0CD2  01A5               	clrf	0+(?_i2c_byte_write)+05h
  6008  0CD3  160A  158A  20C7   	fcall	_i2c_byte_write
              120A  158A         
  6009                           	line	426
  6010                           ;FM_RADIO_main.c: 426: } else if (endf == 1) {
  6011  0CD8  2FD7               	goto	l1220
  6012                           	
  6013  0CD9                     l1219:	
  6014                           	
  6015  0CD9                     l8336:	
  6016  0CD9  3001               	movlw	01h
  6017  0CDA  1283               	bcf	status, 5	;RP0=0, select bank0
  6018  0CDB  1303               	bcf	status, 6	;RP1=0, select bank0
  6019  0CDC  0654               	xorwf	(fmNo_in@endf),w
  6020  0CDD  0455               	iorwf	(fmNo_in@endf+1),w
  6021  0CDE  1D03               	skipz
  6022  0CDF  2CE1               	goto	u7381
  6023  0CE0  2CE2               	goto	u7380
  6024  0CE1                     u7381:
  6025  0CE1  2D6A               	goto	l8340
  6026  0CE2                     u7380:
  6027                           	line	427
  6028                           	
  6029  0CE2                     l8338:	
  6030                           ;FM_RADIO_main.c: 427: i2c_byte_write(0, 0x7C, 0x00, 0x01, 0);
  6031  0CE2  3000               	movlw	low(0)
  6032  0CE3  00A0               	movwf	(?_i2c_byte_write)
  6033  0CE4  3000               	movlw	high(0)
  6034  0CE5  00A1               	movwf	((?_i2c_byte_write))+1
  6035  0CE6  307C               	movlw	(07Ch)
  6036  0CE7  00CD               	movwf	(??_fmNo_in+0)+0
  6037  0CE8  084D               	movf	(??_fmNo_in+0)+0,w
  6038  0CE9  00A2               	movwf	0+(?_i2c_byte_write)+02h
  6039  0CEA  01A3               	clrf	0+(?_i2c_byte_write)+03h
  6040  0CEB  01A4               	clrf	0+(?_i2c_byte_write)+04h
  6041  0CEC  1403               	bsf	status,0
  6042  0CED  0DA4               	rlf	0+(?_i2c_byte_write)+04h,f
  6043  0CEE  01A5               	clrf	0+(?_i2c_byte_write)+05h
  6044  0CEF  160A  158A  20C7   	fcall	_i2c_byte_write
              120A  158A         
  6045                           	line	428
  6046                           ;FM_RADIO_main.c: 428: i2c_byte_write(0, 0x7C, 0x00, (0x80 + 0x02), 0);
  6047  0CF4  3000               	movlw	low(0)
  6048  0CF5  1283               	bcf	status, 5	;RP0=0, select bank0
  6049  0CF6  1303               	bcf	status, 6	;RP1=0, select bank0
  6050  0CF7  00A0               	movwf	(?_i2c_byte_write)
  6051  0CF8  3000               	movlw	high(0)
  6052  0CF9  00A1               	movwf	((?_i2c_byte_write))+1
  6053  0CFA  307C               	movlw	(07Ch)
  6054  0CFB  00CD               	movwf	(??_fmNo_in+0)+0
  6055  0CFC  084D               	movf	(??_fmNo_in+0)+0,w
  6056  0CFD  00A2               	movwf	0+(?_i2c_byte_write)+02h
  6057  0CFE  01A3               	clrf	0+(?_i2c_byte_write)+03h
  6058  0CFF  3082               	movlw	(082h)
  6059  0D00  00CE               	movwf	(??_fmNo_in+1)+0
  6060  0D01  084E               	movf	(??_fmNo_in+1)+0,w
  6061  0D02  00A4               	movwf	0+(?_i2c_byte_write)+04h
  6062  0D03  01A5               	clrf	0+(?_i2c_byte_write)+05h
  6063  0D04  160A  158A  20C7   	fcall	_i2c_byte_write
              120A  158A         
  6064                           	line	429
  6065                           ;FM_RADIO_main.c: 429: i2c_byte_write(0, 0x7C, 0xC0, 'B', 0);
  6066  0D09  3000               	movlw	low(0)
  6067  0D0A  1283               	bcf	status, 5	;RP0=0, select bank0
  6068  0D0B  1303               	bcf	status, 6	;RP1=0, select bank0
  6069  0D0C  00A0               	movwf	(?_i2c_byte_write)
  6070  0D0D  3000               	movlw	high(0)
  6071  0D0E  00A1               	movwf	((?_i2c_byte_write))+1
  6072  0D0F  307C               	movlw	(07Ch)
  6073  0D10  00CD               	movwf	(??_fmNo_in+0)+0
  6074  0D11  084D               	movf	(??_fmNo_in+0)+0,w
  6075  0D12  00A2               	movwf	0+(?_i2c_byte_write)+02h
  6076  0D13  30C0               	movlw	(0C0h)
  6077  0D14  00CE               	movwf	(??_fmNo_in+1)+0
  6078  0D15  084E               	movf	(??_fmNo_in+1)+0,w
  6079  0D16  00A3               	movwf	0+(?_i2c_byte_write)+03h
  6080  0D17  3042               	movlw	(042h)
  6081  0D18  00CF               	movwf	(??_fmNo_in+2)+0
  6082  0D19  084F               	movf	(??_fmNo_in+2)+0,w
  6083  0D1A  00A4               	movwf	0+(?_i2c_byte_write)+04h
  6084  0D1B  01A5               	clrf	0+(?_i2c_byte_write)+05h
  6085  0D1C  160A  158A  20C7   	fcall	_i2c_byte_write
              120A  158A         
  6086                           	line	430
  6087                           ;FM_RADIO_main.c: 430: i2c_byte_write(0, 0x7C, 0xC0, 'a', 0);
  6088  0D21  3000               	movlw	low(0)
  6089  0D22  1283               	bcf	status, 5	;RP0=0, select bank0
  6090  0D23  1303               	bcf	status, 6	;RP1=0, select bank0
  6091  0D24  00A0               	movwf	(?_i2c_byte_write)
  6092  0D25  3000               	movlw	high(0)
  6093  0D26  00A1               	movwf	((?_i2c_byte_write))+1
  6094  0D27  307C               	movlw	(07Ch)
  6095  0D28  00CD               	movwf	(??_fmNo_in+0)+0
  6096  0D29  084D               	movf	(??_fmNo_in+0)+0,w
  6097  0D2A  00A2               	movwf	0+(?_i2c_byte_write)+02h
  6098  0D2B  30C0               	movlw	(0C0h)
  6099  0D2C  00CE               	movwf	(??_fmNo_in+1)+0
  6100  0D2D  084E               	movf	(??_fmNo_in+1)+0,w
  6101  0D2E  00A3               	movwf	0+(?_i2c_byte_write)+03h
  6102  0D2F  3061               	movlw	(061h)
  6103  0D30  00CF               	movwf	(??_fmNo_in+2)+0
  6104  0D31  084F               	movf	(??_fmNo_in+2)+0,w
  6105  0D32  00A4               	movwf	0+(?_i2c_byte_write)+04h
  6106  0D33  01A5               	clrf	0+(?_i2c_byte_write)+05h
  6107  0D34  160A  158A  20C7   	fcall	_i2c_byte_write
              120A  158A         
  6108                           	line	431
  6109                           ;FM_RADIO_main.c: 431: i2c_byte_write(0, 0x7C, 0xC0, 'c', 0);
  6110  0D39  3000               	movlw	low(0)
  6111  0D3A  1283               	bcf	status, 5	;RP0=0, select bank0
  6112  0D3B  1303               	bcf	status, 6	;RP1=0, select bank0
  6113  0D3C  00A0               	movwf	(?_i2c_byte_write)
  6114  0D3D  3000               	movlw	high(0)
  6115  0D3E  00A1               	movwf	((?_i2c_byte_write))+1
  6116  0D3F  307C               	movlw	(07Ch)
  6117  0D40  00CD               	movwf	(??_fmNo_in+0)+0
  6118  0D41  084D               	movf	(??_fmNo_in+0)+0,w
  6119  0D42  00A2               	movwf	0+(?_i2c_byte_write)+02h
  6120  0D43  30C0               	movlw	(0C0h)
  6121  0D44  00CE               	movwf	(??_fmNo_in+1)+0
  6122  0D45  084E               	movf	(??_fmNo_in+1)+0,w
  6123  0D46  00A3               	movwf	0+(?_i2c_byte_write)+03h
  6124  0D47  3063               	movlw	(063h)
  6125  0D48  00CF               	movwf	(??_fmNo_in+2)+0
  6126  0D49  084F               	movf	(??_fmNo_in+2)+0,w
  6127  0D4A  00A4               	movwf	0+(?_i2c_byte_write)+04h
  6128  0D4B  01A5               	clrf	0+(?_i2c_byte_write)+05h
  6129  0D4C  160A  158A  20C7   	fcall	_i2c_byte_write
              120A  158A         
  6130                           	line	432
  6131                           ;FM_RADIO_main.c: 432: i2c_byte_write(0, 0x7C, 0xC0, 'k', 0);
  6132  0D51  3000               	movlw	low(0)
  6133  0D52  1283               	bcf	status, 5	;RP0=0, select bank0
  6134  0D53  1303               	bcf	status, 6	;RP1=0, select bank0
  6135  0D54  00A0               	movwf	(?_i2c_byte_write)
  6136  0D55  3000               	movlw	high(0)
  6137  0D56  00A1               	movwf	((?_i2c_byte_write))+1
  6138  0D57  307C               	movlw	(07Ch)
  6139  0D58  00CD               	movwf	(??_fmNo_in+0)+0
  6140  0D59  084D               	movf	(??_fmNo_in+0)+0,w
  6141  0D5A  00A2               	movwf	0+(?_i2c_byte_write)+02h
  6142  0D5B  30C0               	movlw	(0C0h)
  6143  0D5C  00CE               	movwf	(??_fmNo_in+1)+0
  6144  0D5D  084E               	movf	(??_fmNo_in+1)+0,w
  6145  0D5E  00A3               	movwf	0+(?_i2c_byte_write)+03h
  6146  0D5F  306B               	movlw	(06Bh)
  6147  0D60  00CF               	movwf	(??_fmNo_in+2)+0
  6148  0D61  084F               	movf	(??_fmNo_in+2)+0,w
  6149  0D62  00A4               	movwf	0+(?_i2c_byte_write)+04h
  6150  0D63  01A5               	clrf	0+(?_i2c_byte_write)+05h
  6151  0D64  160A  158A  20C7   	fcall	_i2c_byte_write
              120A  158A         
  6152                           	line	433
  6153                           ;FM_RADIO_main.c: 433: } else if (endf == 2) {
  6154  0D69  2FD7               	goto	l1220
  6155                           	
  6156  0D6A                     l1221:	
  6157                           	
  6158  0D6A                     l8340:	
  6159  0D6A  3002               	movlw	02h
  6160  0D6B  1283               	bcf	status, 5	;RP0=0, select bank0
  6161  0D6C  1303               	bcf	status, 6	;RP1=0, select bank0
  6162  0D6D  0654               	xorwf	(fmNo_in@endf),w
  6163  0D6E  0455               	iorwf	(fmNo_in@endf+1),w
  6164  0D6F  1D03               	skipz
  6165  0D70  2D72               	goto	u7391
  6166  0D71  2D73               	goto	u7390
  6167  0D72                     u7391:
  6168  0D72  2E00               	goto	l8346
  6169  0D73                     u7390:
  6170                           	line	434
  6171                           	
  6172  0D73                     l8342:	
  6173                           ;FM_RADIO_main.c: 434: i2c_byte_write(0, 0x7C, 0x00, 0x01, 0);
  6174  0D73  3000               	movlw	low(0)
  6175  0D74  00A0               	movwf	(?_i2c_byte_write)
  6176  0D75  3000               	movlw	high(0)
  6177  0D76  00A1               	movwf	((?_i2c_byte_write))+1
  6178  0D77  307C               	movlw	(07Ch)
  6179  0D78  00CD               	movwf	(??_fmNo_in+0)+0
  6180  0D79  084D               	movf	(??_fmNo_in+0)+0,w
  6181  0D7A  00A2               	movwf	0+(?_i2c_byte_write)+02h
  6182  0D7B  01A3               	clrf	0+(?_i2c_byte_write)+03h
  6183  0D7C  01A4               	clrf	0+(?_i2c_byte_write)+04h
  6184  0D7D  1403               	bsf	status,0
  6185  0D7E  0DA4               	rlf	0+(?_i2c_byte_write)+04h,f
  6186  0D7F  01A5               	clrf	0+(?_i2c_byte_write)+05h
  6187  0D80  160A  158A  20C7   	fcall	_i2c_byte_write
              120A  158A         
  6188                           	line	435
  6189                           ;FM_RADIO_main.c: 435: i2c_byte_write(0, 0x7C, 0x00, (0x80 + 0x00), 0);
  6190  0D85  3000               	movlw	low(0)
  6191  0D86  1283               	bcf	status, 5	;RP0=0, select bank0
  6192  0D87  1303               	bcf	status, 6	;RP1=0, select bank0
  6193  0D88  00A0               	movwf	(?_i2c_byte_write)
  6194  0D89  3000               	movlw	high(0)
  6195  0D8A  00A1               	movwf	((?_i2c_byte_write))+1
  6196  0D8B  307C               	movlw	(07Ch)
  6197  0D8C  00CD               	movwf	(??_fmNo_in+0)+0
  6198  0D8D  084D               	movf	(??_fmNo_in+0)+0,w
  6199  0D8E  00A2               	movwf	0+(?_i2c_byte_write)+02h
  6200  0D8F  01A3               	clrf	0+(?_i2c_byte_write)+03h
  6201  0D90  3080               	movlw	(080h)
  6202  0D91  00CE               	movwf	(??_fmNo_in+1)+0
  6203  0D92  084E               	movf	(??_fmNo_in+1)+0,w
  6204  0D93  00A4               	movwf	0+(?_i2c_byte_write)+04h
  6205  0D94  01A5               	clrf	0+(?_i2c_byte_write)+05h
  6206  0D95  160A  158A  20C7   	fcall	_i2c_byte_write
              120A  158A         
  6207                           	line	436
  6208                           ;FM_RADIO_main.c: 436: i2c_byte_write(0, 0x7C, 0xC0, 'B', 0);
  6209  0D9A  3000               	movlw	low(0)
  6210  0D9B  1283               	bcf	status, 5	;RP0=0, select bank0
  6211  0D9C  1303               	bcf	status, 6	;RP1=0, select bank0
  6212  0D9D  00A0               	movwf	(?_i2c_byte_write)
  6213  0D9E  3000               	movlw	high(0)
  6214  0D9F  00A1               	movwf	((?_i2c_byte_write))+1
  6215  0DA0  307C               	movlw	(07Ch)
  6216  0DA1  00CD               	movwf	(??_fmNo_in+0)+0
  6217  0DA2  084D               	movf	(??_fmNo_in+0)+0,w
  6218  0DA3  00A2               	movwf	0+(?_i2c_byte_write)+02h
  6219  0DA4  30C0               	movlw	(0C0h)
  6220  0DA5  00CE               	movwf	(??_fmNo_in+1)+0
  6221  0DA6  084E               	movf	(??_fmNo_in+1)+0,w
  6222  0DA7  00A3               	movwf	0+(?_i2c_byte_write)+03h
  6223  0DA8  3042               	movlw	(042h)
  6224  0DA9  00CF               	movwf	(??_fmNo_in+2)+0
  6225  0DAA  084F               	movf	(??_fmNo_in+2)+0,w
  6226  0DAB  00A4               	movwf	0+(?_i2c_byte_write)+04h
  6227  0DAC  01A5               	clrf	0+(?_i2c_byte_write)+05h
  6228  0DAD  160A  158A  20C7   	fcall	_i2c_byte_write
              120A  158A         
  6229                           	line	437
  6230                           ;FM_RADIO_main.c: 437: i2c_byte_write(0, 0x7C, 0xC0, 'A', 0);
  6231  0DB2  3000               	movlw	low(0)
  6232  0DB3  1283               	bcf	status, 5	;RP0=0, select bank0
  6233  0DB4  1303               	bcf	status, 6	;RP1=0, select bank0
  6234  0DB5  00A0               	movwf	(?_i2c_byte_write)
  6235  0DB6  3000               	movlw	high(0)
  6236  0DB7  00A1               	movwf	((?_i2c_byte_write))+1
  6237  0DB8  307C               	movlw	(07Ch)
  6238  0DB9  00CD               	movwf	(??_fmNo_in+0)+0
  6239  0DBA  084D               	movf	(??_fmNo_in+0)+0,w
  6240  0DBB  00A2               	movwf	0+(?_i2c_byte_write)+02h
  6241  0DBC  30C0               	movlw	(0C0h)
  6242  0DBD  00CE               	movwf	(??_fmNo_in+1)+0
  6243  0DBE  084E               	movf	(??_fmNo_in+1)+0,w
  6244  0DBF  00A3               	movwf	0+(?_i2c_byte_write)+03h
  6245  0DC0  3041               	movlw	(041h)
  6246  0DC1  00CF               	movwf	(??_fmNo_in+2)+0
  6247  0DC2  084F               	movf	(??_fmNo_in+2)+0,w
  6248  0DC3  00A4               	movwf	0+(?_i2c_byte_write)+04h
  6249  0DC4  01A5               	clrf	0+(?_i2c_byte_write)+05h
  6250  0DC5  160A  158A  20C7   	fcall	_i2c_byte_write
              120A  158A         
  6251                           	line	438
  6252                           ;FM_RADIO_main.c: 438: i2c_byte_write(0, 0x7C, 0xC0, 'S', 0);
  6253  0DCA  3000               	movlw	low(0)
  6254  0DCB  1283               	bcf	status, 5	;RP0=0, select bank0
  6255  0DCC  1303               	bcf	status, 6	;RP1=0, select bank0
  6256  0DCD  00A0               	movwf	(?_i2c_byte_write)
  6257  0DCE  3000               	movlw	high(0)
  6258  0DCF  00A1               	movwf	((?_i2c_byte_write))+1
  6259  0DD0  307C               	movlw	(07Ch)
  6260  0DD1  00CD               	movwf	(??_fmNo_in+0)+0
  6261  0DD2  084D               	movf	(??_fmNo_in+0)+0,w
  6262  0DD3  00A2               	movwf	0+(?_i2c_byte_write)+02h
  6263  0DD4  30C0               	movlw	(0C0h)
  6264  0DD5  00CE               	movwf	(??_fmNo_in+1)+0
  6265  0DD6  084E               	movf	(??_fmNo_in+1)+0,w
  6266  0DD7  00A3               	movwf	0+(?_i2c_byte_write)+03h
  6267  0DD8  3053               	movlw	(053h)
  6268  0DD9  00CF               	movwf	(??_fmNo_in+2)+0
  6269  0DDA  084F               	movf	(??_fmNo_in+2)+0,w
  6270  0DDB  00A4               	movwf	0+(?_i2c_byte_write)+04h
  6271  0DDC  01A5               	clrf	0+(?_i2c_byte_write)+05h
  6272  0DDD  160A  158A  20C7   	fcall	_i2c_byte_write
              120A  158A         
  6273                           	line	439
  6274                           ;FM_RADIO_main.c: 439: i2c_byte_write(0, 0x7C, 0xC0, 'S', 0);
  6275  0DE2  3000               	movlw	low(0)
  6276  0DE3  1283               	bcf	status, 5	;RP0=0, select bank0
  6277  0DE4  1303               	bcf	status, 6	;RP1=0, select bank0
  6278  0DE5  00A0               	movwf	(?_i2c_byte_write)
  6279  0DE6  3000               	movlw	high(0)
  6280  0DE7  00A1               	movwf	((?_i2c_byte_write))+1
  6281  0DE8  307C               	movlw	(07Ch)
  6282  0DE9  00CD               	movwf	(??_fmNo_in+0)+0
  6283  0DEA  084D               	movf	(??_fmNo_in+0)+0,w
  6284  0DEB  00A2               	movwf	0+(?_i2c_byte_write)+02h
  6285  0DEC  30C0               	movlw	(0C0h)
  6286  0DED  00CE               	movwf	(??_fmNo_in+1)+0
  6287  0DEE  084E               	movf	(??_fmNo_in+1)+0,w
  6288  0DEF  00A3               	movwf	0+(?_i2c_byte_write)+03h
  6289  0DF0  3053               	movlw	(053h)
  6290  0DF1  00CF               	movwf	(??_fmNo_in+2)+0
  6291  0DF2  084F               	movf	(??_fmNo_in+2)+0,w
  6292  0DF3  00A4               	movwf	0+(?_i2c_byte_write)+04h
  6293  0DF4  01A5               	clrf	0+(?_i2c_byte_write)+05h
  6294  0DF5  160A  158A  20C7   	fcall	_i2c_byte_write
              120A  158A         
  6295                           	line	440
  6296                           	
  6297  0DFA                     l8344:	
  6298                           ;FM_RADIO_main.c: 440: buss_boost();
  6299  0DFA  160A  118A  265B   	fcall	_buss_boost
              120A  158A         
  6300                           	line	441
  6301                           ;FM_RADIO_main.c: 441: } else if (endf == 3) {
  6302  0DFF  2FD7               	goto	l1220
  6303                           	
  6304  0E00                     l1223:	
  6305                           	
  6306  0E00                     l8346:	
  6307  0E00  3003               	movlw	03h
  6308  0E01  1283               	bcf	status, 5	;RP0=0, select bank0
  6309  0E02  1303               	bcf	status, 6	;RP1=0, select bank0
  6310  0E03  0654               	xorwf	(fmNo_in@endf),w
  6311  0E04  0455               	iorwf	(fmNo_in@endf+1),w
  6312  0E05  1D03               	skipz
  6313  0E06  2E08               	goto	u7401
  6314  0E07  2E09               	goto	u7400
  6315  0E08                     u7401:
  6316  0E08  2FD7               	goto	l1220
  6317  0E09                     u7400:
  6318                           	line	442
  6319                           	
  6320  0E09                     l8348:	
  6321                           ;FM_RADIO_main.c: 442: i2c_byte_write(0, 0x7C, 0x00, 0x01, 0);
  6322  0E09  3000               	movlw	low(0)
  6323  0E0A  00A0               	movwf	(?_i2c_byte_write)
  6324  0E0B  3000               	movlw	high(0)
  6325  0E0C  00A1               	movwf	((?_i2c_byte_write))+1
  6326  0E0D  307C               	movlw	(07Ch)
  6327  0E0E  00CD               	movwf	(??_fmNo_in+0)+0
  6328  0E0F  084D               	movf	(??_fmNo_in+0)+0,w
  6329  0E10  00A2               	movwf	0+(?_i2c_byte_write)+02h
  6330  0E11  01A3               	clrf	0+(?_i2c_byte_write)+03h
  6331  0E12  01A4               	clrf	0+(?_i2c_byte_write)+04h
  6332  0E13  1403               	bsf	status,0
  6333  0E14  0DA4               	rlf	0+(?_i2c_byte_write)+04h,f
  6334  0E15  01A5               	clrf	0+(?_i2c_byte_write)+05h
  6335  0E16  160A  158A  20C7   	fcall	_i2c_byte_write
              120A  158A         
  6336                           	line	443
  6337                           ;FM_RADIO_main.c: 443: i2c_byte_write(0, 0x7C, 0x00, (0x80 + 0x01), 0);
  6338  0E1B  3000               	movlw	low(0)
  6339  0E1C  1283               	bcf	status, 5	;RP0=0, select bank0
  6340  0E1D  1303               	bcf	status, 6	;RP1=0, select bank0
  6341  0E1E  00A0               	movwf	(?_i2c_byte_write)
  6342  0E1F  3000               	movlw	high(0)
  6343  0E20  00A1               	movwf	((?_i2c_byte_write))+1
  6344  0E21  307C               	movlw	(07Ch)
  6345  0E22  00CD               	movwf	(??_fmNo_in+0)+0
  6346  0E23  084D               	movf	(??_fmNo_in+0)+0,w
  6347  0E24  00A2               	movwf	0+(?_i2c_byte_write)+02h
  6348  0E25  01A3               	clrf	0+(?_i2c_byte_write)+03h
  6349  0E26  3081               	movlw	(081h)
  6350  0E27  00CE               	movwf	(??_fmNo_in+1)+0
  6351  0E28  084E               	movf	(??_fmNo_in+1)+0,w
  6352  0E29  00A4               	movwf	0+(?_i2c_byte_write)+04h
  6353  0E2A  01A5               	clrf	0+(?_i2c_byte_write)+05h
  6354  0E2B  160A  158A  20C7   	fcall	_i2c_byte_write
              120A  158A         
  6355                           	line	444
  6356                           ;FM_RADIO_main.c: 444: i2c_byte_write(0, 0x7C, 0xC0, 'S', 0);
  6357  0E30  3000               	movlw	low(0)
  6358  0E31  1283               	bcf	status, 5	;RP0=0, select bank0
  6359  0E32  1303               	bcf	status, 6	;RP1=0, select bank0
  6360  0E33  00A0               	movwf	(?_i2c_byte_write)
  6361  0E34  3000               	movlw	high(0)
  6362  0E35  00A1               	movwf	((?_i2c_byte_write))+1
  6363  0E36  307C               	movlw	(07Ch)
  6364  0E37  00CD               	movwf	(??_fmNo_in+0)+0
  6365  0E38  084D               	movf	(??_fmNo_in+0)+0,w
  6366  0E39  00A2               	movwf	0+(?_i2c_byte_write)+02h
  6367  0E3A  30C0               	movlw	(0C0h)
  6368  0E3B  00CE               	movwf	(??_fmNo_in+1)+0
  6369  0E3C  084E               	movf	(??_fmNo_in+1)+0,w
  6370  0E3D  00A3               	movwf	0+(?_i2c_byte_write)+03h
  6371  0E3E  3053               	movlw	(053h)
  6372  0E3F  00CF               	movwf	(??_fmNo_in+2)+0
  6373  0E40  084F               	movf	(??_fmNo_in+2)+0,w
  6374  0E41  00A4               	movwf	0+(?_i2c_byte_write)+04h
  6375  0E42  01A5               	clrf	0+(?_i2c_byte_write)+05h
  6376  0E43  160A  158A  20C7   	fcall	_i2c_byte_write
              120A  158A         
  6377                           	line	445
  6378                           ;FM_RADIO_main.c: 445: i2c_byte_write(0, 0x7C, 0xC0, 'N', 0);
  6379  0E48  3000               	movlw	low(0)
  6380  0E49  1283               	bcf	status, 5	;RP0=0, select bank0
  6381  0E4A  1303               	bcf	status, 6	;RP1=0, select bank0
  6382  0E4B  00A0               	movwf	(?_i2c_byte_write)
  6383  0E4C  3000               	movlw	high(0)
  6384  0E4D  00A1               	movwf	((?_i2c_byte_write))+1
  6385  0E4E  307C               	movlw	(07Ch)
  6386  0E4F  00CD               	movwf	(??_fmNo_in+0)+0
  6387  0E50  084D               	movf	(??_fmNo_in+0)+0,w
  6388  0E51  00A2               	movwf	0+(?_i2c_byte_write)+02h
  6389  0E52  30C0               	movlw	(0C0h)
  6390  0E53  00CE               	movwf	(??_fmNo_in+1)+0
  6391  0E54  084E               	movf	(??_fmNo_in+1)+0,w
  6392  0E55  00A3               	movwf	0+(?_i2c_byte_write)+03h
  6393  0E56  304E               	movlw	(04Eh)
  6394  0E57  00CF               	movwf	(??_fmNo_in+2)+0
  6395  0E58  084F               	movf	(??_fmNo_in+2)+0,w
  6396  0E59  00A4               	movwf	0+(?_i2c_byte_write)+04h
  6397  0E5A  01A5               	clrf	0+(?_i2c_byte_write)+05h
  6398  0E5B  160A  158A  20C7   	fcall	_i2c_byte_write
              120A  158A         
  6399                           	line	446
  6400                           ;FM_RADIO_main.c: 446: i2c_byte_write(0, 0x7C, 0xC0, 'R', 0);
  6401  0E60  3000               	movlw	low(0)
  6402  0E61  1283               	bcf	status, 5	;RP0=0, select bank0
  6403  0E62  1303               	bcf	status, 6	;RP1=0, select bank0
  6404  0E63  00A0               	movwf	(?_i2c_byte_write)
  6405  0E64  3000               	movlw	high(0)
  6406  0E65  00A1               	movwf	((?_i2c_byte_write))+1
  6407  0E66  307C               	movlw	(07Ch)
  6408  0E67  00CD               	movwf	(??_fmNo_in+0)+0
  6409  0E68  084D               	movf	(??_fmNo_in+0)+0,w
  6410  0E69  00A2               	movwf	0+(?_i2c_byte_write)+02h
  6411  0E6A  30C0               	movlw	(0C0h)
  6412  0E6B  00CE               	movwf	(??_fmNo_in+1)+0
  6413  0E6C  084E               	movf	(??_fmNo_in+1)+0,w
  6414  0E6D  00A3               	movwf	0+(?_i2c_byte_write)+03h
  6415  0E6E  3052               	movlw	(052h)
  6416  0E6F  00CF               	movwf	(??_fmNo_in+2)+0
  6417  0E70  084F               	movf	(??_fmNo_in+2)+0,w
  6418  0E71  00A4               	movwf	0+(?_i2c_byte_write)+04h
  6419  0E72  01A5               	clrf	0+(?_i2c_byte_write)+05h
  6420  0E73  160A  158A  20C7   	fcall	_i2c_byte_write
              120A  158A         
  6421                           	line	447
  6422                           ;FM_RADIO_main.c: 447: i2c_byte_write(0, 0x7C, 0x00, (0x80 + 0x42), 0);
  6423  0E78  3000               	movlw	low(0)
  6424  0E79  1283               	bcf	status, 5	;RP0=0, select bank0
  6425  0E7A  1303               	bcf	status, 6	;RP1=0, select bank0
  6426  0E7B  00A0               	movwf	(?_i2c_byte_write)
  6427  0E7C  3000               	movlw	high(0)
  6428  0E7D  00A1               	movwf	((?_i2c_byte_write))+1
  6429  0E7E  307C               	movlw	(07Ch)
  6430  0E7F  00CD               	movwf	(??_fmNo_in+0)+0
  6431  0E80  084D               	movf	(??_fmNo_in+0)+0,w
  6432  0E81  00A2               	movwf	0+(?_i2c_byte_write)+02h
  6433  0E82  01A3               	clrf	0+(?_i2c_byte_write)+03h
  6434  0E83  30C2               	movlw	(0C2h)
  6435  0E84  00CE               	movwf	(??_fmNo_in+1)+0
  6436  0E85  084E               	movf	(??_fmNo_in+1)+0,w
  6437  0E86  00A4               	movwf	0+(?_i2c_byte_write)+04h
  6438  0E87  01A5               	clrf	0+(?_i2c_byte_write)+05h
  6439  0E88  160A  158A  20C7   	fcall	_i2c_byte_write
              120A  158A         
  6440                           	line	448
  6441                           ;FM_RADIO_main.c: 448: i2c_byte_write(0, 0x7C, 0xC0, 'S', 0);
  6442  0E8D  3000               	movlw	low(0)
  6443  0E8E  1283               	bcf	status, 5	;RP0=0, select bank0
  6444  0E8F  1303               	bcf	status, 6	;RP1=0, select bank0
  6445  0E90  00A0               	movwf	(?_i2c_byte_write)
  6446  0E91  3000               	movlw	high(0)
  6447  0E92  00A1               	movwf	((?_i2c_byte_write))+1
  6448  0E93  307C               	movlw	(07Ch)
  6449  0E94  00CD               	movwf	(??_fmNo_in+0)+0
  6450  0E95  084D               	movf	(??_fmNo_in+0)+0,w
  6451  0E96  00A2               	movwf	0+(?_i2c_byte_write)+02h
  6452  0E97  30C0               	movlw	(0C0h)
  6453  0E98  00CE               	movwf	(??_fmNo_in+1)+0
  6454  0E99  084E               	movf	(??_fmNo_in+1)+0,w
  6455  0E9A  00A3               	movwf	0+(?_i2c_byte_write)+03h
  6456  0E9B  3053               	movlw	(053h)
  6457  0E9C  00CF               	movwf	(??_fmNo_in+2)+0
  6458  0E9D  084F               	movf	(??_fmNo_in+2)+0,w
  6459  0E9E  00A4               	movwf	0+(?_i2c_byte_write)+04h
  6460  0E9F  01A5               	clrf	0+(?_i2c_byte_write)+05h
  6461  0EA0  160A  158A  20C7   	fcall	_i2c_byte_write
              120A  158A         
  6462                           	line	449
  6463                           ;FM_RADIO_main.c: 449: i2c_byte_write(0, 0x7C, 0xC0, 'N', 0);
  6464  0EA5  3000               	movlw	low(0)
  6465  0EA6  1283               	bcf	status, 5	;RP0=0, select bank0
  6466  0EA7  1303               	bcf	status, 6	;RP1=0, select bank0
  6467  0EA8  00A0               	movwf	(?_i2c_byte_write)
  6468  0EA9  3000               	movlw	high(0)
  6469  0EAA  00A1               	movwf	((?_i2c_byte_write))+1
  6470  0EAB  307C               	movlw	(07Ch)
  6471  0EAC  00CD               	movwf	(??_fmNo_in+0)+0
  6472  0EAD  084D               	movf	(??_fmNo_in+0)+0,w
  6473  0EAE  00A2               	movwf	0+(?_i2c_byte_write)+02h
  6474  0EAF  30C0               	movlw	(0C0h)
  6475  0EB0  00CE               	movwf	(??_fmNo_in+1)+0
  6476  0EB1  084E               	movf	(??_fmNo_in+1)+0,w
  6477  0EB2  00A3               	movwf	0+(?_i2c_byte_write)+03h
  6478  0EB3  304E               	movlw	(04Eh)
  6479  0EB4  00CF               	movwf	(??_fmNo_in+2)+0
  6480  0EB5  084F               	movf	(??_fmNo_in+2)+0,w
  6481  0EB6  00A4               	movwf	0+(?_i2c_byte_write)+04h
  6482  0EB7  01A5               	clrf	0+(?_i2c_byte_write)+05h
  6483  0EB8  160A  158A  20C7   	fcall	_i2c_byte_write
              120A  158A         
  6484                           	line	450
  6485                           	
  6486  0EBD                     l8350:	
  6487                           ;FM_RADIO_main.c: 450: seek_SNR();
  6488  0EBD  160A  118A  2318   	fcall	_seek_SNR
              120A  158A         
  6489                           	line	451
  6490                           	
  6491  0EC2                     l8352:	
  6492                           ;FM_RADIO_main.c: 451: _delay((unsigned long)((1000)*(4000000/4000.0)));
  6493                           	opt asmopt_off
  6494  0EC2  3006               movlw  6
  6495  0EC3  1283               	bcf	status, 5	;RP0=0, select bank0
  6496  0EC4  1303               	bcf	status, 6	;RP1=0, select bank0
  6497  0EC5  00CF               movwf	((??_fmNo_in+0)+0+2),f
  6498  0EC6  3013               movlw	19
  6499  0EC7  00CE               movwf	((??_fmNo_in+0)+0+1),f
  6500  0EC8  30B1               	movlw	177
  6501  0EC9  00CD               movwf	((??_fmNo_in+0)+0),f
  6502  0ECA                     u8127:
  6503  0ECA  0BCD               	decfsz	((??_fmNo_in+0)+0),f
  6504  0ECB  2ECA               	goto	u8127
  6505  0ECC  0BCE               	decfsz	((??_fmNo_in+0)+0+1),f
  6506  0ECD  2ECA               	goto	u8127
  6507  0ECE  0BCF               	decfsz	((??_fmNo_in+0)+0+2),f
  6508  0ECF  2ECA               	goto	u8127
  6509  0ED0  2ED1               	nop2
  6510                           opt asmopt_on
  6511                           
  6512                           	line	452
  6513                           	
  6514  0ED1                     l8354:	
  6515                           ;FM_RADIO_main.c: 452: i2c_byte_write(0, 0x7C, 0x00, 0x01, 0);
  6516  0ED1  3000               	movlw	low(0)
  6517  0ED2  1283               	bcf	status, 5	;RP0=0, select bank0
  6518  0ED3  1303               	bcf	status, 6	;RP1=0, select bank0
  6519  0ED4  00A0               	movwf	(?_i2c_byte_write)
  6520  0ED5  3000               	movlw	high(0)
  6521  0ED6  00A1               	movwf	((?_i2c_byte_write))+1
  6522  0ED7  307C               	movlw	(07Ch)
  6523  0ED8  00CD               	movwf	(??_fmNo_in+0)+0
  6524  0ED9  084D               	movf	(??_fmNo_in+0)+0,w
  6525  0EDA  00A2               	movwf	0+(?_i2c_byte_write)+02h
  6526  0EDB  01A3               	clrf	0+(?_i2c_byte_write)+03h
  6527  0EDC  01A4               	clrf	0+(?_i2c_byte_write)+04h
  6528  0EDD  1403               	bsf	status,0
  6529  0EDE  0DA4               	rlf	0+(?_i2c_byte_write)+04h,f
  6530  0EDF  01A5               	clrf	0+(?_i2c_byte_write)+05h
  6531  0EE0  160A  158A  20C7   	fcall	_i2c_byte_write
              120A  158A         
  6532                           	line	453
  6533                           	
  6534  0EE5                     l8356:	
  6535                           ;FM_RADIO_main.c: 453: i2c_byte_write(0, 0x7C, 0x00, (0x80 + 0x00), 0);
  6536  0EE5  3000               	movlw	low(0)
  6537  0EE6  1283               	bcf	status, 5	;RP0=0, select bank0
  6538  0EE7  1303               	bcf	status, 6	;RP1=0, select bank0
  6539  0EE8  00A0               	movwf	(?_i2c_byte_write)
  6540  0EE9  3000               	movlw	high(0)
  6541  0EEA  00A1               	movwf	((?_i2c_byte_write))+1
  6542  0EEB  307C               	movlw	(07Ch)
  6543  0EEC  00CD               	movwf	(??_fmNo_in+0)+0
  6544  0EED  084D               	movf	(??_fmNo_in+0)+0,w
  6545  0EEE  00A2               	movwf	0+(?_i2c_byte_write)+02h
  6546  0EEF  01A3               	clrf	0+(?_i2c_byte_write)+03h
  6547  0EF0  3080               	movlw	(080h)
  6548  0EF1  00CE               	movwf	(??_fmNo_in+1)+0
  6549  0EF2  084E               	movf	(??_fmNo_in+1)+0,w
  6550  0EF3  00A4               	movwf	0+(?_i2c_byte_write)+04h
  6551  0EF4  01A5               	clrf	0+(?_i2c_byte_write)+05h
  6552  0EF5  160A  158A  20C7   	fcall	_i2c_byte_write
              120A  158A         
  6553                           	line	454
  6554                           	
  6555  0EFA                     l8358:	
  6556                           ;FM_RADIO_main.c: 454: i2c_byte_write(0, 0x7C, 0xC0, 'R', 0);
  6557  0EFA  3000               	movlw	low(0)
  6558  0EFB  1283               	bcf	status, 5	;RP0=0, select bank0
  6559  0EFC  1303               	bcf	status, 6	;RP1=0, select bank0
  6560  0EFD  00A0               	movwf	(?_i2c_byte_write)
  6561  0EFE  3000               	movlw	high(0)
  6562  0EFF  00A1               	movwf	((?_i2c_byte_write))+1
  6563  0F00  307C               	movlw	(07Ch)
  6564  0F01  00CD               	movwf	(??_fmNo_in+0)+0
  6565  0F02  084D               	movf	(??_fmNo_in+0)+0,w
  6566  0F03  00A2               	movwf	0+(?_i2c_byte_write)+02h
  6567  0F04  30C0               	movlw	(0C0h)
  6568  0F05  00CE               	movwf	(??_fmNo_in+1)+0
  6569  0F06  084E               	movf	(??_fmNo_in+1)+0,w
  6570  0F07  00A3               	movwf	0+(?_i2c_byte_write)+03h
  6571  0F08  3052               	movlw	(052h)
  6572  0F09  00CF               	movwf	(??_fmNo_in+2)+0
  6573  0F0A  084F               	movf	(??_fmNo_in+2)+0,w
  6574  0F0B  00A4               	movwf	0+(?_i2c_byte_write)+04h
  6575  0F0C  01A5               	clrf	0+(?_i2c_byte_write)+05h
  6576  0F0D  160A  158A  20C7   	fcall	_i2c_byte_write
              120A  158A         
  6577                           	line	455
  6578                           	
  6579  0F12                     l8360:	
  6580                           ;FM_RADIO_main.c: 455: i2c_byte_write(0, 0x7C, 0xC0, 'S', 0);
  6581  0F12  3000               	movlw	low(0)
  6582  0F13  1283               	bcf	status, 5	;RP0=0, select bank0
  6583  0F14  1303               	bcf	status, 6	;RP1=0, select bank0
  6584  0F15  00A0               	movwf	(?_i2c_byte_write)
  6585  0F16  3000               	movlw	high(0)
  6586  0F17  00A1               	movwf	((?_i2c_byte_write))+1
  6587  0F18  307C               	movlw	(07Ch)
  6588  0F19  00CD               	movwf	(??_fmNo_in+0)+0
  6589  0F1A  084D               	movf	(??_fmNo_in+0)+0,w
  6590  0F1B  00A2               	movwf	0+(?_i2c_byte_write)+02h
  6591  0F1C  30C0               	movlw	(0C0h)
  6592  0F1D  00CE               	movwf	(??_fmNo_in+1)+0
  6593  0F1E  084E               	movf	(??_fmNo_in+1)+0,w
  6594  0F1F  00A3               	movwf	0+(?_i2c_byte_write)+03h
  6595  0F20  3053               	movlw	(053h)
  6596  0F21  00CF               	movwf	(??_fmNo_in+2)+0
  6597  0F22  084F               	movf	(??_fmNo_in+2)+0,w
  6598  0F23  00A4               	movwf	0+(?_i2c_byte_write)+04h
  6599  0F24  01A5               	clrf	0+(?_i2c_byte_write)+05h
  6600  0F25  160A  158A  20C7   	fcall	_i2c_byte_write
              120A  158A         
  6601                           	line	456
  6602                           	
  6603  0F2A                     l8362:	
  6604                           ;FM_RADIO_main.c: 456: i2c_byte_write(0, 0x7C, 0xC0, 'S', 0);
  6605  0F2A  3000               	movlw	low(0)
  6606  0F2B  1283               	bcf	status, 5	;RP0=0, select bank0
  6607  0F2C  1303               	bcf	status, 6	;RP1=0, select bank0
  6608  0F2D  00A0               	movwf	(?_i2c_byte_write)
  6609  0F2E  3000               	movlw	high(0)
  6610  0F2F  00A1               	movwf	((?_i2c_byte_write))+1
  6611  0F30  307C               	movlw	(07Ch)
  6612  0F31  00CD               	movwf	(??_fmNo_in+0)+0
  6613  0F32  084D               	movf	(??_fmNo_in+0)+0,w
  6614  0F33  00A2               	movwf	0+(?_i2c_byte_write)+02h
  6615  0F34  30C0               	movlw	(0C0h)
  6616  0F35  00CE               	movwf	(??_fmNo_in+1)+0
  6617  0F36  084E               	movf	(??_fmNo_in+1)+0,w
  6618  0F37  00A3               	movwf	0+(?_i2c_byte_write)+03h
  6619  0F38  3053               	movlw	(053h)
  6620  0F39  00CF               	movwf	(??_fmNo_in+2)+0
  6621  0F3A  084F               	movf	(??_fmNo_in+2)+0,w
  6622  0F3B  00A4               	movwf	0+(?_i2c_byte_write)+04h
  6623  0F3C  01A5               	clrf	0+(?_i2c_byte_write)+05h
  6624  0F3D  160A  158A  20C7   	fcall	_i2c_byte_write
              120A  158A         
  6625                           	line	457
  6626                           	
  6627  0F42                     l8364:	
  6628                           ;FM_RADIO_main.c: 457: i2c_byte_write(0, 0x7C, 0xC0, 'I', 0);
  6629  0F42  3000               	movlw	low(0)
  6630  0F43  1283               	bcf	status, 5	;RP0=0, select bank0
  6631  0F44  1303               	bcf	status, 6	;RP1=0, select bank0
  6632  0F45  00A0               	movwf	(?_i2c_byte_write)
  6633  0F46  3000               	movlw	high(0)
  6634  0F47  00A1               	movwf	((?_i2c_byte_write))+1
  6635  0F48  307C               	movlw	(07Ch)
  6636  0F49  00CD               	movwf	(??_fmNo_in+0)+0
  6637  0F4A  084D               	movf	(??_fmNo_in+0)+0,w
  6638  0F4B  00A2               	movwf	0+(?_i2c_byte_write)+02h
  6639  0F4C  30C0               	movlw	(0C0h)
  6640  0F4D  00CE               	movwf	(??_fmNo_in+1)+0
  6641  0F4E  084E               	movf	(??_fmNo_in+1)+0,w
  6642  0F4F  00A3               	movwf	0+(?_i2c_byte_write)+03h
  6643  0F50  3049               	movlw	(049h)
  6644  0F51  00CF               	movwf	(??_fmNo_in+2)+0
  6645  0F52  084F               	movf	(??_fmNo_in+2)+0,w
  6646  0F53  00A4               	movwf	0+(?_i2c_byte_write)+04h
  6647  0F54  01A5               	clrf	0+(?_i2c_byte_write)+05h
  6648  0F55  160A  158A  20C7   	fcall	_i2c_byte_write
              120A  158A         
  6649                           	line	458
  6650                           	
  6651  0F5A                     l8366:	
  6652                           ;FM_RADIO_main.c: 458: i2c_byte_write(0, 0x7C, 0x00, (0x80 + 0x42), 0);
  6653  0F5A  3000               	movlw	low(0)
  6654  0F5B  1283               	bcf	status, 5	;RP0=0, select bank0
  6655  0F5C  1303               	bcf	status, 6	;RP1=0, select bank0
  6656  0F5D  00A0               	movwf	(?_i2c_byte_write)
  6657  0F5E  3000               	movlw	high(0)
  6658  0F5F  00A1               	movwf	((?_i2c_byte_write))+1
  6659  0F60  307C               	movlw	(07Ch)
  6660  0F61  00CD               	movwf	(??_fmNo_in+0)+0
  6661  0F62  084D               	movf	(??_fmNo_in+0)+0,w
  6662  0F63  00A2               	movwf	0+(?_i2c_byte_write)+02h
  6663  0F64  01A3               	clrf	0+(?_i2c_byte_write)+03h
  6664  0F65  30C2               	movlw	(0C2h)
  6665  0F66  00CE               	movwf	(??_fmNo_in+1)+0
  6666  0F67  084E               	movf	(??_fmNo_in+1)+0,w
  6667  0F68  00A4               	movwf	0+(?_i2c_byte_write)+04h
  6668  0F69  01A5               	clrf	0+(?_i2c_byte_write)+05h
  6669  0F6A  160A  158A  20C7   	fcall	_i2c_byte_write
              120A  158A         
  6670                           	line	459
  6671                           	
  6672  0F6F                     l8368:	
  6673                           ;FM_RADIO_main.c: 459: i2c_byte_write(0, 0x7C, 0xC0, '-', 0);
  6674  0F6F  3000               	movlw	low(0)
  6675  0F70  1283               	bcf	status, 5	;RP0=0, select bank0
  6676  0F71  1303               	bcf	status, 6	;RP1=0, select bank0
  6677  0F72  00A0               	movwf	(?_i2c_byte_write)
  6678  0F73  3000               	movlw	high(0)
  6679  0F74  00A1               	movwf	((?_i2c_byte_write))+1
  6680  0F75  307C               	movlw	(07Ch)
  6681  0F76  00CD               	movwf	(??_fmNo_in+0)+0
  6682  0F77  084D               	movf	(??_fmNo_in+0)+0,w
  6683  0F78  00A2               	movwf	0+(?_i2c_byte_write)+02h
  6684  0F79  30C0               	movlw	(0C0h)
  6685  0F7A  00CE               	movwf	(??_fmNo_in+1)+0
  6686  0F7B  084E               	movf	(??_fmNo_in+1)+0,w
  6687  0F7C  00A3               	movwf	0+(?_i2c_byte_write)+03h
  6688  0F7D  302D               	movlw	(02Dh)
  6689  0F7E  00CF               	movwf	(??_fmNo_in+2)+0
  6690  0F7F  084F               	movf	(??_fmNo_in+2)+0,w
  6691  0F80  00A4               	movwf	0+(?_i2c_byte_write)+04h
  6692  0F81  01A5               	clrf	0+(?_i2c_byte_write)+05h
  6693  0F82  160A  158A  20C7   	fcall	_i2c_byte_write
              120A  158A         
  6694                           	line	460
  6695                           	
  6696  0F87                     l8370:	
  6697                           ;FM_RADIO_main.c: 460: i2c_byte_write(0, 0x7C, 0xC0, '1', 0);
  6698  0F87  3000               	movlw	low(0)
  6699  0F88  1283               	bcf	status, 5	;RP0=0, select bank0
  6700  0F89  1303               	bcf	status, 6	;RP1=0, select bank0
  6701  0F8A  00A0               	movwf	(?_i2c_byte_write)
  6702  0F8B  3000               	movlw	high(0)
  6703  0F8C  00A1               	movwf	((?_i2c_byte_write))+1
  6704  0F8D  307C               	movlw	(07Ch)
  6705  0F8E  00CD               	movwf	(??_fmNo_in+0)+0
  6706  0F8F  084D               	movf	(??_fmNo_in+0)+0,w
  6707  0F90  00A2               	movwf	0+(?_i2c_byte_write)+02h
  6708  0F91  30C0               	movlw	(0C0h)
  6709  0F92  00CE               	movwf	(??_fmNo_in+1)+0
  6710  0F93  084E               	movf	(??_fmNo_in+1)+0,w
  6711  0F94  00A3               	movwf	0+(?_i2c_byte_write)+03h
  6712  0F95  3031               	movlw	(031h)
  6713  0F96  00CF               	movwf	(??_fmNo_in+2)+0
  6714  0F97  084F               	movf	(??_fmNo_in+2)+0,w
  6715  0F98  00A4               	movwf	0+(?_i2c_byte_write)+04h
  6716  0F99  01A5               	clrf	0+(?_i2c_byte_write)+05h
  6717  0F9A  160A  158A  20C7   	fcall	_i2c_byte_write
              120A  158A         
  6718                           	line	461
  6719                           	
  6720  0F9F                     l8372:	
  6721                           ;FM_RADIO_main.c: 461: i2c_byte_write(0, 0x7C, 0xC0, '0', 0);
  6722  0F9F  3000               	movlw	low(0)
  6723  0FA0  1283               	bcf	status, 5	;RP0=0, select bank0
  6724  0FA1  1303               	bcf	status, 6	;RP1=0, select bank0
  6725  0FA2  00A0               	movwf	(?_i2c_byte_write)
  6726  0FA3  3000               	movlw	high(0)
  6727  0FA4  00A1               	movwf	((?_i2c_byte_write))+1
  6728  0FA5  307C               	movlw	(07Ch)
  6729  0FA6  00CD               	movwf	(??_fmNo_in+0)+0
  6730  0FA7  084D               	movf	(??_fmNo_in+0)+0,w
  6731  0FA8  00A2               	movwf	0+(?_i2c_byte_write)+02h
  6732  0FA9  30C0               	movlw	(0C0h)
  6733  0FAA  00CE               	movwf	(??_fmNo_in+1)+0
  6734  0FAB  084E               	movf	(??_fmNo_in+1)+0,w
  6735  0FAC  00A3               	movwf	0+(?_i2c_byte_write)+03h
  6736  0FAD  3030               	movlw	(030h)
  6737  0FAE  00CF               	movwf	(??_fmNo_in+2)+0
  6738  0FAF  084F               	movf	(??_fmNo_in+2)+0,w
  6739  0FB0  00A4               	movwf	0+(?_i2c_byte_write)+04h
  6740  0FB1  01A5               	clrf	0+(?_i2c_byte_write)+05h
  6741  0FB2  160A  158A  20C7   	fcall	_i2c_byte_write
              120A  158A         
  6742                           	line	462
  6743                           	
  6744  0FB7                     l8374:	
  6745                           ;FM_RADIO_main.c: 462: i2c_byte_write(0, 0x7C, 0xC0, '0', 0);
  6746  0FB7  3000               	movlw	low(0)
  6747  0FB8  1283               	bcf	status, 5	;RP0=0, select bank0
  6748  0FB9  1303               	bcf	status, 6	;RP1=0, select bank0
  6749  0FBA  00A0               	movwf	(?_i2c_byte_write)
  6750  0FBB  3000               	movlw	high(0)
  6751  0FBC  00A1               	movwf	((?_i2c_byte_write))+1
  6752  0FBD  307C               	movlw	(07Ch)
  6753  0FBE  00CD               	movwf	(??_fmNo_in+0)+0
  6754  0FBF  084D               	movf	(??_fmNo_in+0)+0,w
  6755  0FC0  00A2               	movwf	0+(?_i2c_byte_write)+02h
  6756  0FC1  30C0               	movlw	(0C0h)
  6757  0FC2  00CE               	movwf	(??_fmNo_in+1)+0
  6758  0FC3  084E               	movf	(??_fmNo_in+1)+0,w
  6759  0FC4  00A3               	movwf	0+(?_i2c_byte_write)+03h
  6760  0FC5  3030               	movlw	(030h)
  6761  0FC6  00CF               	movwf	(??_fmNo_in+2)+0
  6762  0FC7  084F               	movf	(??_fmNo_in+2)+0,w
  6763  0FC8  00A4               	movwf	0+(?_i2c_byte_write)+04h
  6764  0FC9  01A5               	clrf	0+(?_i2c_byte_write)+05h
  6765  0FCA  160A  158A  20C7   	fcall	_i2c_byte_write
              120A  158A         
  6766                           	line	463
  6767                           	
  6768  0FCF                     l8376:	
  6769                           ;FM_RADIO_main.c: 463: seek_RSSI();
  6770  0FCF  160A  118A  24B9   	fcall	_seek_RSSI
              120A  158A         
  6771  0FD4  2FD7               	goto	l1220
  6772                           	line	464
  6773                           	
  6774  0FD5                     l1225:	
  6775  0FD5  2FD7               	goto	l1220
  6776                           	line	465
  6777                           	
  6778  0FD6                     l1224:	
  6779  0FD6  2FD7               	goto	l1220
  6780                           	
  6781  0FD7                     l1222:	
  6782                           	
  6783  0FD7                     l1220:	
  6784                           ;FM_RADIO_main.c: 464: }
  6785                           ;FM_RADIO_main.c: 465: _delay((unsigned long)((1000)*(4000000/4000.0)));
  6786                           	opt asmopt_off
  6787  0FD7  3006               movlw  6
  6788  0FD8  1283               	bcf	status, 5	;RP0=0, select bank0
  6789  0FD9  1303               	bcf	status, 6	;RP1=0, select bank0
  6790  0FDA  00CF               movwf	((??_fmNo_in+0)+0+2),f
  6791  0FDB  3013               movlw	19
  6792  0FDC  00CE               movwf	((??_fmNo_in+0)+0+1),f
  6793  0FDD  30B1               	movlw	177
  6794  0FDE  00CD               movwf	((??_fmNo_in+0)+0),f
  6795  0FDF                     u8137:
  6796  0FDF  0BCD               	decfsz	((??_fmNo_in+0)+0),f
  6797  0FE0  2FDF               	goto	u8137
  6798  0FE1  0BCE               	decfsz	((??_fmNo_in+0)+0+1),f
  6799  0FE2  2FDF               	goto	u8137
  6800  0FE3  0BCF               	decfsz	((??_fmNo_in+0)+0+2),f
  6801  0FE4  2FDF               	goto	u8137
  6802  0FE5  2FE6               	nop2
  6803                           opt asmopt_on
  6804                           
  6805                           	line	466
  6806                           	
  6807  0FE6                     l8378:	
  6808                           ;FM_RADIO_main.c: 466: i2c_byte_write(0, 0x7C, 0x00, 0x01, 0);
  6809  0FE6  3000               	movlw	low(0)
  6810  0FE7  1283               	bcf	status, 5	;RP0=0, select bank0
  6811  0FE8  1303               	bcf	status, 6	;RP1=0, select bank0
  6812  0FE9  00A0               	movwf	(?_i2c_byte_write)
  6813  0FEA  3000               	movlw	high(0)
  6814  0FEB  00A1               	movwf	((?_i2c_byte_write))+1
  6815  0FEC  307C               	movlw	(07Ch)
  6816  0FED  00CD               	movwf	(??_fmNo_in+0)+0
  6817  0FEE  084D               	movf	(??_fmNo_in+0)+0,w
  6818  0FEF  00A2               	movwf	0+(?_i2c_byte_write)+02h
  6819  0FF0  01A3               	clrf	0+(?_i2c_byte_write)+03h
  6820  0FF1  01A4               	clrf	0+(?_i2c_byte_write)+04h
  6821  0FF2  1403               	bsf	status,0
  6822  0FF3  0DA4               	rlf	0+(?_i2c_byte_write)+04h,f
  6823  0FF4  01A5               	clrf	0+(?_i2c_byte_write)+05h
  6824  0FF5  160A  158A  20C7   	fcall	_i2c_byte_write
              120A  158A         
  6825                           	line	467
  6826                           	
  6827  0FFA                     l8380:	
  6828                           ;FM_RADIO_main.c: 467: start_LCD_POINT();
  6829  0FFA  160A  158A  25C1   	fcall	_start_LCD_POINT
              120A  158A         
  6830                           	line	468
  6831                           	
  6832  0FFF                     l1226:	
  6833  0FFF  0008               	return
  6834                           	opt stack 0
  6835                           GLOBAL	__end_of_fmNo_in
  6836  1000                     	__end_of_fmNo_in:
  6837 ;; =============== function _fmNo_in ends ============
  6838                           
  6839                           	signat	_fmNo_in,8314
  6840                           	global	_fm_serch
  6841                           psect	text899,local,class=CODE,delta=2
  6842                           global __ptext899
  6843  1185                     __ptext899:
  6844                           
  6845 ;; *************** function _fm_serch *****************
  6846 ;; Defined at:
  6847 ;;		line 470 in file "FM_RADIO_main.c"
  6848 ;; Parameters:    Size  Location     Type
  6849 ;;  sel             2   34[BANK0 ] int 
  6850 ;;  fcon            2   36[BANK0 ] int 
  6851 ;; Auto vars:     Size  Location     Type
  6852 ;;  aSERC_1         2   56[BANK0 ] int 
  6853 ;;  endrssi         2   54[BANK0 ] int 
  6854 ;;  endf            2   52[BANK0 ] int 
  6855 ;;  RSSI            2   50[BANK0 ] int 
  6856 ;;  memSNR          2   48[BANK0 ] int 
  6857 ;; Return value:  Size  Location     Type
  6858 ;;                  2   34[BANK0 ] int 
  6859 ;; Registers used:
  6860 ;;		wreg, fsr0l, fsr0h, status,2, status,0, btemp+1, pclath, cstack
  6861 ;; Tracked objects:
  6862 ;;		On entry : 0/0
  6863 ;;		On exit  : 0/0
  6864 ;;		Unchanged: 0/0
  6865 ;; Data sizes:     COMMON   BANK0   BANK1   BANK3   BANK2
  6866 ;;      Params:         0       4       0       0       0
  6867 ;;      Locals:         0      10       0       0       0
  6868 ;;      Temps:          0      10       0       0       0
  6869 ;;      Totals:         0      24       0       0       0
  6870 ;;Total ram usage:       24 bytes
  6871 ;; Hardware stack levels used:    1
  6872 ;; Hardware stack levels required when called:    4
  6873 ;; This function calls:
  6874 ;;		_eeprom_read
  6875 ;;		_fm_fcon_write
  6876 ;;		_lcd_float
  6877 ;;		_i2c_byte_read
  6878 ;;		___wmul
  6879 ;;		_i2c_byte_write
  6880 ;; This function is called by:
  6881 ;;		_main
  6882 ;; This function uses a non-reentrant model
  6883 ;;
  6884                           psect	text899
  6885                           	file	"FM_RADIO_main.c"
  6886                           	line	470
  6887                           	global	__size_of_fm_serch
  6888  0193                     	__size_of_fm_serch	equ	__end_of_fm_serch-_fm_serch
  6889                           	
  6890  1185                     _fm_serch:	
  6891                           	opt	stack 3
  6892                           ; Regs used in _fm_serch: [wreg-fsr0h+status,2+status,0+btemp+1+pclath+cstack]
  6893                           	line	471
  6894                           	
  6895  1185                     l8194:	
  6896                           ;FM_RADIO_main.c: 471: int endf = 1, memSNR, RSSI, endrssi = 0, aSERC_1= 2;
  6897  1185  3001               	movlw	low(01h)
  6898  1186  1283               	bcf	status, 5	;RP0=0, select bank0
  6899  1187  1303               	bcf	status, 6	;RP1=0, select bank0
  6900  1188  00D4               	movwf	(fm_serch@endf)
  6901  1189  3000               	movlw	high(01h)
  6902  118A  00D5               	movwf	((fm_serch@endf))+1
  6903                           	
  6904  118B                     l8196:	
  6905  118B  01D6               	clrf	(fm_serch@endrssi)
  6906  118C  01D7               	clrf	(fm_serch@endrssi+1)
  6907                           	
  6908  118D                     l8198:	
  6909  118D  3002               	movlw	low(02h)
  6910  118E  00D8               	movwf	(fm_serch@aSERC_1)
  6911  118F  3000               	movlw	high(02h)
  6912  1190  00D9               	movwf	((fm_serch@aSERC_1))+1
  6913                           	line	472
  6914                           	
  6915  1191                     l8200:	
  6916                           ;FM_RADIO_main.c: 472: memSNR = eeprom_read(85);
  6917  1191  3055               	movlw	(055h)
  6918  1192  160A  158A  2048   	fcall	_eeprom_read
              160A  118A         
  6919  1197  1283               	bcf	status, 5	;RP0=0, select bank0
  6920  1198  1303               	bcf	status, 6	;RP1=0, select bank0
  6921  1199  00C6               	movwf	(??_fm_serch+0)+0
  6922  119A  01C7               	clrf	(??_fm_serch+0)+0+1
  6923  119B  0846               	movf	0+(??_fm_serch+0)+0,w
  6924  119C  00D0               	movwf	(fm_serch@memSNR)
  6925  119D  0847               	movf	1+(??_fm_serch+0)+0,w
  6926  119E  00D1               	movwf	(fm_serch@memSNR+1)
  6927                           	line	473
  6928                           	
  6929  119F                     l8202:	
  6930                           ;FM_RADIO_main.c: 473: RSSI = eeprom_read(84);
  6931  119F  3054               	movlw	(054h)
  6932  11A0  160A  158A  2048   	fcall	_eeprom_read
              160A  118A         
  6933  11A5  1283               	bcf	status, 5	;RP0=0, select bank0
  6934  11A6  1303               	bcf	status, 6	;RP1=0, select bank0
  6935  11A7  00C6               	movwf	(??_fm_serch+0)+0
  6936  11A8  01C7               	clrf	(??_fm_serch+0)+0+1
  6937  11A9  0846               	movf	0+(??_fm_serch+0)+0,w
  6938  11AA  00D2               	movwf	(fm_serch@RSSI)
  6939  11AB  0847               	movf	1+(??_fm_serch+0)+0,w
  6940  11AC  00D3               	movwf	(fm_serch@RSSI+1)
  6941                           	line	474
  6942                           ;FM_RADIO_main.c: 474: while (!((endf > memSNR) && (endrssi > RSSI)) && (RA2 == 0)) {
  6943  11AD  2AB5               	goto	l8230
  6944                           	
  6945  11AE                     l1230:	
  6946                           	line	475
  6947                           	
  6948  11AE                     l8204:	
  6949                           ;FM_RADIO_main.c: 475: aSERC_1++;
  6950  11AE  3001               	movlw	low(01h)
  6951  11AF  07D8               	addwf	(fm_serch@aSERC_1),f
  6952  11B0  1803               	skipnc
  6953  11B1  0AD9               	incf	(fm_serch@aSERC_1+1),f
  6954  11B2  3000               	movlw	high(01h)
  6955  11B3  07D9               	addwf	(fm_serch@aSERC_1+1),f
  6956                           	line	476
  6957                           	
  6958  11B4                     l8206:	
  6959                           ;FM_RADIO_main.c: 476: if(aSERC_1 >= 2){
  6960  11B4  0859               	movf	(fm_serch@aSERC_1+1),w
  6961  11B5  3A80               	xorlw	80h
  6962  11B6  00FF               	movwf	btemp+1
  6963  11B7  3080               	movlw	(high(02h))^80h
  6964  11B8  027F               	subwf	btemp+1,w
  6965  11B9  1D03               	skipz
  6966  11BA  29BD               	goto	u6955
  6967  11BB  3002               	movlw	low(02h)
  6968  11BC  0258               	subwf	(fm_serch@aSERC_1),w
  6969  11BD                     u6955:
  6970                           
  6971  11BD  1C03               	skipc
  6972  11BE  29C0               	goto	u6951
  6973  11BF  29C1               	goto	u6950
  6974  11C0                     u6951:
  6975  11C0  2A27               	goto	l8224
  6976  11C1                     u6950:
  6977                           	line	477
  6978                           	
  6979  11C1                     l8208:	
  6980                           ;FM_RADIO_main.c: 477: aSERC_1 = 0;
  6981  11C1  1283               	bcf	status, 5	;RP0=0, select bank0
  6982  11C2  1303               	bcf	status, 6	;RP1=0, select bank0
  6983  11C3  01D8               	clrf	(fm_serch@aSERC_1)
  6984  11C4  01D9               	clrf	(fm_serch@aSERC_1+1)
  6985                           	line	478
  6986                           	
  6987  11C5                     l8210:	
  6988                           ;FM_RADIO_main.c: 478: if (sel == 1) {
  6989  11C5  3001               	movlw	01h
  6990  11C6  0642               	xorwf	(fm_serch@sel),w
  6991  11C7  0443               	iorwf	(fm_serch@sel+1),w
  6992  11C8  1D03               	skipz
  6993  11C9  29CB               	goto	u6961
  6994  11CA  29CC               	goto	u6960
  6995  11CB                     u6961:
  6996  11CB  29E7               	goto	l1232
  6997  11CC                     u6960:
  6998                           	line	479
  6999                           	
  7000  11CC                     l8212:	
  7001                           ;FM_RADIO_main.c: 479: if (fcon > 1100)fcon = 320;
  7002  11CC  0845               	movf	(fm_serch@fcon+1),w
  7003  11CD  3A80               	xorlw	80h
  7004  11CE  00FF               	movwf	btemp+1
  7005  11CF  3084               	movlw	(high(044Dh))^80h
  7006  11D0  027F               	subwf	btemp+1,w
  7007  11D1  1D03               	skipz
  7008  11D2  29D5               	goto	u6975
  7009  11D3  304D               	movlw	low(044Dh)
  7010  11D4  0244               	subwf	(fm_serch@fcon),w
  7011  11D5                     u6975:
  7012                           
  7013  11D5  1C03               	skipc
  7014  11D6  29D8               	goto	u6971
  7015  11D7  29D9               	goto	u6970
  7016  11D8                     u6971:
  7017  11D8  29DF               	goto	l1233
  7018  11D9                     u6970:
  7019                           	
  7020  11D9                     l8214:	
  7021  11D9  3040               	movlw	low(0140h)
  7022  11DA  1283               	bcf	status, 5	;RP0=0, select bank0
  7023  11DB  1303               	bcf	status, 6	;RP1=0, select bank0
  7024  11DC  00C4               	movwf	(fm_serch@fcon)
  7025  11DD  3001               	movlw	high(0140h)
  7026  11DE  00C5               	movwf	((fm_serch@fcon))+1
  7027                           	
  7028  11DF                     l1233:	
  7029                           	line	480
  7030                           ;FM_RADIO_main.c: 480: ++fcon;
  7031  11DF  3001               	movlw	low(01h)
  7032  11E0  1283               	bcf	status, 5	;RP0=0, select bank0
  7033  11E1  1303               	bcf	status, 6	;RP1=0, select bank0
  7034  11E2  07C4               	addwf	(fm_serch@fcon),f
  7035  11E3  1803               	skipnc
  7036  11E4  0AC5               	incf	(fm_serch@fcon+1),f
  7037  11E5  3000               	movlw	high(01h)
  7038  11E6  07C5               	addwf	(fm_serch@fcon+1),f
  7039                           	line	481
  7040                           	
  7041  11E7                     l1232:	
  7042                           	line	482
  7043                           ;FM_RADIO_main.c: 481: }
  7044                           ;FM_RADIO_main.c: 482: if (sel == 2) {
  7045  11E7  3002               	movlw	02h
  7046  11E8  0642               	xorwf	(fm_serch@sel),w
  7047  11E9  0443               	iorwf	(fm_serch@sel+1),w
  7048  11EA  1D03               	skipz
  7049  11EB  29ED               	goto	u6981
  7050  11EC  29EE               	goto	u6980
  7051  11ED                     u6981:
  7052  11ED  2A0A               	goto	l8220
  7053  11EE                     u6980:
  7054                           	line	483
  7055                           	
  7056  11EE                     l8216:	
  7057                           ;FM_RADIO_main.c: 483: if (fcon < 320)fcon = 1100;
  7058  11EE  0845               	movf	(fm_serch@fcon+1),w
  7059  11EF  3A80               	xorlw	80h
  7060  11F0  00FF               	movwf	btemp+1
  7061  11F1  3081               	movlw	(high(0140h))^80h
  7062  11F2  027F               	subwf	btemp+1,w
  7063  11F3  1D03               	skipz
  7064  11F4  29F7               	goto	u6995
  7065  11F5  3040               	movlw	low(0140h)
  7066  11F6  0244               	subwf	(fm_serch@fcon),w
  7067  11F7                     u6995:
  7068                           
  7069  11F7  1803               	skipnc
  7070  11F8  29FA               	goto	u6991
  7071  11F9  29FB               	goto	u6990
  7072  11FA                     u6991:
  7073  11FA  2A01               	goto	l1235
  7074  11FB                     u6990:
  7075                           	
  7076  11FB                     l8218:	
  7077  11FB  304C               	movlw	low(044Ch)
  7078  11FC  1283               	bcf	status, 5	;RP0=0, select bank0
  7079  11FD  1303               	bcf	status, 6	;RP1=0, select bank0
  7080  11FE  00C4               	movwf	(fm_serch@fcon)
  7081  11FF  3004               	movlw	high(044Ch)
  7082  1200  00C5               	movwf	((fm_serch@fcon))+1
  7083                           	
  7084  1201                     l1235:	
  7085                           	line	484
  7086                           ;FM_RADIO_main.c: 484: --fcon;
  7087  1201  30FF               	movlw	low(-1)
  7088  1202  1283               	bcf	status, 5	;RP0=0, select bank0
  7089  1203  1303               	bcf	status, 6	;RP1=0, select bank0
  7090  1204  07C4               	addwf	(fm_serch@fcon),f
  7091  1205  1803               	skipnc
  7092  1206  0AC5               	incf	(fm_serch@fcon+1),f
  7093  1207  30FF               	movlw	high(-1)
  7094  1208  07C5               	addwf	(fm_serch@fcon+1),f
  7095  1209  2A0A               	goto	l8220
  7096                           	line	485
  7097                           	
  7098  120A                     l1234:	
  7099                           	line	486
  7100                           	
  7101  120A                     l8220:	
  7102                           ;FM_RADIO_main.c: 485: }
  7103                           ;FM_RADIO_main.c: 486: fm_fcon_write(fcon);
  7104  120A  0845               	movf	(fm_serch@fcon+1),w
  7105  120B  01B6               	clrf	(?_fm_fcon_write+1)
  7106  120C  07B6               	addwf	(?_fm_fcon_write+1)
  7107  120D  0844               	movf	(fm_serch@fcon),w
  7108  120E  01B5               	clrf	(?_fm_fcon_write)
  7109  120F  07B5               	addwf	(?_fm_fcon_write)
  7110                           
  7111  1210  160A  158A  21A2   	fcall	_fm_fcon_write
              160A  118A         
  7112                           	line	487
  7113                           	
  7114  1215                     l8222:	
  7115                           ;FM_RADIO_main.c: 487: lcd_float(0x01, fcon);
  7116  1215  3001               	movlw	low(01h)
  7117  1216  1283               	bcf	status, 5	;RP0=0, select bank0
  7118  1217  1303               	bcf	status, 6	;RP1=0, select bank0
  7119  1218  00B5               	movwf	(?_lcd_float)
  7120  1219  3000               	movlw	high(01h)
  7121  121A  00B6               	movwf	((?_lcd_float))+1
  7122  121B  0845               	movf	(fm_serch@fcon+1),w
  7123  121C  01B8               	clrf	1+(?_lcd_float)+02h
  7124  121D  07B8               	addwf	1+(?_lcd_float)+02h
  7125  121E  0844               	movf	(fm_serch@fcon),w
  7126  121F  01B7               	clrf	0+(?_lcd_float)+02h
  7127  1220  07B7               	addwf	0+(?_lcd_float)+02h
  7128                           
  7129  1221  160A  158A  24C7   	fcall	_lcd_float
              160A  118A         
  7130  1226  2A27               	goto	l8224
  7131                           	line	488
  7132                           	
  7133  1227                     l1231:	
  7134                           	line	489
  7135                           	
  7136  1227                     l8224:	
  7137                           ;FM_RADIO_main.c: 488: }
  7138                           ;FM_RADIO_main.c: 489: _delay((unsigned long)((56)*(4000000/4000.0)));
  7139                           	opt asmopt_off
  7140  1227  3049               movlw	73
  7141  1228  1283               	bcf	status, 5	;RP0=0, select bank0
  7142  1229  1303               	bcf	status, 6	;RP1=0, select bank0
  7143  122A  00C7               movwf	((??_fm_serch+0)+0+1),f
  7144  122B  30B9               	movlw	185
  7145  122C  00C6               movwf	((??_fm_serch+0)+0),f
  7146  122D                     u8147:
  7147  122D  0BC6               	decfsz	((??_fm_serch+0)+0),f
  7148  122E  2A2D               	goto	u8147
  7149  122F  0BC7               	decfsz	((??_fm_serch+0)+0+1),f
  7150  1230  2A2D               	goto	u8147
  7151                           opt asmopt_on
  7152                           
  7153                           	line	490
  7154                           	
  7155  1231                     l8226:	
  7156                           ;FM_RADIO_main.c: 490: endf = ((i2c_byte_read(1, 0b01101010, 0x14) & 0b11000000) >> 6) +
                                  ((i2c_byte_read(0, 0b01101010, 0x14) & 0b00011111) << 2);
  7157  1231  3000               	movlw	low(0)
  7158  1232  1283               	bcf	status, 5	;RP0=0, select bank0
  7159  1233  1303               	bcf	status, 6	;RP1=0, select bank0
  7160  1234  00A6               	movwf	(?_i2c_byte_read)
  7161  1235  3000               	movlw	high(0)
  7162  1236  00A7               	movwf	((?_i2c_byte_read))+1
  7163  1237  306A               	movlw	(06Ah)
  7164  1238  00C6               	movwf	(??_fm_serch+0)+0
  7165  1239  0846               	movf	(??_fm_serch+0)+0,w
  7166  123A  00A8               	movwf	0+(?_i2c_byte_read)+02h
  7167  123B  3014               	movlw	(014h)
  7168  123C  00C7               	movwf	(??_fm_serch+1)+0
  7169  123D  0847               	movf	(??_fm_serch+1)+0,w
  7170  123E  00A9               	movwf	0+(?_i2c_byte_read)+03h
  7171  123F  160A  158A  2269   	fcall	_i2c_byte_read
              160A  118A         
  7172  1244  301F               	movlw	low(01Fh)
  7173  1245  1283               	bcf	status, 5	;RP0=0, select bank0
  7174  1246  1303               	bcf	status, 6	;RP1=0, select bank0
  7175  1247  0526               	andwf	(0+(?_i2c_byte_read)),w
  7176  1248  00C8               	movwf	(??_fm_serch+2)+0
  7177  1249  3000               	movlw	high(01Fh)
  7178  124A  0527               	andwf	(1+(?_i2c_byte_read)),w
  7179  124B  00C9               	movwf	1+(??_fm_serch+2)+0
  7180  124C  3002               	movlw	02h
  7181  124D  00FF               	movwf	btemp+1
  7182  124E                     u7005:
  7183  124E  1003               	clrc
  7184  124F  0DC8               	rlf	(??_fm_serch+2)+0,f
  7185  1250  0DC9               	rlf	(??_fm_serch+2)+1,f
  7186  1251  0BFF               	decfsz	btemp+1,f
  7187  1252  2A4E               	goto	u7005
  7188  1253  3001               	movlw	low(01h)
  7189  1254  00A6               	movwf	(?_i2c_byte_read)
  7190  1255  3000               	movlw	high(01h)
  7191  1256  00A7               	movwf	((?_i2c_byte_read))+1
  7192  1257  306A               	movlw	(06Ah)
  7193  1258  00CA               	movwf	(??_fm_serch+4)+0
  7194  1259  084A               	movf	(??_fm_serch+4)+0,w
  7195  125A  00A8               	movwf	0+(?_i2c_byte_read)+02h
  7196  125B  3014               	movlw	(014h)
  7197  125C  00CB               	movwf	(??_fm_serch+5)+0
  7198  125D  084B               	movf	(??_fm_serch+5)+0,w
  7199  125E  00A9               	movwf	0+(?_i2c_byte_read)+03h
  7200  125F  160A  158A  2269   	fcall	_i2c_byte_read
              160A  118A         
  7201  1264  1283               	bcf	status, 5	;RP0=0, select bank0
  7202  1265  1303               	bcf	status, 6	;RP1=0, select bank0
  7203  1266  0826               	movf	(0+?_i2c_byte_read),w
  7204  1267  00CC               	movwf	(??_fm_serch+6)+0
  7205  1268  0827               	movf	(1+?_i2c_byte_read),w
  7206  1269  00CD               	movwf	((??_fm_serch+6)+0+1)
  7207  126A  3006               	movlw	06h
  7208  126B  00FF               	movwf	btemp+1
  7209  126C                     u7015:
  7210  126C  0D4D               	rlf	(??_fm_serch+6)+1,w
  7211  126D  0CCD               	rrf	(??_fm_serch+6)+1,f
  7212  126E  0CCC               	rrf	(??_fm_serch+6)+0,f
  7213  126F  0BFF               	decfsz	btemp+1,f
  7214  1270  2A6C               	goto	u7015
  7215  1271  3003               	movlw	low(03h)
  7216  1272  054C               	andwf	0+(??_fm_serch+6)+0,w
  7217  1273  00CE               	movwf	(??_fm_serch+8)+0
  7218  1274  3000               	movlw	high(03h)
  7219  1275  054D               	andwf	1+(??_fm_serch+6)+0,w
  7220  1276  00CF               	movwf	1+(??_fm_serch+8)+0
  7221  1277  0848               	movf	0+(??_fm_serch+2)+0,w
  7222  1278  074E               	addwf	0+(??_fm_serch+8)+0,w
  7223  1279  00D4               	movwf	(fm_serch@endf)
  7224  127A  0849               	movf	1+(??_fm_serch+2)+0,w
  7225  127B  1803               	skipnc
  7226  127C  0A49               	incf	1+(??_fm_serch+2)+0,w
  7227  127D  074F               	addwf	1+(??_fm_serch+8)+0,w
  7228  127E  00D5               	movwf	1+(fm_serch@endf)
  7229                           	line	491
  7230                           	
  7231  127F                     l8228:	
  7232                           ;FM_RADIO_main.c: 491: endrssi = ((i2c_byte_read(1, 0b01101010, 0x12) & 0b11111000) >> 3
                                 )*3;
  7233  127F  3012               	movlw	(012h)
  7234  1280  00C6               	movwf	(??_fm_serch+0)+0
  7235  1281  0846               	movf	(??_fm_serch+0)+0,w
  7236  1282  00A9               	movwf	0+(?_i2c_byte_read)+03h
  7237  1283  306A               	movlw	(06Ah)
  7238  1284  00C7               	movwf	(??_fm_serch+1)+0
  7239  1285  0847               	movf	(??_fm_serch+1)+0,w
  7240  1286  00A8               	movwf	0+(?_i2c_byte_read)+02h
  7241  1287  3001               	movlw	low(01h)
  7242  1288  00A6               	movwf	(?_i2c_byte_read)
  7243  1289  3000               	movlw	high(01h)
  7244  128A  00A7               	movwf	((?_i2c_byte_read))+1
  7245  128B  160A  158A  2269   	fcall	_i2c_byte_read
              160A  118A         
  7246  1290  1283               	bcf	status, 5	;RP0=0, select bank0
  7247  1291  1303               	bcf	status, 6	;RP1=0, select bank0
  7248  1292  0826               	movf	(0+?_i2c_byte_read),w
  7249  1293  00C8               	movwf	(??_fm_serch+2)+0
  7250  1294  0827               	movf	(1+?_i2c_byte_read),w
  7251  1295  00C9               	movwf	((??_fm_serch+2)+0+1)
  7252  1296  3003               	movlw	03h
  7253  1297  00FF               	movwf	btemp+1
  7254  1298                     u7025:
  7255  1298  0D49               	rlf	(??_fm_serch+2)+1,w
  7256  1299  0CC9               	rrf	(??_fm_serch+2)+1,f
  7257  129A  0CC8               	rrf	(??_fm_serch+2)+0,f
  7258  129B  0BFF               	decfsz	btemp+1,f
  7259  129C  2A98               	goto	u7025
  7260  129D  301F               	movlw	low(01Fh)
  7261  129E  0548               	andwf	0+(??_fm_serch+2)+0,w
  7262  129F  00A0               	movwf	(?___wmul)
  7263  12A0  3000               	movlw	high(01Fh)
  7264  12A1  0549               	andwf	1+(??_fm_serch+2)+0,w
  7265  12A2  00A1               	movwf	1+(?___wmul)
  7266  12A3  3003               	movlw	low(03h)
  7267  12A4  00A2               	movwf	0+(?___wmul)+02h
  7268  12A5  3000               	movlw	high(03h)
  7269  12A6  00A3               	movwf	(0+(?___wmul)+02h)+1
  7270  12A7  160A  118A  2000   	fcall	___wmul
              160A  118A         
  7271  12AC  1283               	bcf	status, 5	;RP0=0, select bank0
  7272  12AD  1303               	bcf	status, 6	;RP1=0, select bank0
  7273  12AE  0821               	movf	(1+(?___wmul)),w
  7274  12AF  01D7               	clrf	(fm_serch@endrssi+1)
  7275  12B0  07D7               	addwf	(fm_serch@endrssi+1)
  7276  12B1  0820               	movf	(0+(?___wmul)),w
  7277  12B2  01D6               	clrf	(fm_serch@endrssi)
  7278  12B3  07D6               	addwf	(fm_serch@endrssi)
  7279                           
  7280  12B4  2AB5               	goto	l8230
  7281                           	line	492
  7282                           	
  7283  12B5                     l1229:	
  7284                           	line	474
  7285                           	
  7286  12B5                     l8230:	
  7287  12B5  0851               	movf	(fm_serch@memSNR+1),w
  7288  12B6  3A80               	xorlw	80h
  7289  12B7  00C6               	movwf	(??_fm_serch+0)+0
  7290  12B8  0855               	movf	(fm_serch@endf+1),w
  7291  12B9  3A80               	xorlw	80h
  7292  12BA  0246               	subwf	(??_fm_serch+0)+0,w
  7293  12BB  1D03               	skipz
  7294  12BC  2ABF               	goto	u7035
  7295  12BD  0854               	movf	(fm_serch@endf),w
  7296  12BE  0250               	subwf	(fm_serch@memSNR),w
  7297  12BF                     u7035:
  7298                           
  7299  12BF  1803               	skipnc
  7300  12C0  2AC2               	goto	u7031
  7301  12C1  2AC3               	goto	u7030
  7302  12C2                     u7031:
  7303  12C2  2AD3               	goto	l1239
  7304  12C3                     u7030:
  7305                           	
  7306  12C3                     l8232:	
  7307  12C3  1283               	bcf	status, 5	;RP0=0, select bank0
  7308  12C4  1303               	bcf	status, 6	;RP1=0, select bank0
  7309  12C5  0853               	movf	(fm_serch@RSSI+1),w
  7310  12C6  3A80               	xorlw	80h
  7311  12C7  00C6               	movwf	(??_fm_serch+0)+0
  7312  12C8  0857               	movf	(fm_serch@endrssi+1),w
  7313  12C9  3A80               	xorlw	80h
  7314  12CA  0246               	subwf	(??_fm_serch+0)+0,w
  7315  12CB  1D03               	skipz
  7316  12CC  2ACF               	goto	u7045
  7317  12CD  0856               	movf	(fm_serch@endrssi),w
  7318  12CE  0252               	subwf	(fm_serch@RSSI),w
  7319  12CF                     u7045:
  7320                           
  7321  12CF  1C03               	skipc
  7322  12D0  2AD2               	goto	u7041
  7323  12D1  2AD3               	goto	u7040
  7324  12D2                     u7041:
  7325  12D2  2ADB               	goto	l8234
  7326  12D3                     u7040:
  7327                           	
  7328  12D3                     l1239:	
  7329  12D3  1283               	bcf	status, 5	;RP0=0, select bank0
  7330  12D4  1303               	bcf	status, 6	;RP1=0, select bank0
  7331  12D5  1D05               	btfss	(42/8),(42)&7
  7332  12D6  2AD8               	goto	u7051
  7333  12D7  2AD9               	goto	u7050
  7334  12D8                     u7051:
  7335  12D8  29AE               	goto	l8204
  7336  12D9                     u7050:
  7337  12D9  2ADB               	goto	l8234
  7338                           	
  7339  12DA                     l1237:	
  7340  12DA  2ADB               	goto	l8234
  7341                           	
  7342  12DB                     l1240:	
  7343                           	line	493
  7344                           	
  7345  12DB                     l8234:	
  7346                           ;FM_RADIO_main.c: 492: }
  7347                           ;FM_RADIO_main.c: 493: i2c_byte_write(0, 0x7C, 0x00, (0x80 + 0x44), 0);
  7348  12DB  3000               	movlw	low(0)
  7349  12DC  1283               	bcf	status, 5	;RP0=0, select bank0
  7350  12DD  1303               	bcf	status, 6	;RP1=0, select bank0
  7351  12DE  00A0               	movwf	(?_i2c_byte_write)
  7352  12DF  3000               	movlw	high(0)
  7353  12E0  00A1               	movwf	((?_i2c_byte_write))+1
  7354  12E1  307C               	movlw	(07Ch)
  7355  12E2  00C6               	movwf	(??_fm_serch+0)+0
  7356  12E3  0846               	movf	(??_fm_serch+0)+0,w
  7357  12E4  00A2               	movwf	0+(?_i2c_byte_write)+02h
  7358  12E5  01A3               	clrf	0+(?_i2c_byte_write)+03h
  7359  12E6  30C4               	movlw	(0C4h)
  7360  12E7  00C7               	movwf	(??_fm_serch+1)+0
  7361  12E8  0847               	movf	(??_fm_serch+1)+0,w
  7362  12E9  00A4               	movwf	0+(?_i2c_byte_write)+04h
  7363  12EA  01A5               	clrf	0+(?_i2c_byte_write)+05h
  7364  12EB  160A  158A  20C7   	fcall	_i2c_byte_write
              160A  118A         
  7365                           	line	494
  7366                           ;FM_RADIO_main.c: 494: i2c_byte_write(0, 0x7C, 0xC0, ' ', 0);
  7367  12F0  3000               	movlw	low(0)
  7368  12F1  1283               	bcf	status, 5	;RP0=0, select bank0
  7369  12F2  1303               	bcf	status, 6	;RP1=0, select bank0
  7370  12F3  00A0               	movwf	(?_i2c_byte_write)
  7371  12F4  3000               	movlw	high(0)
  7372  12F5  00A1               	movwf	((?_i2c_byte_write))+1
  7373  12F6  307C               	movlw	(07Ch)
  7374  12F7  00C6               	movwf	(??_fm_serch+0)+0
  7375  12F8  0846               	movf	(??_fm_serch+0)+0,w
  7376  12F9  00A2               	movwf	0+(?_i2c_byte_write)+02h
  7377  12FA  30C0               	movlw	(0C0h)
  7378  12FB  00C7               	movwf	(??_fm_serch+1)+0
  7379  12FC  0847               	movf	(??_fm_serch+1)+0,w
  7380  12FD  00A3               	movwf	0+(?_i2c_byte_write)+03h
  7381  12FE  3020               	movlw	(020h)
  7382  12FF  00C8               	movwf	(??_fm_serch+2)+0
  7383  1300  0848               	movf	(??_fm_serch+2)+0,w
  7384  1301  00A4               	movwf	0+(?_i2c_byte_write)+04h
  7385  1302  01A5               	clrf	0+(?_i2c_byte_write)+05h
  7386  1303  160A  158A  20C7   	fcall	_i2c_byte_write
              160A  118A         
  7387                           	line	495
  7388                           ;FM_RADIO_main.c: 495: while (RA2);
  7389  1308  2B09               	goto	l1241
  7390                           	
  7391  1309                     l1242:	
  7392                           	
  7393  1309                     l1241:	
  7394  1309  1283               	bcf	status, 5	;RP0=0, select bank0
  7395  130A  1303               	bcf	status, 6	;RP1=0, select bank0
  7396  130B  1905               	btfsc	(42/8),(42)&7
  7397  130C  2B0E               	goto	u7061
  7398  130D  2B0F               	goto	u7060
  7399  130E                     u7061:
  7400  130E  2B09               	goto	l1241
  7401  130F                     u7060:
  7402  130F  2B10               	goto	l8236
  7403                           	
  7404  1310                     l1243:	
  7405                           	line	496
  7406                           	
  7407  1310                     l8236:	
  7408                           ;FM_RADIO_main.c: 496: return (fcon);
  7409  1310  0845               	movf	(fm_serch@fcon+1),w
  7410  1311  01C3               	clrf	(?_fm_serch+1)
  7411  1312  07C3               	addwf	(?_fm_serch+1)
  7412  1313  0844               	movf	(fm_serch@fcon),w
  7413  1314  01C2               	clrf	(?_fm_serch)
  7414  1315  07C2               	addwf	(?_fm_serch)
  7415                           
  7416  1316  2B17               	goto	l1244
  7417                           	
  7418  1317                     l8238:	
  7419                           	line	497
  7420                           	
  7421  1317                     l1244:	
  7422  1317  0008               	return
  7423                           	opt stack 0
  7424                           GLOBAL	__end_of_fm_serch
  7425  1318                     	__end_of_fm_serch:
  7426 ;; =============== function _fm_serch ends ============
  7427                           
  7428                           	signat	_fm_serch,8314
  7429                           	global	_buss_boost
  7430                           psect	text900,local,class=CODE,delta=2
  7431                           global __ptext900
  7432  165B                     __ptext900:
  7433                           
  7434 ;; *************** function _buss_boost *****************
  7435 ;; Defined at:
  7436 ;;		line 318 in file "FM_RADIO_main.c"
  7437 ;; Parameters:    Size  Location     Type
  7438 ;;		None
  7439 ;; Auto vars:     Size  Location     Type
  7440 ;;  boost           1   38[BANK0 ] unsigned char 
  7441 ;; Return value:  Size  Location     Type
  7442 ;;                  2  1154[COMMON] int 
  7443 ;; Registers used:
  7444 ;;		wreg, fsr0l, fsr0h, status,2, status,0, btemp+1, pclath, cstack
  7445 ;; Tracked objects:
  7446 ;;		On entry : 0/0
  7447 ;;		On exit  : 0/0
  7448 ;;		Unchanged: 0/0
  7449 ;; Data sizes:     COMMON   BANK0   BANK1   BANK3   BANK2
  7450 ;;      Params:         0       0       0       0       0
  7451 ;;      Locals:         0       1       0       0       0
  7452 ;;      Temps:          0       4       0       0       0
  7453 ;;      Totals:         0       5       0       0       0
  7454 ;;Total ram usage:        5 bytes
  7455 ;; Hardware stack levels used:    1
  7456 ;; Hardware stack levels required when called:    4
  7457 ;; This function calls:
  7458 ;;		_i2c_byte_read
  7459 ;;		_i2c_byte_write
  7460 ;;		_lcd_int
  7461 ;;		_eeprom_read
  7462 ;;		_fm_fcon_write
  7463 ;;		_eeprom_write
  7464 ;; This function is called by:
  7465 ;;		_fmNo_in
  7466 ;; This function uses a non-reentrant model
  7467 ;;
  7468                           psect	text900
  7469                           	file	"FM_RADIO_main.c"
  7470                           	line	318
  7471                           	global	__size_of_buss_boost
  7472  01A5                     	__size_of_buss_boost	equ	__end_of_buss_boost-_buss_boost
  7473                           	
  7474  165B                     _buss_boost:	
  7475                           	opt	stack 2
  7476                           ; Regs used in _buss_boost: [wreg-fsr0h+status,2+status,0+btemp+1+pclath+cstack]
  7477                           	line	320
  7478                           	
  7479  165B                     l8146:	
  7480                           ;FM_RADIO_main.c: 319: unsigned char boost;
  7481                           ;FM_RADIO_main.c: 320: boost = ((i2c_byte_read(0, 0b01101010, 0x04) & 0b00000011));
  7482  165B  3000               	movlw	low(0)
  7483  165C  1283               	bcf	status, 5	;RP0=0, select bank0
  7484  165D  1303               	bcf	status, 6	;RP1=0, select bank0
  7485  165E  00A6               	movwf	(?_i2c_byte_read)
  7486  165F  3000               	movlw	high(0)
  7487  1660  00A7               	movwf	((?_i2c_byte_read))+1
  7488  1661  306A               	movlw	(06Ah)
  7489  1662  00C2               	movwf	(??_buss_boost+0)+0
  7490  1663  0842               	movf	(??_buss_boost+0)+0,w
  7491  1664  00A8               	movwf	0+(?_i2c_byte_read)+02h
  7492  1665  3004               	movlw	(04h)
  7493  1666  00C3               	movwf	(??_buss_boost+1)+0
  7494  1667  0843               	movf	(??_buss_boost+1)+0,w
  7495  1668  00A9               	movwf	0+(?_i2c_byte_read)+03h
  7496  1669  160A  158A  2269   	fcall	_i2c_byte_read
              160A  118A         
  7497  166E  1283               	bcf	status, 5	;RP0=0, select bank0
  7498  166F  1303               	bcf	status, 6	;RP1=0, select bank0
  7499  1670  0826               	movf	(0+(?_i2c_byte_read)),w
  7500  1671  3903               	andlw	03h
  7501  1672  00C4               	movwf	(??_buss_boost+2)+0
  7502  1673  0844               	movf	(??_buss_boost+2)+0,w
  7503  1674  00C6               	movwf	(buss_boost@boost)
  7504                           	line	321
  7505                           	
  7506  1675                     l8148:	
  7507                           ;FM_RADIO_main.c: 321: i2c_byte_write(0, 0x7C, 0x00, (0x80 + 0x46), 0);
  7508  1675  3000               	movlw	low(0)
  7509  1676  00A0               	movwf	(?_i2c_byte_write)
  7510  1677  3000               	movlw	high(0)
  7511  1678  00A1               	movwf	((?_i2c_byte_write))+1
  7512  1679  307C               	movlw	(07Ch)
  7513  167A  00C2               	movwf	(??_buss_boost+0)+0
  7514  167B  0842               	movf	(??_buss_boost+0)+0,w
  7515  167C  00A2               	movwf	0+(?_i2c_byte_write)+02h
  7516  167D  01A3               	clrf	0+(?_i2c_byte_write)+03h
  7517  167E  30C6               	movlw	(0C6h)
  7518  167F  00C3               	movwf	(??_buss_boost+1)+0
  7519  1680  0843               	movf	(??_buss_boost+1)+0,w
  7520  1681  00A4               	movwf	0+(?_i2c_byte_write)+04h
  7521  1682  01A5               	clrf	0+(?_i2c_byte_write)+05h
  7522  1683  160A  158A  20C7   	fcall	_i2c_byte_write
              160A  118A         
  7523                           	line	322
  7524                           	
  7525  1688                     l8150:	
  7526                           ;FM_RADIO_main.c: 322: lcd_int(2, 0x40, boost);
  7527  1688  3002               	movlw	low(02h)
  7528  1689  1283               	bcf	status, 5	;RP0=0, select bank0
  7529  168A  1303               	bcf	status, 6	;RP1=0, select bank0
  7530  168B  00AE               	movwf	(?_lcd_int)
  7531  168C  3000               	movlw	high(02h)
  7532  168D  00AF               	movwf	((?_lcd_int))+1
  7533  168E  3040               	movlw	low(040h)
  7534  168F  00B0               	movwf	0+(?_lcd_int)+02h
  7535  1690  3000               	movlw	high(040h)
  7536  1691  00B1               	movwf	(0+(?_lcd_int)+02h)+1
  7537  1692  0846               	movf	(buss_boost@boost),w
  7538  1693  00C2               	movwf	(??_buss_boost+0)+0
  7539  1694  01C3               	clrf	(??_buss_boost+0)+0+1
  7540  1695  0842               	movf	0+(??_buss_boost+0)+0,w
  7541  1696  00B2               	movwf	0+(?_lcd_int)+04h
  7542  1697  0843               	movf	1+(??_buss_boost+0)+0,w
  7543  1698  00B3               	movwf	1+(?_lcd_int)+04h
  7544  1699  120A  118A  2768   	fcall	_lcd_int
              160A  118A         
  7545                           	line	323
  7546                           	
  7547  169E                     l8152:	
  7548                           ;FM_RADIO_main.c: 323: boost = (eeprom_read(86) & 0b00000011);
  7549  169E  3056               	movlw	(056h)
  7550  169F  160A  158A  2048   	fcall	_eeprom_read
              160A  118A         
  7551  16A4  3903               	andlw	03h
  7552  16A5  1283               	bcf	status, 5	;RP0=0, select bank0
  7553  16A6  1303               	bcf	status, 6	;RP1=0, select bank0
  7554  16A7  00C2               	movwf	(??_buss_boost+0)+0
  7555  16A8  0842               	movf	(??_buss_boost+0)+0,w
  7556  16A9  00C6               	movwf	(buss_boost@boost)
  7557                           	line	324
  7558                           	
  7559  16AA                     l8154:	
  7560                           ;FM_RADIO_main.c: 324: lcd_int(2, 0x05, boost);
  7561  16AA  3002               	movlw	low(02h)
  7562  16AB  00AE               	movwf	(?_lcd_int)
  7563  16AC  3000               	movlw	high(02h)
  7564  16AD  00AF               	movwf	((?_lcd_int))+1
  7565  16AE  3005               	movlw	low(05h)
  7566  16AF  00B0               	movwf	0+(?_lcd_int)+02h
  7567  16B0  3000               	movlw	high(05h)
  7568  16B1  00B1               	movwf	(0+(?_lcd_int)+02h)+1
  7569  16B2  0846               	movf	(buss_boost@boost),w
  7570  16B3  00C2               	movwf	(??_buss_boost+0)+0
  7571  16B4  01C3               	clrf	(??_buss_boost+0)+0+1
  7572  16B5  0842               	movf	0+(??_buss_boost+0)+0,w
  7573  16B6  00B2               	movwf	0+(?_lcd_int)+04h
  7574  16B7  0843               	movf	1+(??_buss_boost+0)+0,w
  7575  16B8  00B3               	movwf	1+(?_lcd_int)+04h
  7576  16B9  120A  118A  2768   	fcall	_lcd_int
              160A  118A         
  7577                           	line	325
  7578                           ;FM_RADIO_main.c: 325: while (RA2 || RA1 || RA3);
  7579  16BE  2EBF               	goto	l1155
  7580                           	
  7581  16BF                     l1156:	
  7582                           	
  7583  16BF                     l1155:	
  7584  16BF  1283               	bcf	status, 5	;RP0=0, select bank0
  7585  16C0  1303               	bcf	status, 6	;RP1=0, select bank0
  7586  16C1  1905               	btfsc	(42/8),(42)&7
  7587  16C2  2EC4               	goto	u6831
  7588  16C3  2EC5               	goto	u6830
  7589  16C4                     u6831:
  7590  16C4  2EBF               	goto	l1155
  7591  16C5                     u6830:
  7592                           	
  7593  16C5                     l8156:	
  7594  16C5  1885               	btfsc	(41/8),(41)&7
  7595  16C6  2EC8               	goto	u6841
  7596  16C7  2EC9               	goto	u6840
  7597  16C8                     u6841:
  7598  16C8  2EBF               	goto	l1155
  7599  16C9                     u6840:
  7600                           	
  7601  16C9                     l8158:	
  7602  16C9  1985               	btfsc	(43/8),(43)&7
  7603  16CA  2ECC               	goto	u6851
  7604  16CB  2ECD               	goto	u6850
  7605  16CC                     u6851:
  7606  16CC  2EBF               	goto	l1155
  7607  16CD                     u6850:
  7608  16CD  2F8B               	goto	l1158
  7609                           	
  7610  16CE                     l1157:	
  7611                           	line	326
  7612                           ;FM_RADIO_main.c: 326: while (!RA2 || (RA1 || RA3)) {
  7613  16CE  2F8B               	goto	l1158
  7614                           	
  7615  16CF                     l1159:	
  7616                           	line	327
  7617                           	
  7618  16CF                     l8160:	
  7619                           ;FM_RADIO_main.c: 327: _delay((unsigned long)((70)*(4000000/4000.0)));
  7620                           	opt asmopt_off
  7621  16CF  305B               movlw	91
  7622  16D0  00C3               movwf	((??_buss_boost+0)+0+1),f
  7623  16D1  30E7               	movlw	231
  7624  16D2  00C2               movwf	((??_buss_boost+0)+0),f
  7625  16D3                     u8157:
  7626  16D3  0BC2               	decfsz	((??_buss_boost+0)+0),f
  7627  16D4  2ED3               	goto	u8157
  7628  16D5  0BC3               	decfsz	((??_buss_boost+0)+0+1),f
  7629  16D6  2ED3               	goto	u8157
  7630  16D7  2ED8               	nop2
  7631                           opt asmopt_on
  7632                           
  7633                           	line	328
  7634                           	
  7635  16D8                     l8162:	
  7636                           ;FM_RADIO_main.c: 328: if (RA1 == 1 && boost < 0x03) {
  7637  16D8  1283               	bcf	status, 5	;RP0=0, select bank0
  7638  16D9  1303               	bcf	status, 6	;RP1=0, select bank0
  7639  16DA  1C85               	btfss	(41/8),(41)&7
  7640  16DB  2EDD               	goto	u6861
  7641  16DC  2EDE               	goto	u6860
  7642  16DD                     u6861:
  7643  16DD  2F2F               	goto	l8174
  7644  16DE                     u6860:
  7645                           	
  7646  16DE                     l8164:	
  7647  16DE  3003               	movlw	(03h)
  7648  16DF  0246               	subwf	(buss_boost@boost),w
  7649  16E0  1803               	skipnc
  7650  16E1  2EE3               	goto	u6871
  7651  16E2  2EE4               	goto	u6870
  7652  16E3                     u6871:
  7653  16E3  2F2F               	goto	l8174
  7654  16E4                     u6870:
  7655                           	line	329
  7656                           	
  7657  16E4                     l8166:	
  7658                           ;FM_RADIO_main.c: 329: boost++;
  7659  16E4  3001               	movlw	(01h)
  7660  16E5  00C2               	movwf	(??_buss_boost+0)+0
  7661  16E6  0842               	movf	(??_buss_boost+0)+0,w
  7662  16E7  07C6               	addwf	(buss_boost@boost),f
  7663                           	line	330
  7664                           	
  7665  16E8                     l8168:	
  7666                           ;FM_RADIO_main.c: 330: i2c_byte_write(1, 0b01101010, 0x04, ((boost & 0x03) | 0b11000000)
                                 , 0b10000000);
  7667  16E8  3001               	movlw	low(01h)
  7668  16E9  00A0               	movwf	(?_i2c_byte_write)
  7669  16EA  3000               	movlw	high(01h)
  7670  16EB  00A1               	movwf	((?_i2c_byte_write))+1
  7671  16EC  306A               	movlw	(06Ah)
  7672  16ED  00C2               	movwf	(??_buss_boost+0)+0
  7673  16EE  0842               	movf	(??_buss_boost+0)+0,w
  7674  16EF  00A2               	movwf	0+(?_i2c_byte_write)+02h
  7675  16F0  3004               	movlw	(04h)
  7676  16F1  00C3               	movwf	(??_buss_boost+1)+0
  7677  16F2  0843               	movf	(??_buss_boost+1)+0,w
  7678  16F3  00A3               	movwf	0+(?_i2c_byte_write)+03h
  7679  16F4  0846               	movf	(buss_boost@boost),w
  7680  16F5  3903               	andlw	03h
  7681  16F6  38C0               	iorlw	0C0h
  7682  16F7  00C4               	movwf	(??_buss_boost+2)+0
  7683  16F8  0844               	movf	(??_buss_boost+2)+0,w
  7684  16F9  00A4               	movwf	0+(?_i2c_byte_write)+04h
  7685  16FA  3080               	movlw	(080h)
  7686  16FB  00C5               	movwf	(??_buss_boost+3)+0
  7687  16FC  0845               	movf	(??_buss_boost+3)+0,w
  7688  16FD  00A5               	movwf	0+(?_i2c_byte_write)+05h
  7689  16FE  160A  158A  20C7   	fcall	_i2c_byte_write
              160A  118A         
  7690                           	line	331
  7691                           	
  7692  1703                     l8170:	
  7693                           ;FM_RADIO_main.c: 331: fm_fcon_write(fcont_pp);
  7694  1703  0879               	movf	(_fcont_pp+1),w
  7695  1704  1283               	bcf	status, 5	;RP0=0, select bank0
  7696  1705  1303               	bcf	status, 6	;RP1=0, select bank0
  7697  1706  01B6               	clrf	(?_fm_fcon_write+1)
  7698  1707  07B6               	addwf	(?_fm_fcon_write+1)
  7699  1708  0878               	movf	(_fcont_pp),w
  7700  1709  01B5               	clrf	(?_fm_fcon_write)
  7701  170A  07B5               	addwf	(?_fm_fcon_write)
  7702                           
  7703  170B  160A  158A  21A2   	fcall	_fm_fcon_write
              160A  118A         
  7704                           	line	332
  7705                           	
  7706  1710                     l8172:	
  7707                           ;FM_RADIO_main.c: 332: lcd_int(2, 0x05, boost);
  7708  1710  3002               	movlw	low(02h)
  7709  1711  1283               	bcf	status, 5	;RP0=0, select bank0
  7710  1712  1303               	bcf	status, 6	;RP1=0, select bank0
  7711  1713  00AE               	movwf	(?_lcd_int)
  7712  1714  3000               	movlw	high(02h)
  7713  1715  00AF               	movwf	((?_lcd_int))+1
  7714  1716  3005               	movlw	low(05h)
  7715  1717  00B0               	movwf	0+(?_lcd_int)+02h
  7716  1718  3000               	movlw	high(05h)
  7717  1719  00B1               	movwf	(0+(?_lcd_int)+02h)+1
  7718  171A  0846               	movf	(buss_boost@boost),w
  7719  171B  00C2               	movwf	(??_buss_boost+0)+0
  7720  171C  01C3               	clrf	(??_buss_boost+0)+0+1
  7721  171D  0842               	movf	0+(??_buss_boost+0)+0,w
  7722  171E  00B2               	movwf	0+(?_lcd_int)+04h
  7723  171F  0843               	movf	1+(??_buss_boost+0)+0,w
  7724  1720  00B3               	movwf	1+(?_lcd_int)+04h
  7725  1721  120A  118A  2768   	fcall	_lcd_int
              160A  118A         
  7726                           	line	333
  7727                           ;FM_RADIO_main.c: 333: while (RA2);
  7728  1726  2F27               	goto	l1161
  7729                           	
  7730  1727                     l1162:	
  7731                           	
  7732  1727                     l1161:	
  7733  1727  1283               	bcf	status, 5	;RP0=0, select bank0
  7734  1728  1303               	bcf	status, 6	;RP1=0, select bank0
  7735  1729  1905               	btfsc	(42/8),(42)&7
  7736  172A  2F2C               	goto	u6881
  7737  172B  2F2D               	goto	u6880
  7738  172C                     u6881:
  7739  172C  2F27               	goto	l1161
  7740  172D                     u6880:
  7741  172D  2F2F               	goto	l8174
  7742                           	
  7743  172E                     l1163:	
  7744  172E  2F2F               	goto	l8174
  7745                           	line	334
  7746                           	
  7747  172F                     l1160:	
  7748                           	line	335
  7749                           	
  7750  172F                     l8174:	
  7751                           ;FM_RADIO_main.c: 334: }
  7752                           ;FM_RADIO_main.c: 335: _delay((unsigned long)((70)*(4000000/4000.0)));
  7753                           	opt asmopt_off
  7754  172F  305B               movlw	91
  7755  1730  00C3               movwf	((??_buss_boost+0)+0+1),f
  7756  1731  30E7               	movlw	231
  7757  1732  00C2               movwf	((??_buss_boost+0)+0),f
  7758  1733                     u8167:
  7759  1733  0BC2               	decfsz	((??_buss_boost+0)+0),f
  7760  1734  2F33               	goto	u8167
  7761  1735  0BC3               	decfsz	((??_buss_boost+0)+0+1),f
  7762  1736  2F33               	goto	u8167
  7763  1737  2F38               	nop2
  7764                           opt asmopt_on
  7765                           
  7766                           	line	336
  7767                           	
  7768  1738                     l8176:	
  7769                           ;FM_RADIO_main.c: 336: if (RA3 == 1 && boost > 0x00) {
  7770  1738  1283               	bcf	status, 5	;RP0=0, select bank0
  7771  1739  1303               	bcf	status, 6	;RP1=0, select bank0
  7772  173A  1D85               	btfss	(43/8),(43)&7
  7773  173B  2F3D               	goto	u6891
  7774  173C  2F3E               	goto	u6890
  7775  173D                     u6891:
  7776  173D  2F8B               	goto	l1158
  7777  173E                     u6890:
  7778                           	
  7779  173E                     l8178:	
  7780  173E  0846               	movf	(buss_boost@boost),w
  7781  173F  1D03               	skipz
  7782  1740  2F42               	goto	u6900
  7783  1741  2F8B               	goto	l1158
  7784  1742                     u6900:
  7785                           	line	337
  7786                           	
  7787  1742                     l8180:	
  7788                           ;FM_RADIO_main.c: 337: boost--;
  7789  1742  3001               	movlw	low(01h)
  7790  1743  02C6               	subwf	(buss_boost@boost),f
  7791                           	line	338
  7792                           	
  7793  1744                     l8182:	
  7794                           ;FM_RADIO_main.c: 338: i2c_byte_write(1, 0b01101010, 0x04, ((boost & 0x03) | 0b11000000)
                                 , 0b10000000);
  7795  1744  3001               	movlw	low(01h)
  7796  1745  00A0               	movwf	(?_i2c_byte_write)
  7797  1746  3000               	movlw	high(01h)
  7798  1747  00A1               	movwf	((?_i2c_byte_write))+1
  7799  1748  306A               	movlw	(06Ah)
  7800  1749  00C2               	movwf	(??_buss_boost+0)+0
  7801  174A  0842               	movf	(??_buss_boost+0)+0,w
  7802  174B  00A2               	movwf	0+(?_i2c_byte_write)+02h
  7803  174C  3004               	movlw	(04h)
  7804  174D  00C3               	movwf	(??_buss_boost+1)+0
  7805  174E  0843               	movf	(??_buss_boost+1)+0,w
  7806  174F  00A3               	movwf	0+(?_i2c_byte_write)+03h
  7807  1750  0846               	movf	(buss_boost@boost),w
  7808  1751  3903               	andlw	03h
  7809  1752  38C0               	iorlw	0C0h
  7810  1753  00C4               	movwf	(??_buss_boost+2)+0
  7811  1754  0844               	movf	(??_buss_boost+2)+0,w
  7812  1755  00A4               	movwf	0+(?_i2c_byte_write)+04h
  7813  1756  3080               	movlw	(080h)
  7814  1757  00C5               	movwf	(??_buss_boost+3)+0
  7815  1758  0845               	movf	(??_buss_boost+3)+0,w
  7816  1759  00A5               	movwf	0+(?_i2c_byte_write)+05h
  7817  175A  160A  158A  20C7   	fcall	_i2c_byte_write
              160A  118A         
  7818                           	line	339
  7819                           	
  7820  175F                     l8184:	
  7821                           ;FM_RADIO_main.c: 339: fm_fcon_write(fcont_pp);
  7822  175F  0879               	movf	(_fcont_pp+1),w
  7823  1760  1283               	bcf	status, 5	;RP0=0, select bank0
  7824  1761  1303               	bcf	status, 6	;RP1=0, select bank0
  7825  1762  01B6               	clrf	(?_fm_fcon_write+1)
  7826  1763  07B6               	addwf	(?_fm_fcon_write+1)
  7827  1764  0878               	movf	(_fcont_pp),w
  7828  1765  01B5               	clrf	(?_fm_fcon_write)
  7829  1766  07B5               	addwf	(?_fm_fcon_write)
  7830                           
  7831  1767  160A  158A  21A2   	fcall	_fm_fcon_write
              160A  118A         
  7832                           	line	340
  7833                           	
  7834  176C                     l8186:	
  7835                           ;FM_RADIO_main.c: 340: lcd_int(2, 0x05, boost);
  7836  176C  3002               	movlw	low(02h)
  7837  176D  1283               	bcf	status, 5	;RP0=0, select bank0
  7838  176E  1303               	bcf	status, 6	;RP1=0, select bank0
  7839  176F  00AE               	movwf	(?_lcd_int)
  7840  1770  3000               	movlw	high(02h)
  7841  1771  00AF               	movwf	((?_lcd_int))+1
  7842  1772  3005               	movlw	low(05h)
  7843  1773  00B0               	movwf	0+(?_lcd_int)+02h
  7844  1774  3000               	movlw	high(05h)
  7845  1775  00B1               	movwf	(0+(?_lcd_int)+02h)+1
  7846  1776  0846               	movf	(buss_boost@boost),w
  7847  1777  00C2               	movwf	(??_buss_boost+0)+0
  7848  1778  01C3               	clrf	(??_buss_boost+0)+0+1
  7849  1779  0842               	movf	0+(??_buss_boost+0)+0,w
  7850  177A  00B2               	movwf	0+(?_lcd_int)+04h
  7851  177B  0843               	movf	1+(??_buss_boost+0)+0,w
  7852  177C  00B3               	movwf	1+(?_lcd_int)+04h
  7853  177D  120A  118A  2768   	fcall	_lcd_int
              160A  118A         
  7854                           	line	341
  7855                           ;FM_RADIO_main.c: 341: while (RA2);
  7856  1782  2F83               	goto	l1165
  7857                           	
  7858  1783                     l1166:	
  7859                           	
  7860  1783                     l1165:	
  7861  1783  1283               	bcf	status, 5	;RP0=0, select bank0
  7862  1784  1303               	bcf	status, 6	;RP1=0, select bank0
  7863  1785  1905               	btfsc	(42/8),(42)&7
  7864  1786  2F88               	goto	u6911
  7865  1787  2F89               	goto	u6910
  7866  1788                     u6911:
  7867  1788  2F83               	goto	l1165
  7868  1789                     u6910:
  7869  1789  2F8B               	goto	l1158
  7870                           	
  7871  178A                     l1167:	
  7872  178A  2F8B               	goto	l1158
  7873                           	line	342
  7874                           	
  7875  178B                     l1164:	
  7876                           	line	343
  7877                           	
  7878  178B                     l1158:	
  7879                           	line	326
  7880  178B  1D05               	btfss	(42/8),(42)&7
  7881  178C  2F8E               	goto	u6921
  7882  178D  2F8F               	goto	u6920
  7883  178E                     u6921:
  7884  178E  2ECF               	goto	l8160
  7885  178F                     u6920:
  7886                           	
  7887  178F                     l8188:	
  7888  178F  1885               	btfsc	(41/8),(41)&7
  7889  1790  2F92               	goto	u6931
  7890  1791  2F93               	goto	u6930
  7891  1792                     u6931:
  7892  1792  2ECF               	goto	l8160
  7893  1793                     u6930:
  7894                           	
  7895  1793                     l8190:	
  7896  1793  1985               	btfsc	(43/8),(43)&7
  7897  1794  2F96               	goto	u6941
  7898  1795  2F97               	goto	u6940
  7899  1796                     u6941:
  7900  1796  2ECF               	goto	l8160
  7901  1797                     u6940:
  7902  1797  2F98               	goto	l8192
  7903                           	
  7904  1798                     l1168:	
  7905                           	line	344
  7906                           	
  7907  1798                     l8192:	
  7908                           ;FM_RADIO_main.c: 342: }
  7909                           ;FM_RADIO_main.c: 343: }
  7910                           ;FM_RADIO_main.c: 344: eeprom_write(86, boost);
  7911  1798  0846               	movf	(buss_boost@boost),w
  7912  1799  00C2               	movwf	(??_buss_boost+0)+0
  7913  179A  0842               	movf	(??_buss_boost+0)+0,w
  7914  179B  00F5               	movwf	(?_eeprom_write)
  7915  179C  3056               	movlw	(056h)
  7916  179D  160A  158A  2090   	fcall	_eeprom_write
              160A  118A         
  7917                           	line	345
  7918                           ;FM_RADIO_main.c: 345: i2c_byte_write(0, 0x7C, 0x00, (0x80 + 0x44), 0);
  7919  17A2  3000               	movlw	low(0)
  7920  17A3  1283               	bcf	status, 5	;RP0=0, select bank0
  7921  17A4  1303               	bcf	status, 6	;RP1=0, select bank0
  7922  17A5  00A0               	movwf	(?_i2c_byte_write)
  7923  17A6  3000               	movlw	high(0)
  7924  17A7  00A1               	movwf	((?_i2c_byte_write))+1
  7925  17A8  307C               	movlw	(07Ch)
  7926  17A9  00C2               	movwf	(??_buss_boost+0)+0
  7927  17AA  0842               	movf	(??_buss_boost+0)+0,w
  7928  17AB  00A2               	movwf	0+(?_i2c_byte_write)+02h
  7929  17AC  01A3               	clrf	0+(?_i2c_byte_write)+03h
  7930  17AD  30C4               	movlw	(0C4h)
  7931  17AE  00C3               	movwf	(??_buss_boost+1)+0
  7932  17AF  0843               	movf	(??_buss_boost+1)+0,w
  7933  17B0  00A4               	movwf	0+(?_i2c_byte_write)+04h
  7934  17B1  01A5               	clrf	0+(?_i2c_byte_write)+05h
  7935  17B2  160A  158A  20C7   	fcall	_i2c_byte_write
              160A  118A         
  7936                           	line	346
  7937                           ;FM_RADIO_main.c: 346: i2c_byte_write(0, 0x7C, 0xC0, ' ', 0);
  7938  17B7  3000               	movlw	low(0)
  7939  17B8  1283               	bcf	status, 5	;RP0=0, select bank0
  7940  17B9  1303               	bcf	status, 6	;RP1=0, select bank0
  7941  17BA  00A0               	movwf	(?_i2c_byte_write)
  7942  17BB  3000               	movlw	high(0)
  7943  17BC  00A1               	movwf	((?_i2c_byte_write))+1
  7944  17BD  307C               	movlw	(07Ch)
  7945  17BE  00C2               	movwf	(??_buss_boost+0)+0
  7946  17BF  0842               	movf	(??_buss_boost+0)+0,w
  7947  17C0  00A2               	movwf	0+(?_i2c_byte_write)+02h
  7948  17C1  30C0               	movlw	(0C0h)
  7949  17C2  00C3               	movwf	(??_buss_boost+1)+0
  7950  17C3  0843               	movf	(??_buss_boost+1)+0,w
  7951  17C4  00A3               	movwf	0+(?_i2c_byte_write)+03h
  7952  17C5  3020               	movlw	(020h)
  7953  17C6  00C4               	movwf	(??_buss_boost+2)+0
  7954  17C7  0844               	movf	(??_buss_boost+2)+0,w
  7955  17C8  00A4               	movwf	0+(?_i2c_byte_write)+04h
  7956  17C9  01A5               	clrf	0+(?_i2c_byte_write)+05h
  7957  17CA  160A  158A  20C7   	fcall	_i2c_byte_write
              160A  118A         
  7958                           	line	347
  7959                           ;FM_RADIO_main.c: 347: i2c_byte_write(0, 0x7C, 0xC0, 'O', 0);
  7960  17CF  3000               	movlw	low(0)
  7961  17D0  1283               	bcf	status, 5	;RP0=0, select bank0
  7962  17D1  1303               	bcf	status, 6	;RP1=0, select bank0
  7963  17D2  00A0               	movwf	(?_i2c_byte_write)
  7964  17D3  3000               	movlw	high(0)
  7965  17D4  00A1               	movwf	((?_i2c_byte_write))+1
  7966  17D5  307C               	movlw	(07Ch)
  7967  17D6  00C2               	movwf	(??_buss_boost+0)+0
  7968  17D7  0842               	movf	(??_buss_boost+0)+0,w
  7969  17D8  00A2               	movwf	0+(?_i2c_byte_write)+02h
  7970  17D9  30C0               	movlw	(0C0h)
  7971  17DA  00C3               	movwf	(??_buss_boost+1)+0
  7972  17DB  0843               	movf	(??_buss_boost+1)+0,w
  7973  17DC  00A3               	movwf	0+(?_i2c_byte_write)+03h
  7974  17DD  304F               	movlw	(04Fh)
  7975  17DE  00C4               	movwf	(??_buss_boost+2)+0
  7976  17DF  0844               	movf	(??_buss_boost+2)+0,w
  7977  17E0  00A4               	movwf	0+(?_i2c_byte_write)+04h
  7978  17E1  01A5               	clrf	0+(?_i2c_byte_write)+05h
  7979  17E2  160A  158A  20C7   	fcall	_i2c_byte_write
              160A  118A         
  7980                           	line	348
  7981                           ;FM_RADIO_main.c: 348: i2c_byte_write(0, 0x7C, 0xC0, 'K', 0);
  7982  17E7  3000               	movlw	low(0)
  7983  17E8  1283               	bcf	status, 5	;RP0=0, select bank0
  7984  17E9  1303               	bcf	status, 6	;RP1=0, select bank0
  7985  17EA  00A0               	movwf	(?_i2c_byte_write)
  7986  17EB  3000               	movlw	high(0)
  7987  17EC  00A1               	movwf	((?_i2c_byte_write))+1
  7988  17ED  307C               	movlw	(07Ch)
  7989  17EE  00C2               	movwf	(??_buss_boost+0)+0
  7990  17EF  0842               	movf	(??_buss_boost+0)+0,w
  7991  17F0  00A2               	movwf	0+(?_i2c_byte_write)+02h
  7992  17F1  30C0               	movlw	(0C0h)
  7993  17F2  00C3               	movwf	(??_buss_boost+1)+0
  7994  17F3  0843               	movf	(??_buss_boost+1)+0,w
  7995  17F4  00A3               	movwf	0+(?_i2c_byte_write)+03h
  7996  17F5  304B               	movlw	(04Bh)
  7997  17F6  00C4               	movwf	(??_buss_boost+2)+0
  7998  17F7  0844               	movf	(??_buss_boost+2)+0,w
  7999  17F8  00A4               	movwf	0+(?_i2c_byte_write)+04h
  8000  17F9  01A5               	clrf	0+(?_i2c_byte_write)+05h
  8001  17FA  160A  158A  20C7   	fcall	_i2c_byte_write
              160A  118A         
  8002                           	line	349
  8003                           	
  8004  17FF                     l1169:	
  8005  17FF  0008               	return
  8006                           	opt stack 0
  8007                           GLOBAL	__end_of_buss_boost
  8008  1800                     	__end_of_buss_boost:
  8009 ;; =============== function _buss_boost ends ============
  8010                           
  8011                           	signat	_buss_boost,90
  8012                           	global	_seek_SNR
  8013                           psect	text901,local,class=CODE,delta=2
  8014                           global __ptext901
  8015  1318                     __ptext901:
  8016                           
  8017 ;; *************** function _seek_SNR *****************
  8018 ;; Defined at:
  8019 ;;		line 289 in file "FM_RADIO_main.c"
  8020 ;; Parameters:    Size  Location     Type
  8021 ;;		None
  8022 ;; Auto vars:     Size  Location     Type
  8023 ;;  SNR             2   39[BANK0 ] int 
  8024 ;;  endf            2   37[BANK0 ] int 
  8025 ;; Return value:  Size  Location     Type
  8026 ;;                  2  1137[COMMON] int 
  8027 ;; Registers used:
  8028 ;;		wreg, fsr0l, fsr0h, status,2, status,0, btemp+1, pclath, cstack
  8029 ;; Tracked objects:
  8030 ;;		On entry : 0/0
  8031 ;;		On exit  : 0/0
  8032 ;;		Unchanged: 0/0
  8033 ;; Data sizes:     COMMON   BANK0   BANK1   BANK3   BANK2
  8034 ;;      Params:         0       0       0       0       0
  8035 ;;      Locals:         0       4       0       0       0
  8036 ;;      Temps:          0      10       0       0       0
  8037 ;;      Totals:         0      14       0       0       0
  8038 ;;Total ram usage:       14 bytes
  8039 ;; Hardware stack levels used:    1
  8040 ;; Hardware stack levels required when called:    4
  8041 ;; This function calls:
  8042 ;;		_eeprom_read
  8043 ;;		_lcd_int
  8044 ;;		_i2c_byte_read
  8045 ;;		_i2c_byte_write
  8046 ;;		_eeprom_write
  8047 ;; This function is called by:
  8048 ;;		_fmNo_in
  8049 ;; This function uses a non-reentrant model
  8050 ;;
  8051                           psect	text901
  8052                           	file	"FM_RADIO_main.c"
  8053                           	line	289
  8054                           	global	__size_of_seek_SNR
  8055  01A1                     	__size_of_seek_SNR	equ	__end_of_seek_SNR-_seek_SNR
  8056                           	
  8057  1318                     _seek_SNR:	
  8058                           	opt	stack 2
  8059                           ; Regs used in _seek_SNR: [wreg-fsr0h+status,2+status,0+btemp+1+pclath+cstack]
  8060                           	line	291
  8061                           	
  8062  1318                     l8108:	
  8063                           ;FM_RADIO_main.c: 290: int SNR, endf;
  8064                           ;FM_RADIO_main.c: 291: SNR = eeprom_read(85);
  8065  1318  3055               	movlw	(055h)
  8066  1319  160A  158A  2048   	fcall	_eeprom_read
              160A  118A         
  8067  131E  1283               	bcf	status, 5	;RP0=0, select bank0
  8068  131F  1303               	bcf	status, 6	;RP1=0, select bank0
  8069  1320  00BB               	movwf	(??_seek_SNR+0)+0
  8070  1321  01BC               	clrf	(??_seek_SNR+0)+0+1
  8071  1322  083B               	movf	0+(??_seek_SNR+0)+0,w
  8072  1323  00C7               	movwf	(seek_SNR@SNR)
  8073  1324  083C               	movf	1+(??_seek_SNR+0)+0,w
  8074  1325  00C8               	movwf	(seek_SNR@SNR+1)
  8075                           	line	292
  8076                           ;FM_RADIO_main.c: 292: lcd_int(2, 0x05, SNR);
  8077  1326  3002               	movlw	low(02h)
  8078  1327  00AE               	movwf	(?_lcd_int)
  8079  1328  3000               	movlw	high(02h)
  8080  1329  00AF               	movwf	((?_lcd_int))+1
  8081  132A  3005               	movlw	low(05h)
  8082  132B  00B0               	movwf	0+(?_lcd_int)+02h
  8083  132C  3000               	movlw	high(05h)
  8084  132D  00B1               	movwf	(0+(?_lcd_int)+02h)+1
  8085  132E  0848               	movf	(seek_SNR@SNR+1),w
  8086  132F  01B3               	clrf	1+(?_lcd_int)+04h
  8087  1330  07B3               	addwf	1+(?_lcd_int)+04h
  8088  1331  0847               	movf	(seek_SNR@SNR),w
  8089  1332  01B2               	clrf	0+(?_lcd_int)+04h
  8090  1333  07B2               	addwf	0+(?_lcd_int)+04h
  8091                           
  8092  1334  120A  118A  2768   	fcall	_lcd_int
              160A  118A         
  8093                           	line	293
  8094                           ;FM_RADIO_main.c: 293: while (RA2 || RA1 || RA3);
  8095  1339  2B3A               	goto	l1138
  8096                           	
  8097  133A                     l1139:	
  8098                           	
  8099  133A                     l1138:	
  8100  133A  1283               	bcf	status, 5	;RP0=0, select bank0
  8101  133B  1303               	bcf	status, 6	;RP1=0, select bank0
  8102  133C  1905               	btfsc	(42/8),(42)&7
  8103  133D  2B3F               	goto	u6691
  8104  133E  2B40               	goto	u6690
  8105  133F                     u6691:
  8106  133F  2B3A               	goto	l1138
  8107  1340                     u6690:
  8108                           	
  8109  1340                     l8110:	
  8110  1340  1885               	btfsc	(41/8),(41)&7
  8111  1341  2B43               	goto	u6701
  8112  1342  2B44               	goto	u6700
  8113  1343                     u6701:
  8114  1343  2B3A               	goto	l1138
  8115  1344                     u6700:
  8116                           	
  8117  1344                     l8112:	
  8118  1344  1985               	btfsc	(43/8),(43)&7
  8119  1345  2B47               	goto	u6711
  8120  1346  2B48               	goto	u6710
  8121  1347                     u6711:
  8122  1347  2B3A               	goto	l1138
  8123  1348                     u6710:
  8124  1348  2C42               	goto	l1141
  8125                           	
  8126  1349                     l1140:	
  8127                           	line	294
  8128                           ;FM_RADIO_main.c: 294: while (!RA2 || (RA1 || RA3)) {
  8129  1349  2C42               	goto	l1141
  8130                           	
  8131  134A                     l1142:	
  8132                           	line	295
  8133                           	
  8134  134A                     l8114:	
  8135                           ;FM_RADIO_main.c: 295: endf = ((i2c_byte_read(1, 0b01101010, 0x14) & 0b11000000) >> 6) +
                                  ((i2c_byte_read(0, 0b01101010, 0x14) & 0b00011111) << 2);
  8136  134A  3000               	movlw	low(0)
  8137  134B  00A6               	movwf	(?_i2c_byte_read)
  8138  134C  3000               	movlw	high(0)
  8139  134D  00A7               	movwf	((?_i2c_byte_read))+1
  8140  134E  306A               	movlw	(06Ah)
  8141  134F  00BB               	movwf	(??_seek_SNR+0)+0
  8142  1350  083B               	movf	(??_seek_SNR+0)+0,w
  8143  1351  00A8               	movwf	0+(?_i2c_byte_read)+02h
  8144  1352  3014               	movlw	(014h)
  8145  1353  00BC               	movwf	(??_seek_SNR+1)+0
  8146  1354  083C               	movf	(??_seek_SNR+1)+0,w
  8147  1355  00A9               	movwf	0+(?_i2c_byte_read)+03h
  8148  1356  160A  158A  2269   	fcall	_i2c_byte_read
              160A  118A         
  8149  135B  301F               	movlw	low(01Fh)
  8150  135C  1283               	bcf	status, 5	;RP0=0, select bank0
  8151  135D  1303               	bcf	status, 6	;RP1=0, select bank0
  8152  135E  0526               	andwf	(0+(?_i2c_byte_read)),w
  8153  135F  00BD               	movwf	(??_seek_SNR+2)+0
  8154  1360  3000               	movlw	high(01Fh)
  8155  1361  0527               	andwf	(1+(?_i2c_byte_read)),w
  8156  1362  00BE               	movwf	1+(??_seek_SNR+2)+0
  8157  1363  3002               	movlw	02h
  8158  1364  00FF               	movwf	btemp+1
  8159  1365                     u6725:
  8160  1365  1003               	clrc
  8161  1366  0DBD               	rlf	(??_seek_SNR+2)+0,f
  8162  1367  0DBE               	rlf	(??_seek_SNR+2)+1,f
  8163  1368  0BFF               	decfsz	btemp+1,f
  8164  1369  2B65               	goto	u6725
  8165  136A  3001               	movlw	low(01h)
  8166  136B  00A6               	movwf	(?_i2c_byte_read)
  8167  136C  3000               	movlw	high(01h)
  8168  136D  00A7               	movwf	((?_i2c_byte_read))+1
  8169  136E  306A               	movlw	(06Ah)
  8170  136F  00BF               	movwf	(??_seek_SNR+4)+0
  8171  1370  083F               	movf	(??_seek_SNR+4)+0,w
  8172  1371  00A8               	movwf	0+(?_i2c_byte_read)+02h
  8173  1372  3014               	movlw	(014h)
  8174  1373  00C0               	movwf	(??_seek_SNR+5)+0
  8175  1374  0840               	movf	(??_seek_SNR+5)+0,w
  8176  1375  00A9               	movwf	0+(?_i2c_byte_read)+03h
  8177  1376  160A  158A  2269   	fcall	_i2c_byte_read
              160A  118A         
  8178  137B  1283               	bcf	status, 5	;RP0=0, select bank0
  8179  137C  1303               	bcf	status, 6	;RP1=0, select bank0
  8180  137D  0826               	movf	(0+?_i2c_byte_read),w
  8181  137E  00C1               	movwf	(??_seek_SNR+6)+0
  8182  137F  0827               	movf	(1+?_i2c_byte_read),w
  8183  1380  00C2               	movwf	((??_seek_SNR+6)+0+1)
  8184  1381  3006               	movlw	06h
  8185  1382  00FF               	movwf	btemp+1
  8186  1383                     u6735:
  8187  1383  0D42               	rlf	(??_seek_SNR+6)+1,w
  8188  1384  0CC2               	rrf	(??_seek_SNR+6)+1,f
  8189  1385  0CC1               	rrf	(??_seek_SNR+6)+0,f
  8190  1386  0BFF               	decfsz	btemp+1,f
  8191  1387  2B83               	goto	u6735
  8192  1388  3003               	movlw	low(03h)
  8193  1389  0541               	andwf	0+(??_seek_SNR+6)+0,w
  8194  138A  00C3               	movwf	(??_seek_SNR+8)+0
  8195  138B  3000               	movlw	high(03h)
  8196  138C  0542               	andwf	1+(??_seek_SNR+6)+0,w
  8197  138D  00C4               	movwf	1+(??_seek_SNR+8)+0
  8198  138E  083D               	movf	0+(??_seek_SNR+2)+0,w
  8199  138F  0743               	addwf	0+(??_seek_SNR+8)+0,w
  8200  1390  00C5               	movwf	(seek_SNR@endf)
  8201  1391  083E               	movf	1+(??_seek_SNR+2)+0,w
  8202  1392  1803               	skipnc
  8203  1393  0A3E               	incf	1+(??_seek_SNR+2)+0,w
  8204  1394  0744               	addwf	1+(??_seek_SNR+8)+0,w
  8205  1395  00C6               	movwf	1+(seek_SNR@endf)
  8206                           	line	296
  8207                           	
  8208  1396                     l8116:	
  8209                           ;FM_RADIO_main.c: 296: i2c_byte_write(0, 0x7C, 0x00, (0x80 + 0x00), 0);
  8210  1396  3000               	movlw	low(0)
  8211  1397  00A0               	movwf	(?_i2c_byte_write)
  8212  1398  3000               	movlw	high(0)
  8213  1399  00A1               	movwf	((?_i2c_byte_write))+1
  8214  139A  307C               	movlw	(07Ch)
  8215  139B  00BB               	movwf	(??_seek_SNR+0)+0
  8216  139C  083B               	movf	(??_seek_SNR+0)+0,w
  8217  139D  00A2               	movwf	0+(?_i2c_byte_write)+02h
  8218  139E  01A3               	clrf	0+(?_i2c_byte_write)+03h
  8219  139F  3080               	movlw	(080h)
  8220  13A0  00BC               	movwf	(??_seek_SNR+1)+0
  8221  13A1  083C               	movf	(??_seek_SNR+1)+0,w
  8222  13A2  00A4               	movwf	0+(?_i2c_byte_write)+04h
  8223  13A3  01A5               	clrf	0+(?_i2c_byte_write)+05h
  8224  13A4  160A  158A  20C7   	fcall	_i2c_byte_write
              160A  118A         
  8225                           	line	297
  8226                           	
  8227  13A9                     l8118:	
  8228                           ;FM_RADIO_main.c: 297: lcd_int(2, 0x40, endf);
  8229  13A9  3002               	movlw	low(02h)
  8230  13AA  1283               	bcf	status, 5	;RP0=0, select bank0
  8231  13AB  1303               	bcf	status, 6	;RP1=0, select bank0
  8232  13AC  00AE               	movwf	(?_lcd_int)
  8233  13AD  3000               	movlw	high(02h)
  8234  13AE  00AF               	movwf	((?_lcd_int))+1
  8235  13AF  3040               	movlw	low(040h)
  8236  13B0  00B0               	movwf	0+(?_lcd_int)+02h
  8237  13B1  3000               	movlw	high(040h)
  8238  13B2  00B1               	movwf	(0+(?_lcd_int)+02h)+1
  8239  13B3  0846               	movf	(seek_SNR@endf+1),w
  8240  13B4  01B3               	clrf	1+(?_lcd_int)+04h
  8241  13B5  07B3               	addwf	1+(?_lcd_int)+04h
  8242  13B6  0845               	movf	(seek_SNR@endf),w
  8243  13B7  01B2               	clrf	0+(?_lcd_int)+04h
  8244  13B8  07B2               	addwf	0+(?_lcd_int)+04h
  8245                           
  8246  13B9  120A  118A  2768   	fcall	_lcd_int
              160A  118A         
  8247                           	line	298
  8248                           	
  8249  13BE                     l8120:	
  8250                           ;FM_RADIO_main.c: 298: _delay((unsigned long)((70)*(4000000/4000.0)));
  8251                           	opt asmopt_off
  8252  13BE  305B               movlw	91
  8253  13BF  1283               	bcf	status, 5	;RP0=0, select bank0
  8254  13C0  1303               	bcf	status, 6	;RP1=0, select bank0
  8255  13C1  00BC               movwf	((??_seek_SNR+0)+0+1),f
  8256  13C2  30E7               	movlw	231
  8257  13C3  00BB               movwf	((??_seek_SNR+0)+0),f
  8258  13C4                     u8177:
  8259  13C4  0BBB               	decfsz	((??_seek_SNR+0)+0),f
  8260  13C5  2BC4               	goto	u8177
  8261  13C6  0BBC               	decfsz	((??_seek_SNR+0)+0+1),f
  8262  13C7  2BC4               	goto	u8177
  8263  13C8  2BC9               	nop2
  8264                           opt asmopt_on
  8265                           
  8266                           	line	299
  8267                           	
  8268  13C9                     l8122:	
  8269                           ;FM_RADIO_main.c: 299: if (RA1 == 1 && (SNR < 127)) {
  8270  13C9  1283               	bcf	status, 5	;RP0=0, select bank0
  8271  13CA  1303               	bcf	status, 6	;RP1=0, select bank0
  8272  13CB  1C85               	btfss	(41/8),(41)&7
  8273  13CC  2BCE               	goto	u6741
  8274  13CD  2BCF               	goto	u6740
  8275  13CE                     u6741:
  8276  13CE  2C00               	goto	l8130
  8277  13CF                     u6740:
  8278                           	
  8279  13CF                     l8124:	
  8280  13CF  0848               	movf	(seek_SNR@SNR+1),w
  8281  13D0  3A80               	xorlw	80h
  8282  13D1  00FF               	movwf	btemp+1
  8283  13D2  3080               	movlw	(high(07Fh))^80h
  8284  13D3  027F               	subwf	btemp+1,w
  8285  13D4  1D03               	skipz
  8286  13D5  2BD8               	goto	u6755
  8287  13D6  307F               	movlw	low(07Fh)
  8288  13D7  0247               	subwf	(seek_SNR@SNR),w
  8289  13D8                     u6755:
  8290                           
  8291  13D8  1803               	skipnc
  8292  13D9  2BDB               	goto	u6751
  8293  13DA  2BDC               	goto	u6750
  8294  13DB                     u6751:
  8295  13DB  2C00               	goto	l8130
  8296  13DC                     u6750:
  8297                           	line	300
  8298                           	
  8299  13DC                     l8126:	
  8300                           ;FM_RADIO_main.c: 300: SNR++;
  8301  13DC  3001               	movlw	low(01h)
  8302  13DD  1283               	bcf	status, 5	;RP0=0, select bank0
  8303  13DE  1303               	bcf	status, 6	;RP1=0, select bank0
  8304  13DF  07C7               	addwf	(seek_SNR@SNR),f
  8305  13E0  1803               	skipnc
  8306  13E1  0AC8               	incf	(seek_SNR@SNR+1),f
  8307  13E2  3000               	movlw	high(01h)
  8308  13E3  07C8               	addwf	(seek_SNR@SNR+1),f
  8309                           	line	301
  8310                           	
  8311  13E4                     l8128:	
  8312                           ;FM_RADIO_main.c: 301: lcd_int(2, 0x05, SNR);
  8313  13E4  3002               	movlw	low(02h)
  8314  13E5  00AE               	movwf	(?_lcd_int)
  8315  13E6  3000               	movlw	high(02h)
  8316  13E7  00AF               	movwf	((?_lcd_int))+1
  8317  13E8  3005               	movlw	low(05h)
  8318  13E9  00B0               	movwf	0+(?_lcd_int)+02h
  8319  13EA  3000               	movlw	high(05h)
  8320  13EB  00B1               	movwf	(0+(?_lcd_int)+02h)+1
  8321  13EC  0848               	movf	(seek_SNR@SNR+1),w
  8322  13ED  01B3               	clrf	1+(?_lcd_int)+04h
  8323  13EE  07B3               	addwf	1+(?_lcd_int)+04h
  8324  13EF  0847               	movf	(seek_SNR@SNR),w
  8325  13F0  01B2               	clrf	0+(?_lcd_int)+04h
  8326  13F1  07B2               	addwf	0+(?_lcd_int)+04h
  8327                           
  8328  13F2  120A  118A  2768   	fcall	_lcd_int
              160A  118A         
  8329                           	line	302
  8330                           ;FM_RADIO_main.c: 302: while (RA2);
  8331  13F7  2BF8               	goto	l1144
  8332                           	
  8333  13F8                     l1145:	
  8334                           	
  8335  13F8                     l1144:	
  8336  13F8  1283               	bcf	status, 5	;RP0=0, select bank0
  8337  13F9  1303               	bcf	status, 6	;RP1=0, select bank0
  8338  13FA  1905               	btfsc	(42/8),(42)&7
  8339  13FB  2BFD               	goto	u6761
  8340  13FC  2BFE               	goto	u6760
  8341  13FD                     u6761:
  8342  13FD  2BF8               	goto	l1144
  8343  13FE                     u6760:
  8344  13FE  2C00               	goto	l8130
  8345                           	
  8346  13FF                     l1146:	
  8347  13FF  2C00               	goto	l8130
  8348                           	line	303
  8349                           	
  8350  1400                     l1143:	
  8351                           	line	304
  8352                           	
  8353  1400                     l8130:	
  8354                           ;FM_RADIO_main.c: 303: }
  8355                           ;FM_RADIO_main.c: 304: _delay((unsigned long)((70)*(4000000/4000.0)));
  8356                           	opt asmopt_off
  8357  1400  305B               movlw	91
  8358  1401  1283               	bcf	status, 5	;RP0=0, select bank0
  8359  1402  1303               	bcf	status, 6	;RP1=0, select bank0
  8360  1403  00BC               movwf	((??_seek_SNR+0)+0+1),f
  8361  1404  30E7               	movlw	231
  8362  1405  00BB               movwf	((??_seek_SNR+0)+0),f
  8363  1406                     u8187:
  8364  1406  0BBB               	decfsz	((??_seek_SNR+0)+0),f
  8365  1407  2C06               	goto	u8187
  8366  1408  0BBC               	decfsz	((??_seek_SNR+0)+0+1),f
  8367  1409  2C06               	goto	u8187
  8368  140A  2C0B               	nop2
  8369                           opt asmopt_on
  8370                           
  8371                           	line	305
  8372                           	
  8373  140B                     l8132:	
  8374                           ;FM_RADIO_main.c: 305: if (RA3 == 1 && (SNR > 0x00)) {
  8375  140B  1283               	bcf	status, 5	;RP0=0, select bank0
  8376  140C  1303               	bcf	status, 6	;RP1=0, select bank0
  8377  140D  1D85               	btfss	(43/8),(43)&7
  8378  140E  2C10               	goto	u6771
  8379  140F  2C11               	goto	u6770
  8380  1410                     u6771:
  8381  1410  2C42               	goto	l1141
  8382  1411                     u6770:
  8383                           	
  8384  1411                     l8134:	
  8385  1411  0848               	movf	(seek_SNR@SNR+1),w
  8386  1412  3A80               	xorlw	80h
  8387  1413  00FF               	movwf	btemp+1
  8388  1414  3080               	movlw	(high(01h))^80h
  8389  1415  027F               	subwf	btemp+1,w
  8390  1416  1D03               	skipz
  8391  1417  2C1A               	goto	u6785
  8392  1418  3001               	movlw	low(01h)
  8393  1419  0247               	subwf	(seek_SNR@SNR),w
  8394  141A                     u6785:
  8395                           
  8396  141A  1C03               	skipc
  8397  141B  2C1D               	goto	u6781
  8398  141C  2C1E               	goto	u6780
  8399  141D                     u6781:
  8400  141D  2C42               	goto	l1141
  8401  141E                     u6780:
  8402                           	line	306
  8403                           	
  8404  141E                     l8136:	
  8405                           ;FM_RADIO_main.c: 306: SNR--;
  8406  141E  30FF               	movlw	low(-1)
  8407  141F  1283               	bcf	status, 5	;RP0=0, select bank0
  8408  1420  1303               	bcf	status, 6	;RP1=0, select bank0
  8409  1421  07C7               	addwf	(seek_SNR@SNR),f
  8410  1422  1803               	skipnc
  8411  1423  0AC8               	incf	(seek_SNR@SNR+1),f
  8412  1424  30FF               	movlw	high(-1)
  8413  1425  07C8               	addwf	(seek_SNR@SNR+1),f
  8414                           	line	307
  8415                           	
  8416  1426                     l8138:	
  8417                           ;FM_RADIO_main.c: 307: lcd_int(2, 0x05, SNR);
  8418  1426  3002               	movlw	low(02h)
  8419  1427  00AE               	movwf	(?_lcd_int)
  8420  1428  3000               	movlw	high(02h)
  8421  1429  00AF               	movwf	((?_lcd_int))+1
  8422  142A  3005               	movlw	low(05h)
  8423  142B  00B0               	movwf	0+(?_lcd_int)+02h
  8424  142C  3000               	movlw	high(05h)
  8425  142D  00B1               	movwf	(0+(?_lcd_int)+02h)+1
  8426  142E  0848               	movf	(seek_SNR@SNR+1),w
  8427  142F  01B3               	clrf	1+(?_lcd_int)+04h
  8428  1430  07B3               	addwf	1+(?_lcd_int)+04h
  8429  1431  0847               	movf	(seek_SNR@SNR),w
  8430  1432  01B2               	clrf	0+(?_lcd_int)+04h
  8431  1433  07B2               	addwf	0+(?_lcd_int)+04h
  8432                           
  8433  1434  120A  118A  2768   	fcall	_lcd_int
              160A  118A         
  8434                           	line	308
  8435                           ;FM_RADIO_main.c: 308: while (RA2);
  8436  1439  2C3A               	goto	l1148
  8437                           	
  8438  143A                     l1149:	
  8439                           	
  8440  143A                     l1148:	
  8441  143A  1283               	bcf	status, 5	;RP0=0, select bank0
  8442  143B  1303               	bcf	status, 6	;RP1=0, select bank0
  8443  143C  1905               	btfsc	(42/8),(42)&7
  8444  143D  2C3F               	goto	u6791
  8445  143E  2C40               	goto	u6790
  8446  143F                     u6791:
  8447  143F  2C3A               	goto	l1148
  8448  1440                     u6790:
  8449  1440  2C42               	goto	l1141
  8450                           	
  8451  1441                     l1150:	
  8452  1441  2C42               	goto	l1141
  8453                           	line	309
  8454                           	
  8455  1442                     l1147:	
  8456                           	line	310
  8457                           	
  8458  1442                     l1141:	
  8459                           	line	294
  8460  1442  1283               	bcf	status, 5	;RP0=0, select bank0
  8461  1443  1303               	bcf	status, 6	;RP1=0, select bank0
  8462  1444  1D05               	btfss	(42/8),(42)&7
  8463  1445  2C47               	goto	u6801
  8464  1446  2C48               	goto	u6800
  8465  1447                     u6801:
  8466  1447  2B4A               	goto	l8114
  8467  1448                     u6800:
  8468                           	
  8469  1448                     l8140:	
  8470  1448  1885               	btfsc	(41/8),(41)&7
  8471  1449  2C4B               	goto	u6811
  8472  144A  2C4C               	goto	u6810
  8473  144B                     u6811:
  8474  144B  2B4A               	goto	l8114
  8475  144C                     u6810:
  8476                           	
  8477  144C                     l8142:	
  8478  144C  1985               	btfsc	(43/8),(43)&7
  8479  144D  2C4F               	goto	u6821
  8480  144E  2C50               	goto	u6820
  8481  144F                     u6821:
  8482  144F  2B4A               	goto	l8114
  8483  1450                     u6820:
  8484  1450  2C51               	goto	l8144
  8485                           	
  8486  1451                     l1151:	
  8487                           	line	311
  8488                           	
  8489  1451                     l8144:	
  8490                           ;FM_RADIO_main.c: 309: }
  8491                           ;FM_RADIO_main.c: 310: }
  8492                           ;FM_RADIO_main.c: 311: eeprom_write(85, SNR);
  8493  1451  0847               	movf	(seek_SNR@SNR),w
  8494  1452  00BB               	movwf	(??_seek_SNR+0)+0
  8495  1453  083B               	movf	(??_seek_SNR+0)+0,w
  8496  1454  00F5               	movwf	(?_eeprom_write)
  8497  1455  3055               	movlw	(055h)
  8498  1456  160A  158A  2090   	fcall	_eeprom_write
              160A  118A         
  8499                           	line	312
  8500                           ;FM_RADIO_main.c: 312: i2c_byte_write(0, 0x7C, 0x00, (0x80 + 0x44), 0);
  8501  145B  3000               	movlw	low(0)
  8502  145C  1283               	bcf	status, 5	;RP0=0, select bank0
  8503  145D  1303               	bcf	status, 6	;RP1=0, select bank0
  8504  145E  00A0               	movwf	(?_i2c_byte_write)
  8505  145F  3000               	movlw	high(0)
  8506  1460  00A1               	movwf	((?_i2c_byte_write))+1
  8507  1461  307C               	movlw	(07Ch)
  8508  1462  00BB               	movwf	(??_seek_SNR+0)+0
  8509  1463  083B               	movf	(??_seek_SNR+0)+0,w
  8510  1464  00A2               	movwf	0+(?_i2c_byte_write)+02h
  8511  1465  01A3               	clrf	0+(?_i2c_byte_write)+03h
  8512  1466  30C4               	movlw	(0C4h)
  8513  1467  00BC               	movwf	(??_seek_SNR+1)+0
  8514  1468  083C               	movf	(??_seek_SNR+1)+0,w
  8515  1469  00A4               	movwf	0+(?_i2c_byte_write)+04h
  8516  146A  01A5               	clrf	0+(?_i2c_byte_write)+05h
  8517  146B  160A  158A  20C7   	fcall	_i2c_byte_write
              160A  118A         
  8518                           	line	313
  8519                           ;FM_RADIO_main.c: 313: i2c_byte_write(0, 0x7C, 0xC0, ' ', 0);
  8520  1470  3000               	movlw	low(0)
  8521  1471  1283               	bcf	status, 5	;RP0=0, select bank0
  8522  1472  1303               	bcf	status, 6	;RP1=0, select bank0
  8523  1473  00A0               	movwf	(?_i2c_byte_write)
  8524  1474  3000               	movlw	high(0)
  8525  1475  00A1               	movwf	((?_i2c_byte_write))+1
  8526  1476  307C               	movlw	(07Ch)
  8527  1477  00BB               	movwf	(??_seek_SNR+0)+0
  8528  1478  083B               	movf	(??_seek_SNR+0)+0,w
  8529  1479  00A2               	movwf	0+(?_i2c_byte_write)+02h
  8530  147A  30C0               	movlw	(0C0h)
  8531  147B  00BC               	movwf	(??_seek_SNR+1)+0
  8532  147C  083C               	movf	(??_seek_SNR+1)+0,w
  8533  147D  00A3               	movwf	0+(?_i2c_byte_write)+03h
  8534  147E  3020               	movlw	(020h)
  8535  147F  00BD               	movwf	(??_seek_SNR+2)+0
  8536  1480  083D               	movf	(??_seek_SNR+2)+0,w
  8537  1481  00A4               	movwf	0+(?_i2c_byte_write)+04h
  8538  1482  01A5               	clrf	0+(?_i2c_byte_write)+05h
  8539  1483  160A  158A  20C7   	fcall	_i2c_byte_write
              160A  118A         
  8540                           	line	314
  8541                           ;FM_RADIO_main.c: 314: i2c_byte_write(0, 0x7C, 0xC0, 'O', 0);
  8542  1488  3000               	movlw	low(0)
  8543  1489  1283               	bcf	status, 5	;RP0=0, select bank0
  8544  148A  1303               	bcf	status, 6	;RP1=0, select bank0
  8545  148B  00A0               	movwf	(?_i2c_byte_write)
  8546  148C  3000               	movlw	high(0)
  8547  148D  00A1               	movwf	((?_i2c_byte_write))+1
  8548  148E  307C               	movlw	(07Ch)
  8549  148F  00BB               	movwf	(??_seek_SNR+0)+0
  8550  1490  083B               	movf	(??_seek_SNR+0)+0,w
  8551  1491  00A2               	movwf	0+(?_i2c_byte_write)+02h
  8552  1492  30C0               	movlw	(0C0h)
  8553  1493  00BC               	movwf	(??_seek_SNR+1)+0
  8554  1494  083C               	movf	(??_seek_SNR+1)+0,w
  8555  1495  00A3               	movwf	0+(?_i2c_byte_write)+03h
  8556  1496  304F               	movlw	(04Fh)
  8557  1497  00BD               	movwf	(??_seek_SNR+2)+0
  8558  1498  083D               	movf	(??_seek_SNR+2)+0,w
  8559  1499  00A4               	movwf	0+(?_i2c_byte_write)+04h
  8560  149A  01A5               	clrf	0+(?_i2c_byte_write)+05h
  8561  149B  160A  158A  20C7   	fcall	_i2c_byte_write
              160A  118A         
  8562                           	line	315
  8563                           ;FM_RADIO_main.c: 315: i2c_byte_write(0, 0x7C, 0xC0, 'K', 0);
  8564  14A0  3000               	movlw	low(0)
  8565  14A1  1283               	bcf	status, 5	;RP0=0, select bank0
  8566  14A2  1303               	bcf	status, 6	;RP1=0, select bank0
  8567  14A3  00A0               	movwf	(?_i2c_byte_write)
  8568  14A4  3000               	movlw	high(0)
  8569  14A5  00A1               	movwf	((?_i2c_byte_write))+1
  8570  14A6  307C               	movlw	(07Ch)
  8571  14A7  00BB               	movwf	(??_seek_SNR+0)+0
  8572  14A8  083B               	movf	(??_seek_SNR+0)+0,w
  8573  14A9  00A2               	movwf	0+(?_i2c_byte_write)+02h
  8574  14AA  30C0               	movlw	(0C0h)
  8575  14AB  00BC               	movwf	(??_seek_SNR+1)+0
  8576  14AC  083C               	movf	(??_seek_SNR+1)+0,w
  8577  14AD  00A3               	movwf	0+(?_i2c_byte_write)+03h
  8578  14AE  304B               	movlw	(04Bh)
  8579  14AF  00BD               	movwf	(??_seek_SNR+2)+0
  8580  14B0  083D               	movf	(??_seek_SNR+2)+0,w
  8581  14B1  00A4               	movwf	0+(?_i2c_byte_write)+04h
  8582  14B2  01A5               	clrf	0+(?_i2c_byte_write)+05h
  8583  14B3  160A  158A  20C7   	fcall	_i2c_byte_write
              160A  118A         
  8584                           	line	316
  8585                           	
  8586  14B8                     l1152:	
  8587  14B8  0008               	return
  8588                           	opt stack 0
  8589                           GLOBAL	__end_of_seek_SNR
  8590  14B9                     	__end_of_seek_SNR:
  8591 ;; =============== function _seek_SNR ends ============
  8592                           
  8593                           	signat	_seek_SNR,90
  8594                           	global	_seek_RSSI
  8595                           psect	text902,local,class=CODE,delta=2
  8596                           global __ptext902
  8597  14B9                     __ptext902:
  8598                           
  8599 ;; *************** function _seek_RSSI *****************
  8600 ;; Defined at:
  8601 ;;		line 259 in file "FM_RADIO_main.c"
  8602 ;; Parameters:    Size  Location     Type
  8603 ;;		None
  8604 ;; Auto vars:     Size  Location     Type
  8605 ;;  RSSI            2   33[BANK0 ] int 
  8606 ;;  endf            2   31[BANK0 ] int 
  8607 ;; Return value:  Size  Location     Type
  8608 ;;                  2  1120[COMMON] int 
  8609 ;; Registers used:
  8610 ;;		wreg, fsr0l, fsr0h, status,2, status,0, btemp+1, pclath, cstack
  8611 ;; Tracked objects:
  8612 ;;		On entry : 0/0
  8613 ;;		On exit  : 0/0
  8614 ;;		Unchanged: 0/0
  8615 ;; Data sizes:     COMMON   BANK0   BANK1   BANK3   BANK2
  8616 ;;      Params:         0       0       0       0       0
  8617 ;;      Locals:         0       4       0       0       0
  8618 ;;      Temps:          0       4       0       0       0
  8619 ;;      Totals:         0       8       0       0       0
  8620 ;;Total ram usage:        8 bytes
  8621 ;; Hardware stack levels used:    1
  8622 ;; Hardware stack levels required when called:    4
  8623 ;; This function calls:
  8624 ;;		_eeprom_read
  8625 ;;		_lcd_int
  8626 ;;		_i2c_byte_read
  8627 ;;		___wmul
  8628 ;;		_i2c_byte_write
  8629 ;;		_eeprom_write
  8630 ;; This function is called by:
  8631 ;;		_fmNo_in
  8632 ;; This function uses a non-reentrant model
  8633 ;;
  8634                           psect	text902
  8635                           	file	"FM_RADIO_main.c"
  8636                           	line	259
  8637                           	global	__size_of_seek_RSSI
  8638  01A2                     	__size_of_seek_RSSI	equ	__end_of_seek_RSSI-_seek_RSSI
  8639                           	
  8640  14B9                     _seek_RSSI:	
  8641                           	opt	stack 2
  8642                           ; Regs used in _seek_RSSI: [wreg-fsr0h+status,2+status,0+btemp+1+pclath+cstack]
  8643                           	line	261
  8644                           	
  8645  14B9                     l8070:	
  8646                           ;FM_RADIO_main.c: 260: int RSSI, endf;
  8647                           ;FM_RADIO_main.c: 261: RSSI = eeprom_read(84);
  8648  14B9  3054               	movlw	(054h)
  8649  14BA  160A  158A  2048   	fcall	_eeprom_read
              160A  118A         
  8650  14BF  1283               	bcf	status, 5	;RP0=0, select bank0
  8651  14C0  1303               	bcf	status, 6	;RP1=0, select bank0
  8652  14C1  00BB               	movwf	(??_seek_RSSI+0)+0
  8653  14C2  01BC               	clrf	(??_seek_RSSI+0)+0+1
  8654  14C3  083B               	movf	0+(??_seek_RSSI+0)+0,w
  8655  14C4  00C1               	movwf	(seek_RSSI@RSSI)
  8656  14C5  083C               	movf	1+(??_seek_RSSI+0)+0,w
  8657  14C6  00C2               	movwf	(seek_RSSI@RSSI+1)
  8658                           	line	262
  8659                           ;FM_RADIO_main.c: 262: lcd_int(2, 0x05, RSSI);
  8660  14C7  3002               	movlw	low(02h)
  8661  14C8  00AE               	movwf	(?_lcd_int)
  8662  14C9  3000               	movlw	high(02h)
  8663  14CA  00AF               	movwf	((?_lcd_int))+1
  8664  14CB  3005               	movlw	low(05h)
  8665  14CC  00B0               	movwf	0+(?_lcd_int)+02h
  8666  14CD  3000               	movlw	high(05h)
  8667  14CE  00B1               	movwf	(0+(?_lcd_int)+02h)+1
  8668  14CF  0842               	movf	(seek_RSSI@RSSI+1),w
  8669  14D0  01B3               	clrf	1+(?_lcd_int)+04h
  8670  14D1  07B3               	addwf	1+(?_lcd_int)+04h
  8671  14D2  0841               	movf	(seek_RSSI@RSSI),w
  8672  14D3  01B2               	clrf	0+(?_lcd_int)+04h
  8673  14D4  07B2               	addwf	0+(?_lcd_int)+04h
  8674                           
  8675  14D5  120A  118A  2768   	fcall	_lcd_int
              160A  118A         
  8676                           	line	263
  8677                           ;FM_RADIO_main.c: 263: while (RA2 || RA1 || RA3);
  8678  14DA  2CDB               	goto	l1121
  8679                           	
  8680  14DB                     l1122:	
  8681                           	
  8682  14DB                     l1121:	
  8683  14DB  1283               	bcf	status, 5	;RP0=0, select bank0
  8684  14DC  1303               	bcf	status, 6	;RP1=0, select bank0
  8685  14DD  1905               	btfsc	(42/8),(42)&7
  8686  14DE  2CE0               	goto	u6561
  8687  14DF  2CE1               	goto	u6560
  8688  14E0                     u6561:
  8689  14E0  2CDB               	goto	l1121
  8690  14E1                     u6560:
  8691                           	
  8692  14E1                     l8072:	
  8693  14E1  1885               	btfsc	(41/8),(41)&7
  8694  14E2  2CE4               	goto	u6571
  8695  14E3  2CE5               	goto	u6570
  8696  14E4                     u6571:
  8697  14E4  2CDB               	goto	l1121
  8698  14E5                     u6570:
  8699                           	
  8700  14E5                     l8074:	
  8701  14E5  1985               	btfsc	(43/8),(43)&7
  8702  14E6  2CE8               	goto	u6581
  8703  14E7  2CE9               	goto	u6580
  8704  14E8                     u6581:
  8705  14E8  2CDB               	goto	l1121
  8706  14E9                     u6580:
  8707  14E9  2DCC               	goto	l1124
  8708                           	
  8709  14EA                     l1123:	
  8710                           	line	264
  8711                           ;FM_RADIO_main.c: 264: while (!RA2 || (RA1 || RA3)) {
  8712  14EA  2DCC               	goto	l1124
  8713                           	
  8714  14EB                     l1125:	
  8715                           	line	265
  8716                           	
  8717  14EB                     l8076:	
  8718                           ;FM_RADIO_main.c: 265: endf = ((i2c_byte_read(1, 0b01101010, 0x12) & 0b11111000) >> 3)*3
                                 ;
  8719  14EB  3012               	movlw	(012h)
  8720  14EC  00BB               	movwf	(??_seek_RSSI+0)+0
  8721  14ED  083B               	movf	(??_seek_RSSI+0)+0,w
  8722  14EE  00A9               	movwf	0+(?_i2c_byte_read)+03h
  8723  14EF  306A               	movlw	(06Ah)
  8724  14F0  00BC               	movwf	(??_seek_RSSI+1)+0
  8725  14F1  083C               	movf	(??_seek_RSSI+1)+0,w
  8726  14F2  00A8               	movwf	0+(?_i2c_byte_read)+02h
  8727  14F3  3001               	movlw	low(01h)
  8728  14F4  00A6               	movwf	(?_i2c_byte_read)
  8729  14F5  3000               	movlw	high(01h)
  8730  14F6  00A7               	movwf	((?_i2c_byte_read))+1
  8731  14F7  160A  158A  2269   	fcall	_i2c_byte_read
              160A  118A         
  8732  14FC  1283               	bcf	status, 5	;RP0=0, select bank0
  8733  14FD  1303               	bcf	status, 6	;RP1=0, select bank0
  8734  14FE  0826               	movf	(0+?_i2c_byte_read),w
  8735  14FF  00BD               	movwf	(??_seek_RSSI+2)+0
  8736  1500  0827               	movf	(1+?_i2c_byte_read),w
  8737  1501  00BE               	movwf	((??_seek_RSSI+2)+0+1)
  8738  1502  3003               	movlw	03h
  8739  1503  00FF               	movwf	btemp+1
  8740  1504                     u6595:
  8741  1504  0D3E               	rlf	(??_seek_RSSI+2)+1,w
  8742  1505  0CBE               	rrf	(??_seek_RSSI+2)+1,f
  8743  1506  0CBD               	rrf	(??_seek_RSSI+2)+0,f
  8744  1507  0BFF               	decfsz	btemp+1,f
  8745  1508  2D04               	goto	u6595
  8746  1509  301F               	movlw	low(01Fh)
  8747  150A  053D               	andwf	0+(??_seek_RSSI+2)+0,w
  8748  150B  00A0               	movwf	(?___wmul)
  8749  150C  3000               	movlw	high(01Fh)
  8750  150D  053E               	andwf	1+(??_seek_RSSI+2)+0,w
  8751  150E  00A1               	movwf	1+(?___wmul)
  8752  150F  3003               	movlw	low(03h)
  8753  1510  00A2               	movwf	0+(?___wmul)+02h
  8754  1511  3000               	movlw	high(03h)
  8755  1512  00A3               	movwf	(0+(?___wmul)+02h)+1
  8756  1513  160A  118A  2000   	fcall	___wmul
              160A  118A         
  8757  1518  1283               	bcf	status, 5	;RP0=0, select bank0
  8758  1519  1303               	bcf	status, 6	;RP1=0, select bank0
  8759  151A  0821               	movf	(1+(?___wmul)),w
  8760  151B  01C0               	clrf	(seek_RSSI@endf+1)
  8761  151C  07C0               	addwf	(seek_RSSI@endf+1)
  8762  151D  0820               	movf	(0+(?___wmul)),w
  8763  151E  01BF               	clrf	(seek_RSSI@endf)
  8764  151F  07BF               	addwf	(seek_RSSI@endf)
  8765                           
  8766                           	line	266
  8767                           	
  8768  1520                     l8078:	
  8769                           ;FM_RADIO_main.c: 266: i2c_byte_write(0, 0x7C, 0x00, (0x80 + 0x00), 0);
  8770  1520  3000               	movlw	low(0)
  8771  1521  00A0               	movwf	(?_i2c_byte_write)
  8772  1522  3000               	movlw	high(0)
  8773  1523  00A1               	movwf	((?_i2c_byte_write))+1
  8774  1524  307C               	movlw	(07Ch)
  8775  1525  00BB               	movwf	(??_seek_RSSI+0)+0
  8776  1526  083B               	movf	(??_seek_RSSI+0)+0,w
  8777  1527  00A2               	movwf	0+(?_i2c_byte_write)+02h
  8778  1528  01A3               	clrf	0+(?_i2c_byte_write)+03h
  8779  1529  3080               	movlw	(080h)
  8780  152A  00BC               	movwf	(??_seek_RSSI+1)+0
  8781  152B  083C               	movf	(??_seek_RSSI+1)+0,w
  8782  152C  00A4               	movwf	0+(?_i2c_byte_write)+04h
  8783  152D  01A5               	clrf	0+(?_i2c_byte_write)+05h
  8784  152E  160A  158A  20C7   	fcall	_i2c_byte_write
              160A  118A         
  8785                           	line	267
  8786                           	
  8787  1533                     l8080:	
  8788                           ;FM_RADIO_main.c: 267: lcd_int(2, 0x40, endf);
  8789  1533  3002               	movlw	low(02h)
  8790  1534  1283               	bcf	status, 5	;RP0=0, select bank0
  8791  1535  1303               	bcf	status, 6	;RP1=0, select bank0
  8792  1536  00AE               	movwf	(?_lcd_int)
  8793  1537  3000               	movlw	high(02h)
  8794  1538  00AF               	movwf	((?_lcd_int))+1
  8795  1539  3040               	movlw	low(040h)
  8796  153A  00B0               	movwf	0+(?_lcd_int)+02h
  8797  153B  3000               	movlw	high(040h)
  8798  153C  00B1               	movwf	(0+(?_lcd_int)+02h)+1
  8799  153D  0840               	movf	(seek_RSSI@endf+1),w
  8800  153E  01B3               	clrf	1+(?_lcd_int)+04h
  8801  153F  07B3               	addwf	1+(?_lcd_int)+04h
  8802  1540  083F               	movf	(seek_RSSI@endf),w
  8803  1541  01B2               	clrf	0+(?_lcd_int)+04h
  8804  1542  07B2               	addwf	0+(?_lcd_int)+04h
  8805                           
  8806  1543  120A  118A  2768   	fcall	_lcd_int
              160A  118A         
  8807                           	line	268
  8808                           	
  8809  1548                     l8082:	
  8810                           ;FM_RADIO_main.c: 268: _delay((unsigned long)((70)*(4000000/4000.0)));
  8811                           	opt asmopt_off
  8812  1548  305B               movlw	91
  8813  1549  1283               	bcf	status, 5	;RP0=0, select bank0
  8814  154A  1303               	bcf	status, 6	;RP1=0, select bank0
  8815  154B  00BC               movwf	((??_seek_RSSI+0)+0+1),f
  8816  154C  30E7               	movlw	231
  8817  154D  00BB               movwf	((??_seek_RSSI+0)+0),f
  8818  154E                     u8197:
  8819  154E  0BBB               	decfsz	((??_seek_RSSI+0)+0),f
  8820  154F  2D4E               	goto	u8197
  8821  1550  0BBC               	decfsz	((??_seek_RSSI+0)+0+1),f
  8822  1551  2D4E               	goto	u8197
  8823  1552  2D53               	nop2
  8824                           opt asmopt_on
  8825                           
  8826                           	line	269
  8827                           	
  8828  1553                     l8084:	
  8829                           ;FM_RADIO_main.c: 269: if (RA1 == 1 && (RSSI < 93)) {
  8830  1553  1283               	bcf	status, 5	;RP0=0, select bank0
  8831  1554  1303               	bcf	status, 6	;RP1=0, select bank0
  8832  1555  1C85               	btfss	(41/8),(41)&7
  8833  1556  2D58               	goto	u6601
  8834  1557  2D59               	goto	u6600
  8835  1558                     u6601:
  8836  1558  2D8A               	goto	l8092
  8837  1559                     u6600:
  8838                           	
  8839  1559                     l8086:	
  8840  1559  0842               	movf	(seek_RSSI@RSSI+1),w
  8841  155A  3A80               	xorlw	80h
  8842  155B  00FF               	movwf	btemp+1
  8843  155C  3080               	movlw	(high(05Dh))^80h
  8844  155D  027F               	subwf	btemp+1,w
  8845  155E  1D03               	skipz
  8846  155F  2D62               	goto	u6615
  8847  1560  305D               	movlw	low(05Dh)
  8848  1561  0241               	subwf	(seek_RSSI@RSSI),w
  8849  1562                     u6615:
  8850                           
  8851  1562  1803               	skipnc
  8852  1563  2D65               	goto	u6611
  8853  1564  2D66               	goto	u6610
  8854  1565                     u6611:
  8855  1565  2D8A               	goto	l8092
  8856  1566                     u6610:
  8857                           	line	270
  8858                           	
  8859  1566                     l8088:	
  8860                           ;FM_RADIO_main.c: 270: RSSI++;
  8861  1566  3001               	movlw	low(01h)
  8862  1567  1283               	bcf	status, 5	;RP0=0, select bank0
  8863  1568  1303               	bcf	status, 6	;RP1=0, select bank0
  8864  1569  07C1               	addwf	(seek_RSSI@RSSI),f
  8865  156A  1803               	skipnc
  8866  156B  0AC2               	incf	(seek_RSSI@RSSI+1),f
  8867  156C  3000               	movlw	high(01h)
  8868  156D  07C2               	addwf	(seek_RSSI@RSSI+1),f
  8869                           	line	271
  8870                           	
  8871  156E                     l8090:	
  8872                           ;FM_RADIO_main.c: 271: lcd_int(2, 0x05, RSSI);
  8873  156E  3002               	movlw	low(02h)
  8874  156F  00AE               	movwf	(?_lcd_int)
  8875  1570  3000               	movlw	high(02h)
  8876  1571  00AF               	movwf	((?_lcd_int))+1
  8877  1572  3005               	movlw	low(05h)
  8878  1573  00B0               	movwf	0+(?_lcd_int)+02h
  8879  1574  3000               	movlw	high(05h)
  8880  1575  00B1               	movwf	(0+(?_lcd_int)+02h)+1
  8881  1576  0842               	movf	(seek_RSSI@RSSI+1),w
  8882  1577  01B3               	clrf	1+(?_lcd_int)+04h
  8883  1578  07B3               	addwf	1+(?_lcd_int)+04h
  8884  1579  0841               	movf	(seek_RSSI@RSSI),w
  8885  157A  01B2               	clrf	0+(?_lcd_int)+04h
  8886  157B  07B2               	addwf	0+(?_lcd_int)+04h
  8887                           
  8888  157C  120A  118A  2768   	fcall	_lcd_int
              160A  118A         
  8889                           	line	272
  8890                           ;FM_RADIO_main.c: 272: while (RA2);
  8891  1581  2D82               	goto	l1127
  8892                           	
  8893  1582                     l1128:	
  8894                           	
  8895  1582                     l1127:	
  8896  1582  1283               	bcf	status, 5	;RP0=0, select bank0
  8897  1583  1303               	bcf	status, 6	;RP1=0, select bank0
  8898  1584  1905               	btfsc	(42/8),(42)&7
  8899  1585  2D87               	goto	u6621
  8900  1586  2D88               	goto	u6620
  8901  1587                     u6621:
  8902  1587  2D82               	goto	l1127
  8903  1588                     u6620:
  8904  1588  2D8A               	goto	l8092
  8905                           	
  8906  1589                     l1129:	
  8907  1589  2D8A               	goto	l8092
  8908                           	line	273
  8909                           	
  8910  158A                     l1126:	
  8911                           	line	274
  8912                           	
  8913  158A                     l8092:	
  8914                           ;FM_RADIO_main.c: 273: }
  8915                           ;FM_RADIO_main.c: 274: _delay((unsigned long)((70)*(4000000/4000.0)));
  8916                           	opt asmopt_off
  8917  158A  305B               movlw	91
  8918  158B  1283               	bcf	status, 5	;RP0=0, select bank0
  8919  158C  1303               	bcf	status, 6	;RP1=0, select bank0
  8920  158D  00BC               movwf	((??_seek_RSSI+0)+0+1),f
  8921  158E  30E7               	movlw	231
  8922  158F  00BB               movwf	((??_seek_RSSI+0)+0),f
  8923  1590                     u8207:
  8924  1590  0BBB               	decfsz	((??_seek_RSSI+0)+0),f
  8925  1591  2D90               	goto	u8207
  8926  1592  0BBC               	decfsz	((??_seek_RSSI+0)+0+1),f
  8927  1593  2D90               	goto	u8207
  8928  1594  2D95               	nop2
  8929                           opt asmopt_on
  8930                           
  8931                           	line	275
  8932                           	
  8933  1595                     l8094:	
  8934                           ;FM_RADIO_main.c: 275: if (RA3 == 1 && (RSSI > 0x00)) {
  8935  1595  1283               	bcf	status, 5	;RP0=0, select bank0
  8936  1596  1303               	bcf	status, 6	;RP1=0, select bank0
  8937  1597  1D85               	btfss	(43/8),(43)&7
  8938  1598  2D9A               	goto	u6631
  8939  1599  2D9B               	goto	u6630
  8940  159A                     u6631:
  8941  159A  2DCC               	goto	l1124
  8942  159B                     u6630:
  8943                           	
  8944  159B                     l8096:	
  8945  159B  0842               	movf	(seek_RSSI@RSSI+1),w
  8946  159C  3A80               	xorlw	80h
  8947  159D  00FF               	movwf	btemp+1
  8948  159E  3080               	movlw	(high(01h))^80h
  8949  159F  027F               	subwf	btemp+1,w
  8950  15A0  1D03               	skipz
  8951  15A1  2DA4               	goto	u6645
  8952  15A2  3001               	movlw	low(01h)
  8953  15A3  0241               	subwf	(seek_RSSI@RSSI),w
  8954  15A4                     u6645:
  8955                           
  8956  15A4  1C03               	skipc
  8957  15A5  2DA7               	goto	u6641
  8958  15A6  2DA8               	goto	u6640
  8959  15A7                     u6641:
  8960  15A7  2DCC               	goto	l1124
  8961  15A8                     u6640:
  8962                           	line	276
  8963                           	
  8964  15A8                     l8098:	
  8965                           ;FM_RADIO_main.c: 276: RSSI--;
  8966  15A8  30FF               	movlw	low(-1)
  8967  15A9  1283               	bcf	status, 5	;RP0=0, select bank0
  8968  15AA  1303               	bcf	status, 6	;RP1=0, select bank0
  8969  15AB  07C1               	addwf	(seek_RSSI@RSSI),f
  8970  15AC  1803               	skipnc
  8971  15AD  0AC2               	incf	(seek_RSSI@RSSI+1),f
  8972  15AE  30FF               	movlw	high(-1)
  8973  15AF  07C2               	addwf	(seek_RSSI@RSSI+1),f
  8974                           	line	277
  8975                           	
  8976  15B0                     l8100:	
  8977                           ;FM_RADIO_main.c: 277: lcd_int(2, 0x05, RSSI);
  8978  15B0  3002               	movlw	low(02h)
  8979  15B1  00AE               	movwf	(?_lcd_int)
  8980  15B2  3000               	movlw	high(02h)
  8981  15B3  00AF               	movwf	((?_lcd_int))+1
  8982  15B4  3005               	movlw	low(05h)
  8983  15B5  00B0               	movwf	0+(?_lcd_int)+02h
  8984  15B6  3000               	movlw	high(05h)
  8985  15B7  00B1               	movwf	(0+(?_lcd_int)+02h)+1
  8986  15B8  0842               	movf	(seek_RSSI@RSSI+1),w
  8987  15B9  01B3               	clrf	1+(?_lcd_int)+04h
  8988  15BA  07B3               	addwf	1+(?_lcd_int)+04h
  8989  15BB  0841               	movf	(seek_RSSI@RSSI),w
  8990  15BC  01B2               	clrf	0+(?_lcd_int)+04h
  8991  15BD  07B2               	addwf	0+(?_lcd_int)+04h
  8992                           
  8993  15BE  120A  118A  2768   	fcall	_lcd_int
              160A  118A         
  8994                           	line	278
  8995                           ;FM_RADIO_main.c: 278: while (RA2);
  8996  15C3  2DC4               	goto	l1131
  8997                           	
  8998  15C4                     l1132:	
  8999                           	
  9000  15C4                     l1131:	
  9001  15C4  1283               	bcf	status, 5	;RP0=0, select bank0
  9002  15C5  1303               	bcf	status, 6	;RP1=0, select bank0
  9003  15C6  1905               	btfsc	(42/8),(42)&7
  9004  15C7  2DC9               	goto	u6651
  9005  15C8  2DCA               	goto	u6650
  9006  15C9                     u6651:
  9007  15C9  2DC4               	goto	l1131
  9008  15CA                     u6650:
  9009  15CA  2DCC               	goto	l1124
  9010                           	
  9011  15CB                     l1133:	
  9012  15CB  2DCC               	goto	l1124
  9013                           	line	279
  9014                           	
  9015  15CC                     l1130:	
  9016                           	line	280
  9017                           	
  9018  15CC                     l1124:	
  9019                           	line	264
  9020  15CC  1283               	bcf	status, 5	;RP0=0, select bank0
  9021  15CD  1303               	bcf	status, 6	;RP1=0, select bank0
  9022  15CE  1D05               	btfss	(42/8),(42)&7
  9023  15CF  2DD1               	goto	u6661
  9024  15D0  2DD2               	goto	u6660
  9025  15D1                     u6661:
  9026  15D1  2CEB               	goto	l8076
  9027  15D2                     u6660:
  9028                           	
  9029  15D2                     l8102:	
  9030  15D2  1885               	btfsc	(41/8),(41)&7
  9031  15D3  2DD5               	goto	u6671
  9032  15D4  2DD6               	goto	u6670
  9033  15D5                     u6671:
  9034  15D5  2CEB               	goto	l8076
  9035  15D6                     u6670:
  9036                           	
  9037  15D6                     l8104:	
  9038  15D6  1985               	btfsc	(43/8),(43)&7
  9039  15D7  2DD9               	goto	u6681
  9040  15D8  2DDA               	goto	u6680
  9041  15D9                     u6681:
  9042  15D9  2CEB               	goto	l8076
  9043  15DA                     u6680:
  9044  15DA  2DDB               	goto	l8106
  9045                           	
  9046  15DB                     l1134:	
  9047                           	line	281
  9048                           	
  9049  15DB                     l8106:	
  9050                           ;FM_RADIO_main.c: 279: }
  9051                           ;FM_RADIO_main.c: 280: }
  9052                           ;FM_RADIO_main.c: 281: eeprom_write(84, RSSI);
  9053  15DB  0841               	movf	(seek_RSSI@RSSI),w
  9054  15DC  00BB               	movwf	(??_seek_RSSI+0)+0
  9055  15DD  083B               	movf	(??_seek_RSSI+0)+0,w
  9056  15DE  00F5               	movwf	(?_eeprom_write)
  9057  15DF  3054               	movlw	(054h)
  9058  15E0  160A  158A  2090   	fcall	_eeprom_write
              160A  118A         
  9059                           	line	282
  9060                           ;FM_RADIO_main.c: 282: i2c_byte_write(0, 0x7C, 0x00, (0x80 + 0x43), 0);
  9061  15E5  3000               	movlw	low(0)
  9062  15E6  1283               	bcf	status, 5	;RP0=0, select bank0
  9063  15E7  1303               	bcf	status, 6	;RP1=0, select bank0
  9064  15E8  00A0               	movwf	(?_i2c_byte_write)
  9065  15E9  3000               	movlw	high(0)
  9066  15EA  00A1               	movwf	((?_i2c_byte_write))+1
  9067  15EB  307C               	movlw	(07Ch)
  9068  15EC  00BB               	movwf	(??_seek_RSSI+0)+0
  9069  15ED  083B               	movf	(??_seek_RSSI+0)+0,w
  9070  15EE  00A2               	movwf	0+(?_i2c_byte_write)+02h
  9071  15EF  01A3               	clrf	0+(?_i2c_byte_write)+03h
  9072  15F0  30C3               	movlw	(0C3h)
  9073  15F1  00BC               	movwf	(??_seek_RSSI+1)+0
  9074  15F2  083C               	movf	(??_seek_RSSI+1)+0,w
  9075  15F3  00A4               	movwf	0+(?_i2c_byte_write)+04h
  9076  15F4  01A5               	clrf	0+(?_i2c_byte_write)+05h
  9077  15F5  160A  158A  20C7   	fcall	_i2c_byte_write
              160A  118A         
  9078                           	line	283
  9079                           ;FM_RADIO_main.c: 283: i2c_byte_write(0, 0x7C, 0xC0, ' ', 0);
  9080  15FA  3000               	movlw	low(0)
  9081  15FB  1283               	bcf	status, 5	;RP0=0, select bank0
  9082  15FC  1303               	bcf	status, 6	;RP1=0, select bank0
  9083  15FD  00A0               	movwf	(?_i2c_byte_write)
  9084  15FE  3000               	movlw	high(0)
  9085  15FF  00A1               	movwf	((?_i2c_byte_write))+1
  9086  1600  307C               	movlw	(07Ch)
  9087  1601  00BB               	movwf	(??_seek_RSSI+0)+0
  9088  1602  083B               	movf	(??_seek_RSSI+0)+0,w
  9089  1603  00A2               	movwf	0+(?_i2c_byte_write)+02h
  9090  1604  30C0               	movlw	(0C0h)
  9091  1605  00BC               	movwf	(??_seek_RSSI+1)+0
  9092  1606  083C               	movf	(??_seek_RSSI+1)+0,w
  9093  1607  00A3               	movwf	0+(?_i2c_byte_write)+03h
  9094  1608  3020               	movlw	(020h)
  9095  1609  00BD               	movwf	(??_seek_RSSI+2)+0
  9096  160A  083D               	movf	(??_seek_RSSI+2)+0,w
  9097  160B  00A4               	movwf	0+(?_i2c_byte_write)+04h
  9098  160C  01A5               	clrf	0+(?_i2c_byte_write)+05h
  9099  160D  160A  158A  20C7   	fcall	_i2c_byte_write
              160A  118A         
  9100                           	line	284
  9101                           ;FM_RADIO_main.c: 284: i2c_byte_write(0, 0x7C, 0xC0, ' ', 0);
  9102  1612  3000               	movlw	low(0)
  9103  1613  1283               	bcf	status, 5	;RP0=0, select bank0
  9104  1614  1303               	bcf	status, 6	;RP1=0, select bank0
  9105  1615  00A0               	movwf	(?_i2c_byte_write)
  9106  1616  3000               	movlw	high(0)
  9107  1617  00A1               	movwf	((?_i2c_byte_write))+1
  9108  1618  307C               	movlw	(07Ch)
  9109  1619  00BB               	movwf	(??_seek_RSSI+0)+0
  9110  161A  083B               	movf	(??_seek_RSSI+0)+0,w
  9111  161B  00A2               	movwf	0+(?_i2c_byte_write)+02h
  9112  161C  30C0               	movlw	(0C0h)
  9113  161D  00BC               	movwf	(??_seek_RSSI+1)+0
  9114  161E  083C               	movf	(??_seek_RSSI+1)+0,w
  9115  161F  00A3               	movwf	0+(?_i2c_byte_write)+03h
  9116  1620  3020               	movlw	(020h)
  9117  1621  00BD               	movwf	(??_seek_RSSI+2)+0
  9118  1622  083D               	movf	(??_seek_RSSI+2)+0,w
  9119  1623  00A4               	movwf	0+(?_i2c_byte_write)+04h
  9120  1624  01A5               	clrf	0+(?_i2c_byte_write)+05h
  9121  1625  160A  158A  20C7   	fcall	_i2c_byte_write
              160A  118A         
  9122                           	line	285
  9123                           ;FM_RADIO_main.c: 285: i2c_byte_write(0, 0x7C, 0xC0, 'O', 0);
  9124  162A  3000               	movlw	low(0)
  9125  162B  1283               	bcf	status, 5	;RP0=0, select bank0
  9126  162C  1303               	bcf	status, 6	;RP1=0, select bank0
  9127  162D  00A0               	movwf	(?_i2c_byte_write)
  9128  162E  3000               	movlw	high(0)
  9129  162F  00A1               	movwf	((?_i2c_byte_write))+1
  9130  1630  307C               	movlw	(07Ch)
  9131  1631  00BB               	movwf	(??_seek_RSSI+0)+0
  9132  1632  083B               	movf	(??_seek_RSSI+0)+0,w
  9133  1633  00A2               	movwf	0+(?_i2c_byte_write)+02h
  9134  1634  30C0               	movlw	(0C0h)
  9135  1635  00BC               	movwf	(??_seek_RSSI+1)+0
  9136  1636  083C               	movf	(??_seek_RSSI+1)+0,w
  9137  1637  00A3               	movwf	0+(?_i2c_byte_write)+03h
  9138  1638  304F               	movlw	(04Fh)
  9139  1639  00BD               	movwf	(??_seek_RSSI+2)+0
  9140  163A  083D               	movf	(??_seek_RSSI+2)+0,w
  9141  163B  00A4               	movwf	0+(?_i2c_byte_write)+04h
  9142  163C  01A5               	clrf	0+(?_i2c_byte_write)+05h
  9143  163D  160A  158A  20C7   	fcall	_i2c_byte_write
              160A  118A         
  9144                           	line	286
  9145                           ;FM_RADIO_main.c: 286: i2c_byte_write(0, 0x7C, 0xC0, 'K', 0);
  9146  1642  3000               	movlw	low(0)
  9147  1643  1283               	bcf	status, 5	;RP0=0, select bank0
  9148  1644  1303               	bcf	status, 6	;RP1=0, select bank0
  9149  1645  00A0               	movwf	(?_i2c_byte_write)
  9150  1646  3000               	movlw	high(0)
  9151  1647  00A1               	movwf	((?_i2c_byte_write))+1
  9152  1648  307C               	movlw	(07Ch)
  9153  1649  00BB               	movwf	(??_seek_RSSI+0)+0
  9154  164A  083B               	movf	(??_seek_RSSI+0)+0,w
  9155  164B  00A2               	movwf	0+(?_i2c_byte_write)+02h
  9156  164C  30C0               	movlw	(0C0h)
  9157  164D  00BC               	movwf	(??_seek_RSSI+1)+0
  9158  164E  083C               	movf	(??_seek_RSSI+1)+0,w
  9159  164F  00A3               	movwf	0+(?_i2c_byte_write)+03h
  9160  1650  304B               	movlw	(04Bh)
  9161  1651  00BD               	movwf	(??_seek_RSSI+2)+0
  9162  1652  083D               	movf	(??_seek_RSSI+2)+0,w
  9163  1653  00A4               	movwf	0+(?_i2c_byte_write)+04h
  9164  1654  01A5               	clrf	0+(?_i2c_byte_write)+05h
  9165  1655  160A  158A  20C7   	fcall	_i2c_byte_write
              160A  118A         
  9166                           	line	287
  9167                           	
  9168  165A                     l1135:	
  9169  165A  0008               	return
  9170                           	opt stack 0
  9171                           GLOBAL	__end_of_seek_RSSI
  9172  165B                     	__end_of_seek_RSSI:
  9173 ;; =============== function _seek_RSSI ends ============
  9174                           
  9175                           	signat	_seek_RSSI,90
  9176                           	global	_fm_fcon_write
  9177                           psect	text903,local,class=CODE,delta=2
  9178                           global __ptext903
  9179  19A2                     __ptext903:
  9180                           
  9181 ;; *************** function _fm_fcon_write *****************
  9182 ;; Defined at:
  9183 ;;		line 255 in file "FM_RADIO_main.c"
  9184 ;; Parameters:    Size  Location     Type
  9185 ;;  fconv           2   21[BANK0 ] int 
  9186 ;; Auto vars:     Size  Location     Type
  9187 ;;		None
  9188 ;; Return value:  Size  Location     Type
  9189 ;;                  2   21[BANK0 ] int 
  9190 ;; Registers used:
  9191 ;;		wreg, status,2, status,0, btemp+1, pclath, cstack
  9192 ;; Tracked objects:
  9193 ;;		On entry : 0/0
  9194 ;;		On exit  : 0/0
  9195 ;;		Unchanged: 0/0
  9196 ;; Data sizes:     COMMON   BANK0   BANK1   BANK3   BANK2
  9197 ;;      Params:         0       2       0       0       0
  9198 ;;      Locals:         0       0       0       0       0
  9199 ;;      Temps:          0      11       0       0       0
  9200 ;;      Totals:         0      13       0       0       0
  9201 ;;Total ram usage:       13 bytes
  9202 ;; Hardware stack levels used:    1
  9203 ;; Hardware stack levels required when called:    3
  9204 ;; This function calls:
  9205 ;;		_i2c_byte_write
  9206 ;; This function is called by:
  9207 ;;		_buss_boost
  9208 ;;		_fm_serch
  9209 ;;		_main
  9210 ;; This function uses a non-reentrant model
  9211 ;;
  9212                           psect	text903
  9213                           	file	"FM_RADIO_main.c"
  9214                           	line	255
  9215                           	global	__size_of_fm_fcon_write
  9216  005F                     	__size_of_fm_fcon_write	equ	__end_of_fm_fcon_write-_fm_fcon_write
  9217                           	
  9218  19A2                     _fm_fcon_write:	
  9219                           	opt	stack 2
  9220                           ; Regs used in _fm_fcon_write: [wreg+status,2+status,0+btemp+1+pclath+cstack]
  9221                           	line	256
  9222                           	
  9223  19A2                     l8066:	
  9224                           ;FM_RADIO_main.c: 256: i2c_byte_write(1, 0b01101010, 0x03, ((((fconv << 1) & 0xff00) + 0
                                 x0000) >> 8), (fconv << 1) & 0x00ff);
  9225  19A2  3001               	movlw	low(01h)
  9226  19A3  1283               	bcf	status, 5	;RP0=0, select bank0
  9227  19A4  1303               	bcf	status, 6	;RP1=0, select bank0
  9228  19A5  00A0               	movwf	(?_i2c_byte_write)
  9229  19A6  3000               	movlw	high(01h)
  9230  19A7  00A1               	movwf	((?_i2c_byte_write))+1
  9231  19A8  306A               	movlw	(06Ah)
  9232  19A9  00B7               	movwf	(??_fm_fcon_write+0)+0
  9233  19AA  0837               	movf	(??_fm_fcon_write+0)+0,w
  9234  19AB  00A2               	movwf	0+(?_i2c_byte_write)+02h
  9235  19AC  3003               	movlw	(03h)
  9236  19AD  00B8               	movwf	(??_fm_fcon_write+1)+0
  9237  19AE  0838               	movf	(??_fm_fcon_write+1)+0,w
  9238  19AF  00A3               	movwf	0+(?_i2c_byte_write)+03h
  9239  19B0  0836               	movf	(fm_fcon_write@fconv+1),w
  9240  19B1  00BA               	movwf	(??_fm_fcon_write+2)+0+1
  9241  19B2  0835               	movf	(fm_fcon_write@fconv),w
  9242  19B3  00B9               	movwf	(??_fm_fcon_write+2)+0
  9243  19B4  3007               	movlw	07h
  9244  19B5                     u6545:
  9245  19B5  1003               	clrc
  9246  19B6  0CBA               	rrf	(??_fm_fcon_write+2)+1,f
  9247  19B7  0CB9               	rrf	(??_fm_fcon_write+2)+0,f
  9248  19B8  3EFF               	addlw	-1
  9249  19B9  1D03               	skipz
  9250  19BA  29B5               	goto	u6545
  9251  19BB  0839               	movf	0+(??_fm_fcon_write+2)+0,w
  9252  19BC  00BB               	movwf	(??_fm_fcon_write+4)+0
  9253  19BD  083B               	movf	(??_fm_fcon_write+4)+0,w
  9254  19BE  00A4               	movwf	0+(?_i2c_byte_write)+04h
  9255  19BF  0835               	movf	(fm_fcon_write@fconv),w
  9256  19C0  00BC               	movwf	(??_fm_fcon_write+5)+0
  9257  19C1  073C               	addwf	(??_fm_fcon_write+5)+0,w
  9258  19C2  00BD               	movwf	(??_fm_fcon_write+6)+0
  9259  19C3  083D               	movf	(??_fm_fcon_write+6)+0,w
  9260  19C4  00A5               	movwf	0+(?_i2c_byte_write)+05h
  9261  19C5  160A  158A  20C7   	fcall	_i2c_byte_write
              160A  158A         
  9262                           	line	257
  9263                           	
  9264  19CA                     l8068:	
  9265                           ;FM_RADIO_main.c: 257: i2c_byte_write(1, 0b01101010, 0x03, ((((fconv << 1) & 0xff00) + 0
                                 x8000) >> 8), (fconv << 1) & 0x00ff);
  9266  19CA  3001               	movlw	low(01h)
  9267  19CB  1283               	bcf	status, 5	;RP0=0, select bank0
  9268  19CC  1303               	bcf	status, 6	;RP1=0, select bank0
  9269  19CD  00A0               	movwf	(?_i2c_byte_write)
  9270  19CE  3000               	movlw	high(01h)
  9271  19CF  00A1               	movwf	((?_i2c_byte_write))+1
  9272  19D0  306A               	movlw	(06Ah)
  9273  19D1  00B7               	movwf	(??_fm_fcon_write+0)+0
  9274  19D2  0837               	movf	(??_fm_fcon_write+0)+0,w
  9275  19D3  00A2               	movwf	0+(?_i2c_byte_write)+02h
  9276  19D4  3003               	movlw	(03h)
  9277  19D5  00B8               	movwf	(??_fm_fcon_write+1)+0
  9278  19D6  0838               	movf	(??_fm_fcon_write+1)+0,w
  9279  19D7  00A3               	movwf	0+(?_i2c_byte_write)+03h
  9280  19D8  0836               	movf	(fm_fcon_write@fconv+1),w
  9281  19D9  00BA               	movwf	(??_fm_fcon_write+2)+0+1
  9282  19DA  0835               	movf	(fm_fcon_write@fconv),w
  9283  19DB  00B9               	movwf	(??_fm_fcon_write+2)+0
  9284  19DC  3001               	movlw	01h
  9285  19DD  00FF               	movwf	btemp+1
  9286  19DE                     u6555:
  9287  19DE  1003               	clrc
  9288  19DF  0DB9               	rlf	(??_fm_fcon_write+2)+0,f
  9289  19E0  0DBA               	rlf	(??_fm_fcon_write+2)+1,f
  9290  19E1  0BFF               	decfsz	btemp+1,f
  9291  19E2  29DE               	goto	u6555
  9292  19E3  3000               	movlw	low(0FF00h)
  9293  19E4  0539               	andwf	0+(??_fm_fcon_write+2)+0,w
  9294  19E5  00BB               	movwf	(??_fm_fcon_write+4)+0
  9295  19E6  30FF               	movlw	high(0FF00h)
  9296  19E7  053A               	andwf	1+(??_fm_fcon_write+2)+0,w
  9297  19E8  00BC               	movwf	1+(??_fm_fcon_write+4)+0
  9298  19E9  083B               	movf	0+(??_fm_fcon_write+4)+0,w
  9299  19EA  3E00               	addlw	low(08000h)
  9300  19EB  00BD               	movwf	(??_fm_fcon_write+6)+0
  9301  19EC  083C               	movf	1+(??_fm_fcon_write+4)+0,w
  9302  19ED  1803               	skipnc
  9303  19EE  3E01               	addlw	1
  9304  19EF  3E80               	addlw	high(08000h)
  9305  19F0  00BE               	movwf	1+(??_fm_fcon_write+6)+0
  9306  19F1  083E               	movf	1+(??_fm_fcon_write+6)+0,w
  9307  19F2  00BF               	movwf	(??_fm_fcon_write+8)+0
  9308  19F3  083F               	movf	(??_fm_fcon_write+8)+0,w
  9309  19F4  00A4               	movwf	0+(?_i2c_byte_write)+04h
  9310  19F5  0835               	movf	(fm_fcon_write@fconv),w
  9311  19F6  00C0               	movwf	(??_fm_fcon_write+9)+0
  9312  19F7  0740               	addwf	(??_fm_fcon_write+9)+0,w
  9313  19F8  00C1               	movwf	(??_fm_fcon_write+10)+0
  9314  19F9  0841               	movf	(??_fm_fcon_write+10)+0,w
  9315  19FA  00A5               	movwf	0+(?_i2c_byte_write)+05h
  9316  19FB  160A  158A  20C7   	fcall	_i2c_byte_write
              160A  158A         
  9317                           	line	258
  9318                           	
  9319  1A00                     l1118:	
  9320  1A00  0008               	return
  9321                           	opt stack 0
  9322                           GLOBAL	__end_of_fm_fcon_write
  9323  1A01                     	__end_of_fm_fcon_write:
  9324 ;; =============== function _fm_fcon_write ends ============
  9325                           
  9326                           	signat	_fm_fcon_write,4218
  9327                           	global	_start_LCD_POINT
  9328                           psect	text904,local,class=CODE,delta=2
  9329                           global __ptext904
  9330  1DC1                     __ptext904:
  9331                           
  9332 ;; *************** function _start_LCD_POINT *****************
  9333 ;; Defined at:
  9334 ;;		line 241 in file "FM_RADIO_main.c"
  9335 ;; Parameters:    Size  Location     Type
  9336 ;;		None
  9337 ;; Auto vars:     Size  Location     Type
  9338 ;;		None
  9339 ;; Return value:  Size  Location     Type
  9340 ;;                  2  1114[COMMON] int 
  9341 ;; Registers used:
  9342 ;;		wreg, status,2, status,0, pclath, cstack
  9343 ;; Tracked objects:
  9344 ;;		On entry : 0/0
  9345 ;;		On exit  : 0/0
  9346 ;;		Unchanged: 0/0
  9347 ;; Data sizes:     COMMON   BANK0   BANK1   BANK3   BANK2
  9348 ;;      Params:         0       0       0       0       0
  9349 ;;      Locals:         0       0       0       0       0
  9350 ;;      Temps:          0       3       0       0       0
  9351 ;;      Totals:         0       3       0       0       0
  9352 ;;Total ram usage:        3 bytes
  9353 ;; Hardware stack levels used:    1
  9354 ;; Hardware stack levels required when called:    3
  9355 ;; This function calls:
  9356 ;;		_i2c_byte_write
  9357 ;; This function is called by:
  9358 ;;		_fmNo_in
  9359 ;;		_main
  9360 ;; This function uses a non-reentrant model
  9361 ;;
  9362                           psect	text904
  9363                           	file	"FM_RADIO_main.c"
  9364                           	line	241
  9365                           	global	__size_of_start_LCD_POINT
  9366  00FD                     	__size_of_start_LCD_POINT	equ	__end_of_start_LCD_POINT-_start_LCD_POINT
  9367                           	
  9368  1DC1                     _start_LCD_POINT:	
  9369                           	opt	stack 3
  9370                           ; Regs used in _start_LCD_POINT: [wreg+status,2+status,0+pclath+cstack]
  9371                           	line	242
  9372                           	
  9373  1DC1                     l8064:	
  9374                           ;FM_RADIO_main.c: 242: i2c_byte_write(0, 0x7C, 0x00, (0x80 + 0x03), 0);
  9375  1DC1  3000               	movlw	low(0)
  9376  1DC2  1283               	bcf	status, 5	;RP0=0, select bank0
  9377  1DC3  1303               	bcf	status, 6	;RP1=0, select bank0
  9378  1DC4  00A0               	movwf	(?_i2c_byte_write)
  9379  1DC5  3000               	movlw	high(0)
  9380  1DC6  00A1               	movwf	((?_i2c_byte_write))+1
  9381  1DC7  307C               	movlw	(07Ch)
  9382  1DC8  00A7               	movwf	(??_start_LCD_POINT+0)+0
  9383  1DC9  0827               	movf	(??_start_LCD_POINT+0)+0,w
  9384  1DCA  00A2               	movwf	0+(?_i2c_byte_write)+02h
  9385  1DCB  01A3               	clrf	0+(?_i2c_byte_write)+03h
  9386  1DCC  3083               	movlw	(083h)
  9387  1DCD  00A8               	movwf	(??_start_LCD_POINT+1)+0
  9388  1DCE  0828               	movf	(??_start_LCD_POINT+1)+0,w
  9389  1DCF  00A4               	movwf	0+(?_i2c_byte_write)+04h
  9390  1DD0  01A5               	clrf	0+(?_i2c_byte_write)+05h
  9391  1DD1  160A  158A  20C7   	fcall	_i2c_byte_write
              160A  158A         
  9392                           	line	243
  9393                           ;FM_RADIO_main.c: 243: i2c_byte_write(0, 0x7C, 0xC0, '.', 0);
  9394  1DD6  3000               	movlw	low(0)
  9395  1DD7  1283               	bcf	status, 5	;RP0=0, select bank0
  9396  1DD8  1303               	bcf	status, 6	;RP1=0, select bank0
  9397  1DD9  00A0               	movwf	(?_i2c_byte_write)
  9398  1DDA  3000               	movlw	high(0)
  9399  1DDB  00A1               	movwf	((?_i2c_byte_write))+1
  9400  1DDC  307C               	movlw	(07Ch)
  9401  1DDD  00A7               	movwf	(??_start_LCD_POINT+0)+0
  9402  1DDE  0827               	movf	(??_start_LCD_POINT+0)+0,w
  9403  1DDF  00A2               	movwf	0+(?_i2c_byte_write)+02h
  9404  1DE0  30C0               	movlw	(0C0h)
  9405  1DE1  00A8               	movwf	(??_start_LCD_POINT+1)+0
  9406  1DE2  0828               	movf	(??_start_LCD_POINT+1)+0,w
  9407  1DE3  00A3               	movwf	0+(?_i2c_byte_write)+03h
  9408  1DE4  302E               	movlw	(02Eh)
  9409  1DE5  00A9               	movwf	(??_start_LCD_POINT+2)+0
  9410  1DE6  0829               	movf	(??_start_LCD_POINT+2)+0,w
  9411  1DE7  00A4               	movwf	0+(?_i2c_byte_write)+04h
  9412  1DE8  01A5               	clrf	0+(?_i2c_byte_write)+05h
  9413  1DE9  160A  158A  20C7   	fcall	_i2c_byte_write
              160A  158A         
  9414                           	line	244
  9415                           ;FM_RADIO_main.c: 244: i2c_byte_write(0, 0x7C, 0x00, (0x80 + 0x05), 0);
  9416  1DEE  3000               	movlw	low(0)
  9417  1DEF  1283               	bcf	status, 5	;RP0=0, select bank0
  9418  1DF0  1303               	bcf	status, 6	;RP1=0, select bank0
  9419  1DF1  00A0               	movwf	(?_i2c_byte_write)
  9420  1DF2  3000               	movlw	high(0)
  9421  1DF3  00A1               	movwf	((?_i2c_byte_write))+1
  9422  1DF4  307C               	movlw	(07Ch)
  9423  1DF5  00A7               	movwf	(??_start_LCD_POINT+0)+0
  9424  1DF6  0827               	movf	(??_start_LCD_POINT+0)+0,w
  9425  1DF7  00A2               	movwf	0+(?_i2c_byte_write)+02h
  9426  1DF8  01A3               	clrf	0+(?_i2c_byte_write)+03h
  9427  1DF9  3085               	movlw	(085h)
  9428  1DFA  00A8               	movwf	(??_start_LCD_POINT+1)+0
  9429  1DFB  0828               	movf	(??_start_LCD_POINT+1)+0,w
  9430  1DFC  00A4               	movwf	0+(?_i2c_byte_write)+04h
  9431  1DFD  01A5               	clrf	0+(?_i2c_byte_write)+05h
  9432  1DFE  160A  158A  20C7   	fcall	_i2c_byte_write
              160A  158A         
  9433                           	line	245
  9434                           ;FM_RADIO_main.c: 245: i2c_byte_write(0, 0x7C, 0xC0, 'M', 0);
  9435  1E03  3000               	movlw	low(0)
  9436  1E04  1283               	bcf	status, 5	;RP0=0, select bank0
  9437  1E05  1303               	bcf	status, 6	;RP1=0, select bank0
  9438  1E06  00A0               	movwf	(?_i2c_byte_write)
  9439  1E07  3000               	movlw	high(0)
  9440  1E08  00A1               	movwf	((?_i2c_byte_write))+1
  9441  1E09  307C               	movlw	(07Ch)
  9442  1E0A  00A7               	movwf	(??_start_LCD_POINT+0)+0
  9443  1E0B  0827               	movf	(??_start_LCD_POINT+0)+0,w
  9444  1E0C  00A2               	movwf	0+(?_i2c_byte_write)+02h
  9445  1E0D  30C0               	movlw	(0C0h)
  9446  1E0E  00A8               	movwf	(??_start_LCD_POINT+1)+0
  9447  1E0F  0828               	movf	(??_start_LCD_POINT+1)+0,w
  9448  1E10  00A3               	movwf	0+(?_i2c_byte_write)+03h
  9449  1E11  304D               	movlw	(04Dh)
  9450  1E12  00A9               	movwf	(??_start_LCD_POINT+2)+0
  9451  1E13  0829               	movf	(??_start_LCD_POINT+2)+0,w
  9452  1E14  00A4               	movwf	0+(?_i2c_byte_write)+04h
  9453  1E15  01A5               	clrf	0+(?_i2c_byte_write)+05h
  9454  1E16  160A  158A  20C7   	fcall	_i2c_byte_write
              160A  158A         
  9455                           	line	246
  9456                           ;FM_RADIO_main.c: 246: i2c_byte_write(0, 0x7C, 0xC0, 'H', 0);
  9457  1E1B  3000               	movlw	low(0)
  9458  1E1C  1283               	bcf	status, 5	;RP0=0, select bank0
  9459  1E1D  1303               	bcf	status, 6	;RP1=0, select bank0
  9460  1E1E  00A0               	movwf	(?_i2c_byte_write)
  9461  1E1F  3000               	movlw	high(0)
  9462  1E20  00A1               	movwf	((?_i2c_byte_write))+1
  9463  1E21  307C               	movlw	(07Ch)
  9464  1E22  00A7               	movwf	(??_start_LCD_POINT+0)+0
  9465  1E23  0827               	movf	(??_start_LCD_POINT+0)+0,w
  9466  1E24  00A2               	movwf	0+(?_i2c_byte_write)+02h
  9467  1E25  30C0               	movlw	(0C0h)
  9468  1E26  00A8               	movwf	(??_start_LCD_POINT+1)+0
  9469  1E27  0828               	movf	(??_start_LCD_POINT+1)+0,w
  9470  1E28  00A3               	movwf	0+(?_i2c_byte_write)+03h
  9471  1E29  3048               	movlw	(048h)
  9472  1E2A  00A9               	movwf	(??_start_LCD_POINT+2)+0
  9473  1E2B  0829               	movf	(??_start_LCD_POINT+2)+0,w
  9474  1E2C  00A4               	movwf	0+(?_i2c_byte_write)+04h
  9475  1E2D  01A5               	clrf	0+(?_i2c_byte_write)+05h
  9476  1E2E  160A  158A  20C7   	fcall	_i2c_byte_write
              160A  158A         
  9477                           	line	247
  9478                           ;FM_RADIO_main.c: 247: i2c_byte_write(0, 0x7C, 0xC0, 'z', 0);
  9479  1E33  3000               	movlw	low(0)
  9480  1E34  1283               	bcf	status, 5	;RP0=0, select bank0
  9481  1E35  1303               	bcf	status, 6	;RP1=0, select bank0
  9482  1E36  00A0               	movwf	(?_i2c_byte_write)
  9483  1E37  3000               	movlw	high(0)
  9484  1E38  00A1               	movwf	((?_i2c_byte_write))+1
  9485  1E39  307C               	movlw	(07Ch)
  9486  1E3A  00A7               	movwf	(??_start_LCD_POINT+0)+0
  9487  1E3B  0827               	movf	(??_start_LCD_POINT+0)+0,w
  9488  1E3C  00A2               	movwf	0+(?_i2c_byte_write)+02h
  9489  1E3D  30C0               	movlw	(0C0h)
  9490  1E3E  00A8               	movwf	(??_start_LCD_POINT+1)+0
  9491  1E3F  0828               	movf	(??_start_LCD_POINT+1)+0,w
  9492  1E40  00A3               	movwf	0+(?_i2c_byte_write)+03h
  9493  1E41  307A               	movlw	(07Ah)
  9494  1E42  00A9               	movwf	(??_start_LCD_POINT+2)+0
  9495  1E43  0829               	movf	(??_start_LCD_POINT+2)+0,w
  9496  1E44  00A4               	movwf	0+(?_i2c_byte_write)+04h
  9497  1E45  01A5               	clrf	0+(?_i2c_byte_write)+05h
  9498  1E46  160A  158A  20C7   	fcall	_i2c_byte_write
              160A  158A         
  9499                           	line	248
  9500                           ;FM_RADIO_main.c: 248: i2c_byte_write(0, 0x7C, 0x00, (0x80 + 0x40), 0);
  9501  1E4B  3000               	movlw	low(0)
  9502  1E4C  1283               	bcf	status, 5	;RP0=0, select bank0
  9503  1E4D  1303               	bcf	status, 6	;RP1=0, select bank0
  9504  1E4E  00A0               	movwf	(?_i2c_byte_write)
  9505  1E4F  3000               	movlw	high(0)
  9506  1E50  00A1               	movwf	((?_i2c_byte_write))+1
  9507  1E51  307C               	movlw	(07Ch)
  9508  1E52  00A7               	movwf	(??_start_LCD_POINT+0)+0
  9509  1E53  0827               	movf	(??_start_LCD_POINT+0)+0,w
  9510  1E54  00A2               	movwf	0+(?_i2c_byte_write)+02h
  9511  1E55  01A3               	clrf	0+(?_i2c_byte_write)+03h
  9512  1E56  30C0               	movlw	(0C0h)
  9513  1E57  00A8               	movwf	(??_start_LCD_POINT+1)+0
  9514  1E58  0828               	movf	(??_start_LCD_POINT+1)+0,w
  9515  1E59  00A4               	movwf	0+(?_i2c_byte_write)+04h
  9516  1E5A  01A5               	clrf	0+(?_i2c_byte_write)+05h
  9517  1E5B  160A  158A  20C7   	fcall	_i2c_byte_write
              160A  158A         
  9518                           	line	249
  9519                           ;FM_RADIO_main.c: 249: i2c_byte_write(0, 0x7C, 0xC0, 'N', 0);
  9520  1E60  3000               	movlw	low(0)
  9521  1E61  1283               	bcf	status, 5	;RP0=0, select bank0
  9522  1E62  1303               	bcf	status, 6	;RP1=0, select bank0
  9523  1E63  00A0               	movwf	(?_i2c_byte_write)
  9524  1E64  3000               	movlw	high(0)
  9525  1E65  00A1               	movwf	((?_i2c_byte_write))+1
  9526  1E66  307C               	movlw	(07Ch)
  9527  1E67  00A7               	movwf	(??_start_LCD_POINT+0)+0
  9528  1E68  0827               	movf	(??_start_LCD_POINT+0)+0,w
  9529  1E69  00A2               	movwf	0+(?_i2c_byte_write)+02h
  9530  1E6A  30C0               	movlw	(0C0h)
  9531  1E6B  00A8               	movwf	(??_start_LCD_POINT+1)+0
  9532  1E6C  0828               	movf	(??_start_LCD_POINT+1)+0,w
  9533  1E6D  00A3               	movwf	0+(?_i2c_byte_write)+03h
  9534  1E6E  304E               	movlw	(04Eh)
  9535  1E6F  00A9               	movwf	(??_start_LCD_POINT+2)+0
  9536  1E70  0829               	movf	(??_start_LCD_POINT+2)+0,w
  9537  1E71  00A4               	movwf	0+(?_i2c_byte_write)+04h
  9538  1E72  01A5               	clrf	0+(?_i2c_byte_write)+05h
  9539  1E73  160A  158A  20C7   	fcall	_i2c_byte_write
              160A  158A         
  9540                           	line	250
  9541                           ;FM_RADIO_main.c: 250: i2c_byte_write(0, 0x7C, 0xC0, 'o', 0);
  9542  1E78  3000               	movlw	low(0)
  9543  1E79  1283               	bcf	status, 5	;RP0=0, select bank0
  9544  1E7A  1303               	bcf	status, 6	;RP1=0, select bank0
  9545  1E7B  00A0               	movwf	(?_i2c_byte_write)
  9546  1E7C  3000               	movlw	high(0)
  9547  1E7D  00A1               	movwf	((?_i2c_byte_write))+1
  9548  1E7E  307C               	movlw	(07Ch)
  9549  1E7F  00A7               	movwf	(??_start_LCD_POINT+0)+0
  9550  1E80  0827               	movf	(??_start_LCD_POINT+0)+0,w
  9551  1E81  00A2               	movwf	0+(?_i2c_byte_write)+02h
  9552  1E82  30C0               	movlw	(0C0h)
  9553  1E83  00A8               	movwf	(??_start_LCD_POINT+1)+0
  9554  1E84  0828               	movf	(??_start_LCD_POINT+1)+0,w
  9555  1E85  00A3               	movwf	0+(?_i2c_byte_write)+03h
  9556  1E86  306F               	movlw	(06Fh)
  9557  1E87  00A9               	movwf	(??_start_LCD_POINT+2)+0
  9558  1E88  0829               	movf	(??_start_LCD_POINT+2)+0,w
  9559  1E89  00A4               	movwf	0+(?_i2c_byte_write)+04h
  9560  1E8A  01A5               	clrf	0+(?_i2c_byte_write)+05h
  9561  1E8B  160A  158A  20C7   	fcall	_i2c_byte_write
              160A  158A         
  9562                           	line	251
  9563                           ;FM_RADIO_main.c: 251: i2c_byte_write(0, 0x7C, 0x00, (0x80 + 0x45), 0);
  9564  1E90  3000               	movlw	low(0)
  9565  1E91  1283               	bcf	status, 5	;RP0=0, select bank0
  9566  1E92  1303               	bcf	status, 6	;RP1=0, select bank0
  9567  1E93  00A0               	movwf	(?_i2c_byte_write)
  9568  1E94  3000               	movlw	high(0)
  9569  1E95  00A1               	movwf	((?_i2c_byte_write))+1
  9570  1E96  307C               	movlw	(07Ch)
  9571  1E97  00A7               	movwf	(??_start_LCD_POINT+0)+0
  9572  1E98  0827               	movf	(??_start_LCD_POINT+0)+0,w
  9573  1E99  00A2               	movwf	0+(?_i2c_byte_write)+02h
  9574  1E9A  01A3               	clrf	0+(?_i2c_byte_write)+03h
  9575  1E9B  30C5               	movlw	(0C5h)
  9576  1E9C  00A8               	movwf	(??_start_LCD_POINT+1)+0
  9577  1E9D  0828               	movf	(??_start_LCD_POINT+1)+0,w
  9578  1E9E  00A4               	movwf	0+(?_i2c_byte_write)+04h
  9579  1E9F  01A5               	clrf	0+(?_i2c_byte_write)+05h
  9580  1EA0  160A  158A  20C7   	fcall	_i2c_byte_write
              160A  158A         
  9581                           	line	252
  9582                           ;FM_RADIO_main.c: 252: i2c_byte_write(0, 0x7C, 0xC0, 'v', 0);
  9583  1EA5  3000               	movlw	low(0)
  9584  1EA6  1283               	bcf	status, 5	;RP0=0, select bank0
  9585  1EA7  1303               	bcf	status, 6	;RP1=0, select bank0
  9586  1EA8  00A0               	movwf	(?_i2c_byte_write)
  9587  1EA9  3000               	movlw	high(0)
  9588  1EAA  00A1               	movwf	((?_i2c_byte_write))+1
  9589  1EAB  307C               	movlw	(07Ch)
  9590  1EAC  00A7               	movwf	(??_start_LCD_POINT+0)+0
  9591  1EAD  0827               	movf	(??_start_LCD_POINT+0)+0,w
  9592  1EAE  00A2               	movwf	0+(?_i2c_byte_write)+02h
  9593  1EAF  30C0               	movlw	(0C0h)
  9594  1EB0  00A8               	movwf	(??_start_LCD_POINT+1)+0
  9595  1EB1  0828               	movf	(??_start_LCD_POINT+1)+0,w
  9596  1EB2  00A3               	movwf	0+(?_i2c_byte_write)+03h
  9597  1EB3  3076               	movlw	(076h)
  9598  1EB4  00A9               	movwf	(??_start_LCD_POINT+2)+0
  9599  1EB5  0829               	movf	(??_start_LCD_POINT+2)+0,w
  9600  1EB6  00A4               	movwf	0+(?_i2c_byte_write)+04h
  9601  1EB7  01A5               	clrf	0+(?_i2c_byte_write)+05h
  9602  1EB8  160A  158A  20C7   	fcall	_i2c_byte_write
              160A  158A         
  9603                           	line	253
  9604                           	
  9605  1EBD                     l1115:	
  9606  1EBD  0008               	return
  9607                           	opt stack 0
  9608                           GLOBAL	__end_of_start_LCD_POINT
  9609  1EBE                     	__end_of_start_LCD_POINT:
  9610 ;; =============== function _start_LCD_POINT ends ============
  9611                           
  9612                           	signat	_start_LCD_POINT,90
  9613                           	global	_lcd_float
  9614                           psect	text905,local,class=CODE,delta=2
  9615                           global __ptext905
  9616  1CC7                     __ptext905:
  9617                           
  9618 ;; *************** function _lcd_float *****************
  9619 ;; Defined at:
  9620 ;;		line 226 in file "FM_RADIO_main.c"
  9621 ;; Parameters:    Size  Location     Type
  9622 ;;  charadd         2   21[BANK0 ] unsigned int 
  9623 ;;  cnt1            2   23[BANK0 ] unsigned int 
  9624 ;; Auto vars:     Size  Location     Type
  9625 ;;  LCD_3           2   32[BANK0 ] int 
  9626 ;;  LCD_1           2   30[BANK0 ] int 
  9627 ;;  LCD_2           2   28[BANK0 ] int 
  9628 ;; Return value:  Size  Location     Type
  9629 ;;                  2   21[BANK0 ] int 
  9630 ;; Registers used:
  9631 ;;		wreg, status,2, status,0, pclath, cstack
  9632 ;; Tracked objects:
  9633 ;;		On entry : 0/0
  9634 ;;		On exit  : 0/0
  9635 ;;		Unchanged: 0/0
  9636 ;; Data sizes:     COMMON   BANK0   BANK1   BANK3   BANK2
  9637 ;;      Params:         0       4       0       0       0
  9638 ;;      Locals:         0       6       0       0       0
  9639 ;;      Temps:          0       3       0       0       0
  9640 ;;      Totals:         0      13       0       0       0
  9641 ;;Total ram usage:       13 bytes
  9642 ;; Hardware stack levels used:    1
  9643 ;; Hardware stack levels required when called:    3
  9644 ;; This function calls:
  9645 ;;		___lwdiv
  9646 ;;		___wmul
  9647 ;;		___lwmod
  9648 ;;		_i2c_byte_write
  9649 ;; This function is called by:
  9650 ;;		_fmNo_in
  9651 ;;		_fm_serch
  9652 ;;		_main
  9653 ;; This function uses a non-reentrant model
  9654 ;;
  9655                           psect	text905
  9656                           	file	"FM_RADIO_main.c"
  9657                           	line	226
  9658                           	global	__size_of_lcd_float
  9659  00FA                     	__size_of_lcd_float	equ	__end_of_lcd_float-_lcd_float
  9660                           	
  9661  1CC7                     _lcd_float:	
  9662                           	opt	stack 3
  9663                           ; Regs used in _lcd_float: [wreg+status,2+status,0+pclath+cstack]
  9664                           	line	228
  9665                           	
  9666  1CC7                     l8046:	
  9667                           ;FM_RADIO_main.c: 227: int LCD_3, LCD_2, LCD_1;
  9668                           ;FM_RADIO_main.c: 228: LCD_3 = cnt1 / 100;
  9669  1CC7  3064               	movlw	low(064h)
  9670  1CC8  1283               	bcf	status, 5	;RP0=0, select bank0
  9671  1CC9  1303               	bcf	status, 6	;RP1=0, select bank0
  9672  1CCA  00A6               	movwf	(?___lwdiv)
  9673  1CCB  3000               	movlw	high(064h)
  9674  1CCC  00A7               	movwf	((?___lwdiv))+1
  9675  1CCD  0838               	movf	(lcd_float@cnt1+1),w
  9676  1CCE  01A9               	clrf	1+(?___lwdiv)+02h
  9677  1CCF  07A9               	addwf	1+(?___lwdiv)+02h
  9678  1CD0  0837               	movf	(lcd_float@cnt1),w
  9679  1CD1  01A8               	clrf	0+(?___lwdiv)+02h
  9680  1CD2  07A8               	addwf	0+(?___lwdiv)+02h
  9681                           
  9682  1CD3  160A  158A  2152   	fcall	___lwdiv
              160A  158A         
  9683  1CD8  1283               	bcf	status, 5	;RP0=0, select bank0
  9684  1CD9  1303               	bcf	status, 6	;RP1=0, select bank0
  9685  1CDA  0827               	movf	(1+(?___lwdiv)),w
  9686  1CDB  01C1               	clrf	(lcd_float@LCD_3+1)
  9687  1CDC  07C1               	addwf	(lcd_float@LCD_3+1)
  9688  1CDD  0826               	movf	(0+(?___lwdiv)),w
  9689  1CDE  01C0               	clrf	(lcd_float@LCD_3)
  9690  1CDF  07C0               	addwf	(lcd_float@LCD_3)
  9691                           
  9692                           	line	229
  9693                           ;FM_RADIO_main.c: 229: LCD_2 = (cnt1 - LCD_3 * 100) / 10;
  9694  1CE0  300A               	movlw	low(0Ah)
  9695  1CE1  00A6               	movwf	(?___lwdiv)
  9696  1CE2  3000               	movlw	high(0Ah)
  9697  1CE3  00A7               	movwf	((?___lwdiv))+1
  9698  1CE4  0841               	movf	(lcd_float@LCD_3+1),w
  9699  1CE5  01A1               	clrf	(?___wmul+1)
  9700  1CE6  07A1               	addwf	(?___wmul+1)
  9701  1CE7  0840               	movf	(lcd_float@LCD_3),w
  9702  1CE8  01A0               	clrf	(?___wmul)
  9703  1CE9  07A0               	addwf	(?___wmul)
  9704                           
  9705  1CEA  3064               	movlw	low(064h)
  9706  1CEB  00A2               	movwf	0+(?___wmul)+02h
  9707  1CEC  3000               	movlw	high(064h)
  9708  1CED  00A3               	movwf	(0+(?___wmul)+02h)+1
  9709  1CEE  160A  118A  2000   	fcall	___wmul
              160A  158A         
  9710  1CF3  1283               	bcf	status, 5	;RP0=0, select bank0
  9711  1CF4  1303               	bcf	status, 6	;RP1=0, select bank0
  9712  1CF5  0920               	comf	(0+(?___wmul)),w
  9713  1CF6  00B9               	movwf	(??_lcd_float+0)+0
  9714  1CF7  0921               	comf	(1+(?___wmul)),w
  9715  1CF8  00BA               	movwf	((??_lcd_float+0)+0+1)
  9716  1CF9  0AB9               	incf	(??_lcd_float+0)+0,f
  9717  1CFA  1903               	skipnz
  9718  1CFB  0ABA               	incf	((??_lcd_float+0)+0+1),f
  9719  1CFC  0837               	movf	(lcd_float@cnt1),w
  9720  1CFD  0739               	addwf	0+(??_lcd_float+0)+0,w
  9721  1CFE  00A8               	movwf	0+(?___lwdiv)+02h
  9722  1CFF  0838               	movf	(lcd_float@cnt1+1),w
  9723  1D00  1803               	skipnc
  9724  1D01  0A38               	incf	(lcd_float@cnt1+1),w
  9725  1D02  073A               	addwf	1+(??_lcd_float+0)+0,w
  9726  1D03  00A9               	movwf	1+0+(?___lwdiv)+02h
  9727  1D04  160A  158A  2152   	fcall	___lwdiv
              160A  158A         
  9728  1D09  1283               	bcf	status, 5	;RP0=0, select bank0
  9729  1D0A  1303               	bcf	status, 6	;RP1=0, select bank0
  9730  1D0B  0827               	movf	(1+(?___lwdiv)),w
  9731  1D0C  01BD               	clrf	(lcd_float@LCD_2+1)
  9732  1D0D  07BD               	addwf	(lcd_float@LCD_2+1)
  9733  1D0E  0826               	movf	(0+(?___lwdiv)),w
  9734  1D0F  01BC               	clrf	(lcd_float@LCD_2)
  9735  1D10  07BC               	addwf	(lcd_float@LCD_2)
  9736                           
  9737                           	line	230
  9738                           ;FM_RADIO_main.c: 230: LCD_1 = cnt1 % 10;
  9739  1D11  300A               	movlw	low(0Ah)
  9740  1D12  00A0               	movwf	(?___lwmod)
  9741  1D13  3000               	movlw	high(0Ah)
  9742  1D14  00A1               	movwf	((?___lwmod))+1
  9743  1D15  0838               	movf	(lcd_float@cnt1+1),w
  9744  1D16  01A3               	clrf	1+(?___lwmod)+02h
  9745  1D17  07A3               	addwf	1+(?___lwmod)+02h
  9746  1D18  0837               	movf	(lcd_float@cnt1),w
  9747  1D19  01A2               	clrf	0+(?___lwmod)+02h
  9748  1D1A  07A2               	addwf	0+(?___lwmod)+02h
  9749                           
  9750  1D1B  160A  158A  210C   	fcall	___lwmod
              160A  158A         
  9751  1D20  1283               	bcf	status, 5	;RP0=0, select bank0
  9752  1D21  1303               	bcf	status, 6	;RP1=0, select bank0
  9753  1D22  0821               	movf	(1+(?___lwmod)),w
  9754  1D23  01BF               	clrf	(lcd_float@LCD_1+1)
  9755  1D24  07BF               	addwf	(lcd_float@LCD_1+1)
  9756  1D25  0820               	movf	(0+(?___lwmod)),w
  9757  1D26  01BE               	clrf	(lcd_float@LCD_1)
  9758  1D27  07BE               	addwf	(lcd_float@LCD_1)
  9759                           
  9760                           	line	231
  9761                           	
  9762  1D28                     l8048:	
  9763                           ;FM_RADIO_main.c: 231: LCD_1 = (LCD_1 & 0x0f) | 0x30;
  9764  1D28  300F               	movlw	low(0Fh)
  9765  1D29  053E               	andwf	(lcd_float@LCD_1),w
  9766  1D2A  00B9               	movwf	(??_lcd_float+0)+0
  9767  1D2B  3000               	movlw	high(0Fh)
  9768  1D2C  053F               	andwf	(lcd_float@LCD_1+1),w
  9769  1D2D  00BA               	movwf	1+(??_lcd_float+0)+0
  9770  1D2E  3030               	movlw	low(030h)
  9771  1D2F  0439               	iorwf	0+(??_lcd_float+0)+0,w
  9772  1D30  00BE               	movwf	(lcd_float@LCD_1)
  9773  1D31  3000               	movlw	high(030h)
  9774  1D32  043A               	iorwf	1+(??_lcd_float+0)+0,w
  9775  1D33  00BF               	movwf	1+(lcd_float@LCD_1)
  9776                           	line	232
  9777                           	
  9778  1D34                     l8050:	
  9779                           ;FM_RADIO_main.c: 232: LCD_2 = (LCD_2 & 0x0f) | 0x30;
  9780  1D34  300F               	movlw	low(0Fh)
  9781  1D35  053C               	andwf	(lcd_float@LCD_2),w
  9782  1D36  00B9               	movwf	(??_lcd_float+0)+0
  9783  1D37  3000               	movlw	high(0Fh)
  9784  1D38  053D               	andwf	(lcd_float@LCD_2+1),w
  9785  1D39  00BA               	movwf	1+(??_lcd_float+0)+0
  9786  1D3A  3030               	movlw	low(030h)
  9787  1D3B  0439               	iorwf	0+(??_lcd_float+0)+0,w
  9788  1D3C  00BC               	movwf	(lcd_float@LCD_2)
  9789  1D3D  3000               	movlw	high(030h)
  9790  1D3E  043A               	iorwf	1+(??_lcd_float+0)+0,w
  9791  1D3F  00BD               	movwf	1+(lcd_float@LCD_2)
  9792                           	line	233
  9793                           	
  9794  1D40                     l8052:	
  9795                           ;FM_RADIO_main.c: 233: LCD_3 = (LCD_3 & 0x0f) | 0x30;
  9796  1D40  300F               	movlw	low(0Fh)
  9797  1D41  0540               	andwf	(lcd_float@LCD_3),w
  9798  1D42  00B9               	movwf	(??_lcd_float+0)+0
  9799  1D43  3000               	movlw	high(0Fh)
  9800  1D44  0541               	andwf	(lcd_float@LCD_3+1),w
  9801  1D45  00BA               	movwf	1+(??_lcd_float+0)+0
  9802  1D46  3030               	movlw	low(030h)
  9803  1D47  0439               	iorwf	0+(??_lcd_float+0)+0,w
  9804  1D48  00C0               	movwf	(lcd_float@LCD_3)
  9805  1D49  3000               	movlw	high(030h)
  9806  1D4A  043A               	iorwf	1+(??_lcd_float+0)+0,w
  9807  1D4B  00C1               	movwf	1+(lcd_float@LCD_3)
  9808                           	line	234
  9809                           	
  9810  1D4C                     l8054:	
  9811                           ;FM_RADIO_main.c: 234: i2c_byte_write(0, 0x7C, 0x00, (0x80 + charadd), 0);
  9812  1D4C  3000               	movlw	low(0)
  9813  1D4D  00A0               	movwf	(?_i2c_byte_write)
  9814  1D4E  3000               	movlw	high(0)
  9815  1D4F  00A1               	movwf	((?_i2c_byte_write))+1
  9816  1D50  307C               	movlw	(07Ch)
  9817  1D51  00B9               	movwf	(??_lcd_float+0)+0
  9818  1D52  0839               	movf	(??_lcd_float+0)+0,w
  9819  1D53  00A2               	movwf	0+(?_i2c_byte_write)+02h
  9820  1D54  01A3               	clrf	0+(?_i2c_byte_write)+03h
  9821  1D55  0835               	movf	(lcd_float@charadd),w
  9822  1D56  3E80               	addlw	080h
  9823  1D57  00BA               	movwf	(??_lcd_float+1)+0
  9824  1D58  083A               	movf	(??_lcd_float+1)+0,w
  9825  1D59  00A4               	movwf	0+(?_i2c_byte_write)+04h
  9826  1D5A  01A5               	clrf	0+(?_i2c_byte_write)+05h
  9827  1D5B  160A  158A  20C7   	fcall	_i2c_byte_write
              160A  158A         
  9828                           	line	235
  9829                           	
  9830  1D60                     l8056:	
  9831                           ;FM_RADIO_main.c: 235: i2c_byte_write(0, 0x7C, 0xC0, LCD_3, 0);
  9832  1D60  3000               	movlw	low(0)
  9833  1D61  1283               	bcf	status, 5	;RP0=0, select bank0
  9834  1D62  1303               	bcf	status, 6	;RP1=0, select bank0
  9835  1D63  00A0               	movwf	(?_i2c_byte_write)
  9836  1D64  3000               	movlw	high(0)
  9837  1D65  00A1               	movwf	((?_i2c_byte_write))+1
  9838  1D66  307C               	movlw	(07Ch)
  9839  1D67  00B9               	movwf	(??_lcd_float+0)+0
  9840  1D68  0839               	movf	(??_lcd_float+0)+0,w
  9841  1D69  00A2               	movwf	0+(?_i2c_byte_write)+02h
  9842  1D6A  30C0               	movlw	(0C0h)
  9843  1D6B  00BA               	movwf	(??_lcd_float+1)+0
  9844  1D6C  083A               	movf	(??_lcd_float+1)+0,w
  9845  1D6D  00A3               	movwf	0+(?_i2c_byte_write)+03h
  9846  1D6E  0840               	movf	(lcd_float@LCD_3),w
  9847  1D6F  00BB               	movwf	(??_lcd_float+2)+0
  9848  1D70  083B               	movf	(??_lcd_float+2)+0,w
  9849  1D71  00A4               	movwf	0+(?_i2c_byte_write)+04h
  9850  1D72  01A5               	clrf	0+(?_i2c_byte_write)+05h
  9851  1D73  160A  158A  20C7   	fcall	_i2c_byte_write
              160A  158A         
  9852                           	line	236
  9853                           	
  9854  1D78                     l8058:	
  9855                           ;FM_RADIO_main.c: 236: i2c_byte_write(0, 0x7C, 0xC0, LCD_2, 0);
  9856  1D78  3000               	movlw	low(0)
  9857  1D79  1283               	bcf	status, 5	;RP0=0, select bank0
  9858  1D7A  1303               	bcf	status, 6	;RP1=0, select bank0
  9859  1D7B  00A0               	movwf	(?_i2c_byte_write)
  9860  1D7C  3000               	movlw	high(0)
  9861  1D7D  00A1               	movwf	((?_i2c_byte_write))+1
  9862  1D7E  307C               	movlw	(07Ch)
  9863  1D7F  00B9               	movwf	(??_lcd_float+0)+0
  9864  1D80  0839               	movf	(??_lcd_float+0)+0,w
  9865  1D81  00A2               	movwf	0+(?_i2c_byte_write)+02h
  9866  1D82  30C0               	movlw	(0C0h)
  9867  1D83  00BA               	movwf	(??_lcd_float+1)+0
  9868  1D84  083A               	movf	(??_lcd_float+1)+0,w
  9869  1D85  00A3               	movwf	0+(?_i2c_byte_write)+03h
  9870  1D86  083C               	movf	(lcd_float@LCD_2),w
  9871  1D87  00BB               	movwf	(??_lcd_float+2)+0
  9872  1D88  083B               	movf	(??_lcd_float+2)+0,w
  9873  1D89  00A4               	movwf	0+(?_i2c_byte_write)+04h
  9874  1D8A  01A5               	clrf	0+(?_i2c_byte_write)+05h
  9875  1D8B  160A  158A  20C7   	fcall	_i2c_byte_write
              160A  158A         
  9876                           	line	237
  9877                           	
  9878  1D90                     l8060:	
  9879                           ;FM_RADIO_main.c: 237: i2c_byte_write(0, 0x7C, 0xC0, '.', 0);
  9880  1D90  3000               	movlw	low(0)
  9881  1D91  1283               	bcf	status, 5	;RP0=0, select bank0
  9882  1D92  1303               	bcf	status, 6	;RP1=0, select bank0
  9883  1D93  00A0               	movwf	(?_i2c_byte_write)
  9884  1D94  3000               	movlw	high(0)
  9885  1D95  00A1               	movwf	((?_i2c_byte_write))+1
  9886  1D96  307C               	movlw	(07Ch)
  9887  1D97  00B9               	movwf	(??_lcd_float+0)+0
  9888  1D98  0839               	movf	(??_lcd_float+0)+0,w
  9889  1D99  00A2               	movwf	0+(?_i2c_byte_write)+02h
  9890  1D9A  30C0               	movlw	(0C0h)
  9891  1D9B  00BA               	movwf	(??_lcd_float+1)+0
  9892  1D9C  083A               	movf	(??_lcd_float+1)+0,w
  9893  1D9D  00A3               	movwf	0+(?_i2c_byte_write)+03h
  9894  1D9E  302E               	movlw	(02Eh)
  9895  1D9F  00BB               	movwf	(??_lcd_float+2)+0
  9896  1DA0  083B               	movf	(??_lcd_float+2)+0,w
  9897  1DA1  00A4               	movwf	0+(?_i2c_byte_write)+04h
  9898  1DA2  01A5               	clrf	0+(?_i2c_byte_write)+05h
  9899  1DA3  160A  158A  20C7   	fcall	_i2c_byte_write
              160A  158A         
  9900                           	line	238
  9901                           	
  9902  1DA8                     l8062:	
  9903                           ;FM_RADIO_main.c: 238: i2c_byte_write(0, 0x7C, 0xC0, LCD_1, 0);
  9904  1DA8  3000               	movlw	low(0)
  9905  1DA9  1283               	bcf	status, 5	;RP0=0, select bank0
  9906  1DAA  1303               	bcf	status, 6	;RP1=0, select bank0
  9907  1DAB  00A0               	movwf	(?_i2c_byte_write)
  9908  1DAC  3000               	movlw	high(0)
  9909  1DAD  00A1               	movwf	((?_i2c_byte_write))+1
  9910  1DAE  307C               	movlw	(07Ch)
  9911  1DAF  00B9               	movwf	(??_lcd_float+0)+0
  9912  1DB0  0839               	movf	(??_lcd_float+0)+0,w
  9913  1DB1  00A2               	movwf	0+(?_i2c_byte_write)+02h
  9914  1DB2  30C0               	movlw	(0C0h)
  9915  1DB3  00BA               	movwf	(??_lcd_float+1)+0
  9916  1DB4  083A               	movf	(??_lcd_float+1)+0,w
  9917  1DB5  00A3               	movwf	0+(?_i2c_byte_write)+03h
  9918  1DB6  083E               	movf	(lcd_float@LCD_1),w
  9919  1DB7  00BB               	movwf	(??_lcd_float+2)+0
  9920  1DB8  083B               	movf	(??_lcd_float+2)+0,w
  9921  1DB9  00A4               	movwf	0+(?_i2c_byte_write)+04h
  9922  1DBA  01A5               	clrf	0+(?_i2c_byte_write)+05h
  9923  1DBB  160A  158A  20C7   	fcall	_i2c_byte_write
              160A  158A         
  9924                           	line	239
  9925                           	
  9926  1DC0                     l1112:	
  9927  1DC0  0008               	return
  9928                           	opt stack 0
  9929                           GLOBAL	__end_of_lcd_float
  9930  1DC1                     	__end_of_lcd_float:
  9931 ;; =============== function _lcd_float ends ============
  9932                           
  9933                           	signat	_lcd_float,8314
  9934                           	global	_lcd_int
  9935                           psect	text906,local,class=CODE,delta=2
  9936                           global __ptext906
  9937  0768                     __ptext906:
  9938                           
  9939 ;; *************** function _lcd_int *****************
  9940 ;; Defined at:
  9941 ;;		line 215 in file "FM_RADIO_main.c"
  9942 ;; Parameters:    Size  Location     Type
  9943 ;;  sel             2   14[BANK0 ] int 
  9944 ;;  charadd         2   16[BANK0 ] unsigned int 
  9945 ;;  cnt1            2   18[BANK0 ] unsigned int 
  9946 ;; Auto vars:     Size  Location     Type
  9947 ;;  LCD_1           2   25[BANK0 ] int 
  9948 ;;  LCD_2           2   23[BANK0 ] int 
  9949 ;; Return value:  Size  Location     Type
  9950 ;;                  2   14[BANK0 ] int 
  9951 ;; Registers used:
  9952 ;;		wreg, status,2, status,0, pclath, cstack
  9953 ;; Tracked objects:
  9954 ;;		On entry : 0/0
  9955 ;;		On exit  : 0/0
  9956 ;;		Unchanged: 0/0
  9957 ;; Data sizes:     COMMON   BANK0   BANK1   BANK3   BANK2
  9958 ;;      Params:         0       6       0       0       0
  9959 ;;      Locals:         0       4       0       0       0
  9960 ;;      Temps:          0       3       0       0       0
  9961 ;;      Totals:         0      13       0       0       0
  9962 ;;Total ram usage:       13 bytes
  9963 ;; Hardware stack levels used:    1
  9964 ;; Hardware stack levels required when called:    3
  9965 ;; This function calls:
  9966 ;;		___lwmod
  9967 ;;		___lwdiv
  9968 ;;		_i2c_byte_write
  9969 ;; This function is called by:
  9970 ;;		_seek_RSSI
  9971 ;;		_seek_SNR
  9972 ;;		_buss_boost
  9973 ;;		_fmNo_in
  9974 ;;		_main
  9975 ;; This function uses a non-reentrant model
  9976 ;;
  9977                           psect	text906
  9978                           	file	"FM_RADIO_main.c"
  9979                           	line	215
  9980                           	global	__size_of_lcd_int
  9981  0095                     	__size_of_lcd_int	equ	__end_of_lcd_int-_lcd_int
  9982                           	
  9983  0768                     _lcd_int:	
  9984                           	opt	stack 2
  9985                           ; Regs used in _lcd_int: [wreg+status,2+status,0+pclath+cstack]
  9986                           	line	217
  9987                           	
  9988  0768                     l8036:	
  9989                           ;FM_RADIO_main.c: 216: int LCD_2, LCD_1;
  9990                           ;FM_RADIO_main.c: 217: LCD_1 = cnt1 % 10;
  9991  0768  300A               	movlw	low(0Ah)
  9992  0769  1283               	bcf	status, 5	;RP0=0, select bank0
  9993  076A  1303               	bcf	status, 6	;RP1=0, select bank0
  9994  076B  00A0               	movwf	(?___lwmod)
  9995  076C  3000               	movlw	high(0Ah)
  9996  076D  00A1               	movwf	((?___lwmod))+1
  9997  076E  0833               	movf	(lcd_int@cnt1+1),w
  9998  076F  01A3               	clrf	1+(?___lwmod)+02h
  9999  0770  07A3               	addwf	1+(?___lwmod)+02h
 10000  0771  0832               	movf	(lcd_int@cnt1),w
 10001  0772  01A2               	clrf	0+(?___lwmod)+02h
 10002  0773  07A2               	addwf	0+(?___lwmod)+02h
 10003                           
 10004  0774  160A  158A  210C   	fcall	___lwmod
              120A  118A         
 10005  0779  1283               	bcf	status, 5	;RP0=0, select bank0
 10006  077A  1303               	bcf	status, 6	;RP1=0, select bank0
 10007  077B  0821               	movf	(1+(?___lwmod)),w
 10008  077C  01BA               	clrf	(lcd_int@LCD_1+1)
 10009  077D  07BA               	addwf	(lcd_int@LCD_1+1)
 10010  077E  0820               	movf	(0+(?___lwmod)),w
 10011  077F  01B9               	clrf	(lcd_int@LCD_1)
 10012  0780  07B9               	addwf	(lcd_int@LCD_1)
 10013                           
 10014                           	line	218
 10015                           ;FM_RADIO_main.c: 218: LCD_2 = cnt1 / 10;
 10016  0781  300A               	movlw	low(0Ah)
 10017  0782  00A6               	movwf	(?___lwdiv)
 10018  0783  3000               	movlw	high(0Ah)
 10019  0784  00A7               	movwf	((?___lwdiv))+1
 10020  0785  0833               	movf	(lcd_int@cnt1+1),w
 10021  0786  01A9               	clrf	1+(?___lwdiv)+02h
 10022  0787  07A9               	addwf	1+(?___lwdiv)+02h
 10023  0788  0832               	movf	(lcd_int@cnt1),w
 10024  0789  01A8               	clrf	0+(?___lwdiv)+02h
 10025  078A  07A8               	addwf	0+(?___lwdiv)+02h
 10026                           
 10027  078B  160A  158A  2152   	fcall	___lwdiv
              120A  118A         
 10028  0790  1283               	bcf	status, 5	;RP0=0, select bank0
 10029  0791  1303               	bcf	status, 6	;RP1=0, select bank0
 10030  0792  0827               	movf	(1+(?___lwdiv)),w
 10031  0793  01B8               	clrf	(lcd_int@LCD_2+1)
 10032  0794  07B8               	addwf	(lcd_int@LCD_2+1)
 10033  0795  0826               	movf	(0+(?___lwdiv)),w
 10034  0796  01B7               	clrf	(lcd_int@LCD_2)
 10035  0797  07B7               	addwf	(lcd_int@LCD_2)
 10036                           
 10037                           	line	219
 10038                           	
 10039  0798                     l8038:	
 10040                           ;FM_RADIO_main.c: 219: LCD_1 = (LCD_1 & 0x0f) | 0x30;
 10041  0798  300F               	movlw	low(0Fh)
 10042  0799  0539               	andwf	(lcd_int@LCD_1),w
 10043  079A  00B4               	movwf	(??_lcd_int+0)+0
 10044  079B  3000               	movlw	high(0Fh)
 10045  079C  053A               	andwf	(lcd_int@LCD_1+1),w
 10046  079D  00B5               	movwf	1+(??_lcd_int+0)+0
 10047  079E  3030               	movlw	low(030h)
 10048  079F  0434               	iorwf	0+(??_lcd_int+0)+0,w
 10049  07A0  00B9               	movwf	(lcd_int@LCD_1)
 10050  07A1  3000               	movlw	high(030h)
 10051  07A2  0435               	iorwf	1+(??_lcd_int+0)+0,w
 10052  07A3  00BA               	movwf	1+(lcd_int@LCD_1)
 10053                           	line	220
 10054                           	
 10055  07A4                     l8040:	
 10056                           ;FM_RADIO_main.c: 220: LCD_2 = (LCD_2 & 0x0f) | 0x30;
 10057  07A4  300F               	movlw	low(0Fh)
 10058  07A5  0537               	andwf	(lcd_int@LCD_2),w
 10059  07A6  00B4               	movwf	(??_lcd_int+0)+0
 10060  07A7  3000               	movlw	high(0Fh)
 10061  07A8  0538               	andwf	(lcd_int@LCD_2+1),w
 10062  07A9  00B5               	movwf	1+(??_lcd_int+0)+0
 10063  07AA  3030               	movlw	low(030h)
 10064  07AB  0434               	iorwf	0+(??_lcd_int+0)+0,w
 10065  07AC  00B7               	movwf	(lcd_int@LCD_2)
 10066  07AD  3000               	movlw	high(030h)
 10067  07AE  0435               	iorwf	1+(??_lcd_int+0)+0,w
 10068  07AF  00B8               	movwf	1+(lcd_int@LCD_2)
 10069                           	line	221
 10070                           ;FM_RADIO_main.c: 221: i2c_byte_write(0, 0x7C, 0x00, (0x80 + charadd), 0);
 10071  07B0  3000               	movlw	low(0)
 10072  07B1  00A0               	movwf	(?_i2c_byte_write)
 10073  07B2  3000               	movlw	high(0)
 10074  07B3  00A1               	movwf	((?_i2c_byte_write))+1
 10075  07B4  307C               	movlw	(07Ch)
 10076  07B5  00B4               	movwf	(??_lcd_int+0)+0
 10077  07B6  0834               	movf	(??_lcd_int+0)+0,w
 10078  07B7  00A2               	movwf	0+(?_i2c_byte_write)+02h
 10079  07B8  01A3               	clrf	0+(?_i2c_byte_write)+03h
 10080  07B9  0830               	movf	(lcd_int@charadd),w
 10081  07BA  3E80               	addlw	080h
 10082  07BB  00B5               	movwf	(??_lcd_int+1)+0
 10083  07BC  0835               	movf	(??_lcd_int+1)+0,w
 10084  07BD  00A4               	movwf	0+(?_i2c_byte_write)+04h
 10085  07BE  01A5               	clrf	0+(?_i2c_byte_write)+05h
 10086  07BF  160A  158A  20C7   	fcall	_i2c_byte_write
              120A  118A         
 10087                           	line	222
 10088                           ;FM_RADIO_main.c: 222: i2c_byte_write(0, 0x7C, 0xC0, LCD_2, 0);
 10089  07C4  3000               	movlw	low(0)
 10090  07C5  1283               	bcf	status, 5	;RP0=0, select bank0
 10091  07C6  1303               	bcf	status, 6	;RP1=0, select bank0
 10092  07C7  00A0               	movwf	(?_i2c_byte_write)
 10093  07C8  3000               	movlw	high(0)
 10094  07C9  00A1               	movwf	((?_i2c_byte_write))+1
 10095  07CA  307C               	movlw	(07Ch)
 10096  07CB  00B4               	movwf	(??_lcd_int+0)+0
 10097  07CC  0834               	movf	(??_lcd_int+0)+0,w
 10098  07CD  00A2               	movwf	0+(?_i2c_byte_write)+02h
 10099  07CE  30C0               	movlw	(0C0h)
 10100  07CF  00B5               	movwf	(??_lcd_int+1)+0
 10101  07D0  0835               	movf	(??_lcd_int+1)+0,w
 10102  07D1  00A3               	movwf	0+(?_i2c_byte_write)+03h
 10103  07D2  0837               	movf	(lcd_int@LCD_2),w
 10104  07D3  00B6               	movwf	(??_lcd_int+2)+0
 10105  07D4  0836               	movf	(??_lcd_int+2)+0,w
 10106  07D5  00A4               	movwf	0+(?_i2c_byte_write)+04h
 10107  07D6  01A5               	clrf	0+(?_i2c_byte_write)+05h
 10108  07D7  160A  158A  20C7   	fcall	_i2c_byte_write
              120A  118A         
 10109                           	line	223
 10110                           	
 10111  07DC                     l8042:	
 10112                           ;FM_RADIO_main.c: 223: if (sel == 2)i2c_byte_write(0, 0x7C, 0xC0, LCD_1, 0);
 10113  07DC  3002               	movlw	02h
 10114  07DD  1283               	bcf	status, 5	;RP0=0, select bank0
 10115  07DE  1303               	bcf	status, 6	;RP1=0, select bank0
 10116  07DF  062E               	xorwf	(lcd_int@sel),w
 10117  07E0  042F               	iorwf	(lcd_int@sel+1),w
 10118  07E1  1D03               	skipz
 10119  07E2  2FE4               	goto	u6531
 10120  07E3  2FE5               	goto	u6530
 10121  07E4                     u6531:
 10122  07E4  2FFC               	goto	l1109
 10123  07E5                     u6530:
 10124                           	
 10125  07E5                     l8044:	
 10126  07E5  3000               	movlw	low(0)
 10127  07E6  00A0               	movwf	(?_i2c_byte_write)
 10128  07E7  3000               	movlw	high(0)
 10129  07E8  00A1               	movwf	((?_i2c_byte_write))+1
 10130  07E9  307C               	movlw	(07Ch)
 10131  07EA  00B4               	movwf	(??_lcd_int+0)+0
 10132  07EB  0834               	movf	(??_lcd_int+0)+0,w
 10133  07EC  00A2               	movwf	0+(?_i2c_byte_write)+02h
 10134  07ED  30C0               	movlw	(0C0h)
 10135  07EE  00B5               	movwf	(??_lcd_int+1)+0
 10136  07EF  0835               	movf	(??_lcd_int+1)+0,w
 10137  07F0  00A3               	movwf	0+(?_i2c_byte_write)+03h
 10138  07F1  0839               	movf	(lcd_int@LCD_1),w
 10139  07F2  00B6               	movwf	(??_lcd_int+2)+0
 10140  07F3  0836               	movf	(??_lcd_int+2)+0,w
 10141  07F4  00A4               	movwf	0+(?_i2c_byte_write)+04h
 10142  07F5  01A5               	clrf	0+(?_i2c_byte_write)+05h
 10143  07F6  160A  158A  20C7   	fcall	_i2c_byte_write
              120A  118A         
 10144  07FB  2FFC               	goto	l1109
 10145                           	
 10146  07FC                     l1108:	
 10147                           	line	224
 10148                           	
 10149  07FC                     l1109:	
 10150  07FC  0008               	return
 10151                           	opt stack 0
 10152                           GLOBAL	__end_of_lcd_int
 10153  07FD                     	__end_of_lcd_int:
 10154 ;; =============== function _lcd_int ends ============
 10155                           
 10156                           	signat	_lcd_int,12410
 10157                           	global	_fmIC_VOL
 10158                           psect	text907,local,class=CODE,delta=2
 10159                           global __ptext907
 10160  182D                     __ptext907:
 10161                           
 10162 ;; *************** function _fmIC_VOL *****************
 10163 ;; Defined at:
 10164 ;;		line 211 in file "FM_RADIO_main.c"
 10165 ;; Parameters:    Size  Location     Type
 10166 ;;  vol             1    wreg     unsigned char 
 10167 ;; Auto vars:     Size  Location     Type
 10168 ;;  vol             1   10[BANK0 ] unsigned char 
 10169 ;; Return value:  Size  Location     Type
 10170 ;;                  2  1104[COMMON] int 
 10171 ;; Registers used:
 10172 ;;		wreg, status,2, status,0, pclath, cstack
 10173 ;; Tracked objects:
 10174 ;;		On entry : 0/0
 10175 ;;		On exit  : 0/0
 10176 ;;		Unchanged: 0/0
 10177 ;; Data sizes:     COMMON   BANK0   BANK1   BANK3   BANK2
 10178 ;;      Params:         0       0       0       0       0
 10179 ;;      Locals:         0       1       0       0       0
 10180 ;;      Temps:          0       3       0       0       0
 10181 ;;      Totals:         0       4       0       0       0
 10182 ;;Total ram usage:        4 bytes
 10183 ;; Hardware stack levels used:    1
 10184 ;; Hardware stack levels required when called:    3
 10185 ;; This function calls:
 10186 ;;		_i2c_byte_write
 10187 ;; This function is called by:
 10188 ;;		_main
 10189 ;; This function uses a non-reentrant model
 10190 ;;
 10191                           psect	text907
 10192                           	file	"FM_RADIO_main.c"
 10193                           	line	211
 10194                           	global	__size_of_fmIC_VOL
 10195  001B                     	__size_of_fmIC_VOL	equ	__end_of_fmIC_VOL-_fmIC_VOL
 10196                           	
 10197  182D                     _fmIC_VOL:	
 10198                           	opt	stack 4
 10199                           ; Regs used in _fmIC_VOL: [wreg+status,2+status,0+pclath+cstack]
 10200                           ;fmIC_VOL@vol stored from wreg
 10201  182D  1283               	bcf	status, 5	;RP0=0, select bank0
 10202  182E  1303               	bcf	status, 6	;RP1=0, select bank0
 10203  182F  00AA               	movwf	(fmIC_VOL@vol)
 10204                           	line	212
 10205                           	
 10206  1830                     l8034:	
 10207                           ;FM_RADIO_main.c: 212: i2c_byte_write(1, 0b01101010, 0x0F, 0b00000000, (vol & 0b00011111
                                 ));
 10208  1830  3001               	movlw	low(01h)
 10209  1831  00A0               	movwf	(?_i2c_byte_write)
 10210  1832  3000               	movlw	high(01h)
 10211  1833  00A1               	movwf	((?_i2c_byte_write))+1
 10212  1834  306A               	movlw	(06Ah)
 10213  1835  00A7               	movwf	(??_fmIC_VOL+0)+0
 10214  1836  0827               	movf	(??_fmIC_VOL+0)+0,w
 10215  1837  00A2               	movwf	0+(?_i2c_byte_write)+02h
 10216  1838  300F               	movlw	(0Fh)
 10217  1839  00A8               	movwf	(??_fmIC_VOL+1)+0
 10218  183A  0828               	movf	(??_fmIC_VOL+1)+0,w
 10219  183B  00A3               	movwf	0+(?_i2c_byte_write)+03h
 10220  183C  01A4               	clrf	0+(?_i2c_byte_write)+04h
 10221  183D  082A               	movf	(fmIC_VOL@vol),w
 10222  183E  391F               	andlw	01Fh
 10223  183F  00A9               	movwf	(??_fmIC_VOL+2)+0
 10224  1840  0829               	movf	(??_fmIC_VOL+2)+0,w
 10225  1841  00A5               	movwf	0+(?_i2c_byte_write)+05h
 10226  1842  160A  158A  20C7   	fcall	_i2c_byte_write
              160A  158A         
 10227                           	line	213
 10228                           	
 10229  1847                     l1105:	
 10230  1847  0008               	return
 10231                           	opt stack 0
 10232                           GLOBAL	__end_of_fmIC_VOL
 10233  1848                     	__end_of_fmIC_VOL:
 10234 ;; =============== function _fmIC_VOL ends ============
 10235                           
 10236                           	signat	_fmIC_VOL,4218
 10237                           	global	_fmIC_RS
 10238                           psect	text908,local,class=CODE,delta=2
 10239                           global __ptext908
 10240  0817                     __ptext908:
 10241                           
 10242 ;; *************** function _fmIC_RS *****************
 10243 ;; Defined at:
 10244 ;;		line 196 in file "FM_RADIO_main.c"
 10245 ;; Parameters:    Size  Location     Type
 10246 ;;		None
 10247 ;; Auto vars:     Size  Location     Type
 10248 ;;		None
 10249 ;; Return value:  Size  Location     Type
 10250 ;;                  2  1101[COMMON] int 
 10251 ;; Registers used:
 10252 ;;		wreg, status,2, status,0, pclath, cstack
 10253 ;; Tracked objects:
 10254 ;;		On entry : 0/0
 10255 ;;		On exit  : 0/0
 10256 ;;		Unchanged: 0/0
 10257 ;; Data sizes:     COMMON   BANK0   BANK1   BANK3   BANK2
 10258 ;;      Params:         0       0       0       0       0
 10259 ;;      Locals:         0       0       0       0       0
 10260 ;;      Temps:          0       4       0       0       0
 10261 ;;      Totals:         0       4       0       0       0
 10262 ;;Total ram usage:        4 bytes
 10263 ;; Hardware stack levels used:    1
 10264 ;; Hardware stack levels required when called:    3
 10265 ;; This function calls:
 10266 ;;		_i2c_byte_write
 10267 ;;		_eeprom_read
 10268 ;; This function is called by:
 10269 ;;		_main
 10270 ;; This function uses a non-reentrant model
 10271 ;;
 10272                           psect	text908
 10273                           	file	"FM_RADIO_main.c"
 10274                           	line	196
 10275                           	global	__size_of_fmIC_RS
 10276  00D4                     	__size_of_fmIC_RS	equ	__end_of_fmIC_RS-_fmIC_RS
 10277                           	
 10278  0817                     _fmIC_RS:	
 10279                           	opt	stack 4
 10280                           ; Regs used in _fmIC_RS: [wreg+status,2+status,0+pclath+cstack]
 10281                           	line	197
 10282                           	
 10283  0817                     l8014:	
 10284                           ;FM_RADIO_main.c: 197: RC6 = 0;
 10285  0817  1283               	bcf	status, 5	;RP0=0, select bank0
 10286  0818  1303               	bcf	status, 6	;RP1=0, select bank0
 10287  0819  1307               	bcf	(62/8),(62)&7
 10288                           	line	198
 10289                           	
 10290  081A                     l8016:	
 10291                           ;FM_RADIO_main.c: 198: _delay((unsigned long)((100)*(4000000/4000.0)));
 10292                           	opt asmopt_off
 10293  081A  3082               movlw	130
 10294  081B  00A8               movwf	((??_fmIC_RS+0)+0+1),f
 10295  081C  30DD               	movlw	221
 10296  081D  00A7               movwf	((??_fmIC_RS+0)+0),f
 10297  081E                     u8217:
 10298  081E  0BA7               	decfsz	((??_fmIC_RS+0)+0),f
 10299  081F  281E               	goto	u8217
 10300  0820  0BA8               	decfsz	((??_fmIC_RS+0)+0+1),f
 10301  0821  281E               	goto	u8217
 10302  0822  2823               	nop2
 10303                           opt asmopt_on
 10304                           
 10305                           	line	199
 10306                           	
 10307  0823                     l8018:	
 10308                           ;FM_RADIO_main.c: 199: RC6 = 1;
 10309  0823  1283               	bcf	status, 5	;RP0=0, select bank0
 10310  0824  1303               	bcf	status, 6	;RP1=0, select bank0
 10311  0825  1707               	bsf	(62/8),(62)&7
 10312                           	line	200
 10313                           ;FM_RADIO_main.c: 200: _delay((unsigned long)((500)*(4000000/4000.0)));
 10314                           	opt asmopt_off
 10315  0826  3003               movlw  3
 10316  0827  00A9               movwf	((??_fmIC_RS+0)+0+2),f
 10317  0828  308A               movlw	138
 10318  0829  00A8               movwf	((??_fmIC_RS+0)+0+1),f
 10319  082A  3056               	movlw	86
 10320  082B  00A7               movwf	((??_fmIC_RS+0)+0),f
 10321  082C                     u8227:
 10322  082C  0BA7               	decfsz	((??_fmIC_RS+0)+0),f
 10323  082D  282C               	goto	u8227
 10324  082E  0BA8               	decfsz	((??_fmIC_RS+0)+0+1),f
 10325  082F  282C               	goto	u8227
 10326  0830  0BA9               	decfsz	((??_fmIC_RS+0)+0+2),f
 10327  0831  282C               	goto	u8227
 10328  0832  2833               	nop2
 10329                           opt asmopt_on
 10330                           
 10331                           	line	201
 10332                           	
 10333  0833                     l8020:	
 10334                           ;FM_RADIO_main.c: 201: i2c_byte_write(1, 0b01101010, 0x10, 0b01100000, 0x00);
 10335  0833  3001               	movlw	low(01h)
 10336  0834  1283               	bcf	status, 5	;RP0=0, select bank0
 10337  0835  1303               	bcf	status, 6	;RP1=0, select bank0
 10338  0836  00A0               	movwf	(?_i2c_byte_write)
 10339  0837  3000               	movlw	high(01h)
 10340  0838  00A1               	movwf	((?_i2c_byte_write))+1
 10341  0839  306A               	movlw	(06Ah)
 10342  083A  00A7               	movwf	(??_fmIC_RS+0)+0
 10343  083B  0827               	movf	(??_fmIC_RS+0)+0,w
 10344  083C  00A2               	movwf	0+(?_i2c_byte_write)+02h
 10345  083D  3010               	movlw	(010h)
 10346  083E  00A8               	movwf	(??_fmIC_RS+1)+0
 10347  083F  0828               	movf	(??_fmIC_RS+1)+0,w
 10348  0840  00A3               	movwf	0+(?_i2c_byte_write)+03h
 10349  0841  3060               	movlw	(060h)
 10350  0842  00A9               	movwf	(??_fmIC_RS+2)+0
 10351  0843  0829               	movf	(??_fmIC_RS+2)+0,w
 10352  0844  00A4               	movwf	0+(?_i2c_byte_write)+04h
 10353  0845  01A5               	clrf	0+(?_i2c_byte_write)+05h
 10354  0846  160A  158A  20C7   	fcall	_i2c_byte_write
              120A  158A         
 10355                           	line	202
 10356                           	
 10357  084B                     l8022:	
 10358                           ;FM_RADIO_main.c: 202: i2c_byte_write(1, 0b01101010, 0x3f, 0x00, 0b00010011);
 10359  084B  3001               	movlw	low(01h)
 10360  084C  1283               	bcf	status, 5	;RP0=0, select bank0
 10361  084D  1303               	bcf	status, 6	;RP1=0, select bank0
 10362  084E  00A0               	movwf	(?_i2c_byte_write)
 10363  084F  3000               	movlw	high(01h)
 10364  0850  00A1               	movwf	((?_i2c_byte_write))+1
 10365  0851  306A               	movlw	(06Ah)
 10366  0852  00A7               	movwf	(??_fmIC_RS+0)+0
 10367  0853  0827               	movf	(??_fmIC_RS+0)+0,w
 10368  0854  00A2               	movwf	0+(?_i2c_byte_write)+02h
 10369  0855  303F               	movlw	(03Fh)
 10370  0856  00A8               	movwf	(??_fmIC_RS+1)+0
 10371  0857  0828               	movf	(??_fmIC_RS+1)+0,w
 10372  0858  00A3               	movwf	0+(?_i2c_byte_write)+03h
 10373  0859  01A4               	clrf	0+(?_i2c_byte_write)+04h
 10374  085A  3013               	movlw	(013h)
 10375  085B  00A9               	movwf	(??_fmIC_RS+2)+0
 10376  085C  0829               	movf	(??_fmIC_RS+2)+0,w
 10377  085D  00A5               	movwf	0+(?_i2c_byte_write)+05h
 10378  085E  160A  158A  20C7   	fcall	_i2c_byte_write
              120A  158A         
 10379                           	line	203
 10380                           	
 10381  0863                     l8024:	
 10382                           ;FM_RADIO_main.c: 203: i2c_byte_write(1, 0b01101010, 0x02, 0x00, 0b00000111);
 10383  0863  3001               	movlw	low(01h)
 10384  0864  1283               	bcf	status, 5	;RP0=0, select bank0
 10385  0865  1303               	bcf	status, 6	;RP1=0, select bank0
 10386  0866  00A0               	movwf	(?_i2c_byte_write)
 10387  0867  3000               	movlw	high(01h)
 10388  0868  00A1               	movwf	((?_i2c_byte_write))+1
 10389  0869  306A               	movlw	(06Ah)
 10390  086A  00A7               	movwf	(??_fmIC_RS+0)+0
 10391  086B  0827               	movf	(??_fmIC_RS+0)+0,w
 10392  086C  00A2               	movwf	0+(?_i2c_byte_write)+02h
 10393  086D  3002               	movlw	(02h)
 10394  086E  00A8               	movwf	(??_fmIC_RS+1)+0
 10395  086F  0828               	movf	(??_fmIC_RS+1)+0,w
 10396  0870  00A3               	movwf	0+(?_i2c_byte_write)+03h
 10397  0871  01A4               	clrf	0+(?_i2c_byte_write)+04h
 10398  0872  3007               	movlw	(07h)
 10399  0873  00A9               	movwf	(??_fmIC_RS+2)+0
 10400  0874  0829               	movf	(??_fmIC_RS+2)+0,w
 10401  0875  00A5               	movwf	0+(?_i2c_byte_write)+05h
 10402  0876  160A  158A  20C7   	fcall	_i2c_byte_write
              120A  158A         
 10403                           	line	204
 10404                           	
 10405  087B                     l8026:	
 10406                           ;FM_RADIO_main.c: 204: i2c_byte_write(1, 0b01101010, 0x04, ((eeprom_read(86) & 0b0000001
                                 1) | 0b11000000), 0b10000000);
 10407  087B  3001               	movlw	low(01h)
 10408  087C  1283               	bcf	status, 5	;RP0=0, select bank0
 10409  087D  1303               	bcf	status, 6	;RP1=0, select bank0
 10410  087E  00A0               	movwf	(?_i2c_byte_write)
 10411  087F  3000               	movlw	high(01h)
 10412  0880  00A1               	movwf	((?_i2c_byte_write))+1
 10413  0881  306A               	movlw	(06Ah)
 10414  0882  00A7               	movwf	(??_fmIC_RS+0)+0
 10415  0883  0827               	movf	(??_fmIC_RS+0)+0,w
 10416  0884  00A2               	movwf	0+(?_i2c_byte_write)+02h
 10417  0885  3004               	movlw	(04h)
 10418  0886  00A8               	movwf	(??_fmIC_RS+1)+0
 10419  0887  0828               	movf	(??_fmIC_RS+1)+0,w
 10420  0888  00A3               	movwf	0+(?_i2c_byte_write)+03h
 10421  0889  3056               	movlw	(056h)
 10422  088A  160A  158A  2048   	fcall	_eeprom_read
              120A  158A         
 10423  088F  3903               	andlw	03h
 10424  0890  38C0               	iorlw	0C0h
 10425  0891  1283               	bcf	status, 5	;RP0=0, select bank0
 10426  0892  1303               	bcf	status, 6	;RP1=0, select bank0
 10427  0893  00A9               	movwf	(??_fmIC_RS+2)+0
 10428  0894  0829               	movf	(??_fmIC_RS+2)+0,w
 10429  0895  00A4               	movwf	0+(?_i2c_byte_write)+04h
 10430  0896  3080               	movlw	(080h)
 10431  0897  00AA               	movwf	(??_fmIC_RS+3)+0
 10432  0898  082A               	movf	(??_fmIC_RS+3)+0,w
 10433  0899  00A5               	movwf	0+(?_i2c_byte_write)+05h
 10434  089A  160A  158A  20C7   	fcall	_i2c_byte_write
              120A  158A         
 10435                           	line	205
 10436                           	
 10437  089F                     l8028:	
 10438                           ;FM_RADIO_main.c: 205: i2c_byte_write(1, 0b01101010, 0x16, 0b00001001, 0b00000010);
 10439  089F  3001               	movlw	low(01h)
 10440  08A0  1283               	bcf	status, 5	;RP0=0, select bank0
 10441  08A1  1303               	bcf	status, 6	;RP1=0, select bank0
 10442  08A2  00A0               	movwf	(?_i2c_byte_write)
 10443  08A3  3000               	movlw	high(01h)
 10444  08A4  00A1               	movwf	((?_i2c_byte_write))+1
 10445  08A5  306A               	movlw	(06Ah)
 10446  08A6  00A7               	movwf	(??_fmIC_RS+0)+0
 10447  08A7  0827               	movf	(??_fmIC_RS+0)+0,w
 10448  08A8  00A2               	movwf	0+(?_i2c_byte_write)+02h
 10449  08A9  3016               	movlw	(016h)
 10450  08AA  00A8               	movwf	(??_fmIC_RS+1)+0
 10451  08AB  0828               	movf	(??_fmIC_RS+1)+0,w
 10452  08AC  00A3               	movwf	0+(?_i2c_byte_write)+03h
 10453  08AD  3009               	movlw	(09h)
 10454  08AE  00A9               	movwf	(??_fmIC_RS+2)+0
 10455  08AF  0829               	movf	(??_fmIC_RS+2)+0,w
 10456  08B0  00A4               	movwf	0+(?_i2c_byte_write)+04h
 10457  08B1  3002               	movlw	(02h)
 10458  08B2  00AA               	movwf	(??_fmIC_RS+3)+0
 10459  08B3  082A               	movf	(??_fmIC_RS+3)+0,w
 10460  08B4  00A5               	movwf	0+(?_i2c_byte_write)+05h
 10461  08B5  160A  158A  20C7   	fcall	_i2c_byte_write
              120A  158A         
 10462                           	line	207
 10463                           	
 10464  08BA                     l8030:	
 10465                           ;FM_RADIO_main.c: 207: i2c_byte_write(1, 0b01101010, 0x0a, 0b00000100, 0x00);
 10466  08BA  3001               	movlw	low(01h)
 10467  08BB  1283               	bcf	status, 5	;RP0=0, select bank0
 10468  08BC  1303               	bcf	status, 6	;RP1=0, select bank0
 10469  08BD  00A0               	movwf	(?_i2c_byte_write)
 10470  08BE  3000               	movlw	high(01h)
 10471  08BF  00A1               	movwf	((?_i2c_byte_write))+1
 10472  08C0  306A               	movlw	(06Ah)
 10473  08C1  00A7               	movwf	(??_fmIC_RS+0)+0
 10474  08C2  0827               	movf	(??_fmIC_RS+0)+0,w
 10475  08C3  00A2               	movwf	0+(?_i2c_byte_write)+02h
 10476  08C4  300A               	movlw	(0Ah)
 10477  08C5  00A8               	movwf	(??_fmIC_RS+1)+0
 10478  08C6  0828               	movf	(??_fmIC_RS+1)+0,w
 10479  08C7  00A3               	movwf	0+(?_i2c_byte_write)+03h
 10480  08C8  3004               	movlw	(04h)
 10481  08C9  00A9               	movwf	(??_fmIC_RS+2)+0
 10482  08CA  0829               	movf	(??_fmIC_RS+2)+0,w
 10483  08CB  00A4               	movwf	0+(?_i2c_byte_write)+04h
 10484  08CC  01A5               	clrf	0+(?_i2c_byte_write)+05h
 10485  08CD  160A  158A  20C7   	fcall	_i2c_byte_write
              120A  158A         
 10486                           	line	208
 10487                           	
 10488  08D2                     l8032:	
 10489                           ;FM_RADIO_main.c: 208: i2c_byte_write(1, 0b01101010, 0x0c, 0x00, 0b00101100);
 10490  08D2  3001               	movlw	low(01h)
 10491  08D3  1283               	bcf	status, 5	;RP0=0, select bank0
 10492  08D4  1303               	bcf	status, 6	;RP1=0, select bank0
 10493  08D5  00A0               	movwf	(?_i2c_byte_write)
 10494  08D6  3000               	movlw	high(01h)
 10495  08D7  00A1               	movwf	((?_i2c_byte_write))+1
 10496  08D8  306A               	movlw	(06Ah)
 10497  08D9  00A7               	movwf	(??_fmIC_RS+0)+0
 10498  08DA  0827               	movf	(??_fmIC_RS+0)+0,w
 10499  08DB  00A2               	movwf	0+(?_i2c_byte_write)+02h
 10500  08DC  300C               	movlw	(0Ch)
 10501  08DD  00A8               	movwf	(??_fmIC_RS+1)+0
 10502  08DE  0828               	movf	(??_fmIC_RS+1)+0,w
 10503  08DF  00A3               	movwf	0+(?_i2c_byte_write)+03h
 10504  08E0  01A4               	clrf	0+(?_i2c_byte_write)+04h
 10505  08E1  302C               	movlw	(02Ch)
 10506  08E2  00A9               	movwf	(??_fmIC_RS+2)+0
 10507  08E3  0829               	movf	(??_fmIC_RS+2)+0,w
 10508  08E4  00A5               	movwf	0+(?_i2c_byte_write)+05h
 10509  08E5  160A  158A  20C7   	fcall	_i2c_byte_write
              120A  158A         
 10510                           	line	209
 10511                           	
 10512  08EA                     l1102:	
 10513  08EA  0008               	return
 10514                           	opt stack 0
 10515                           GLOBAL	__end_of_fmIC_RS
 10516  08EB                     	__end_of_fmIC_RS:
 10517 ;; =============== function _fmIC_RS ends ============
 10518                           
 10519                           	signat	_fmIC_RS,90
 10520                           	global	_lcd_RS
 10521                           psect	text909,local,class=CODE,delta=2
 10522                           global __ptext909
 10523  1BD8                     __ptext909:
 10524                           
 10525 ;; *************** function _lcd_RS *****************
 10526 ;; Defined at:
 10527 ;;		line 178 in file "FM_RADIO_main.c"
 10528 ;; Parameters:    Size  Location     Type
 10529 ;;		None
 10530 ;; Auto vars:     Size  Location     Type
 10531 ;;		None
 10532 ;; Return value:  Size  Location     Type
 10533 ;;                  2  1098[COMMON] int 
 10534 ;; Registers used:
 10535 ;;		wreg, status,2, status,0, pclath, cstack
 10536 ;; Tracked objects:
 10537 ;;		On entry : 0/0
 10538 ;;		On exit  : 0/0
 10539 ;;		Unchanged: 0/0
 10540 ;; Data sizes:     COMMON   BANK0   BANK1   BANK3   BANK2
 10541 ;;      Params:         0       0       0       0       0
 10542 ;;      Locals:         0       0       0       0       0
 10543 ;;      Temps:          0       3       0       0       0
 10544 ;;      Totals:         0       3       0       0       0
 10545 ;;Total ram usage:        3 bytes
 10546 ;; Hardware stack levels used:    1
 10547 ;; Hardware stack levels required when called:    3
 10548 ;; This function calls:
 10549 ;;		_i2c_byte_write
 10550 ;; This function is called by:
 10551 ;;		_main
 10552 ;; This function uses a non-reentrant model
 10553 ;;
 10554                           psect	text909
 10555                           	file	"FM_RADIO_main.c"
 10556                           	line	178
 10557                           	global	__size_of_lcd_RS
 10558  00EF                     	__size_of_lcd_RS	equ	__end_of_lcd_RS-_lcd_RS
 10559                           	
 10560  1BD8                     _lcd_RS:	
 10561                           	opt	stack 4
 10562                           ; Regs used in _lcd_RS: [wreg+status,2+status,0+pclath+cstack]
 10563                           	line	179
 10564                           	
 10565  1BD8                     l7988:	
 10566                           ;FM_RADIO_main.c: 179: RC5 = 0;
 10567  1BD8  1283               	bcf	status, 5	;RP0=0, select bank0
 10568  1BD9  1303               	bcf	status, 6	;RP1=0, select bank0
 10569  1BDA  1287               	bcf	(61/8),(61)&7
 10570                           	line	180
 10571                           	
 10572  1BDB                     l7990:	
 10573                           ;FM_RADIO_main.c: 180: _delay((unsigned long)((100)*(4000000/4000.0)));
 10574                           	opt asmopt_off
 10575  1BDB  3082               movlw	130
 10576  1BDC  00A8               movwf	((??_lcd_RS+0)+0+1),f
 10577  1BDD  30DD               	movlw	221
 10578  1BDE  00A7               movwf	((??_lcd_RS+0)+0),f
 10579  1BDF                     u8237:
 10580  1BDF  0BA7               	decfsz	((??_lcd_RS+0)+0),f
 10581  1BE0  2BDF               	goto	u8237
 10582  1BE1  0BA8               	decfsz	((??_lcd_RS+0)+0+1),f
 10583  1BE2  2BDF               	goto	u8237
 10584  1BE3  2BE4               	nop2
 10585                           opt asmopt_on
 10586                           
 10587                           	line	181
 10588                           	
 10589  1BE4                     l7992:	
 10590                           ;FM_RADIO_main.c: 181: RC5 = 1;
 10591  1BE4  1283               	bcf	status, 5	;RP0=0, select bank0
 10592  1BE5  1303               	bcf	status, 6	;RP1=0, select bank0
 10593  1BE6  1687               	bsf	(61/8),(61)&7
 10594                           	line	182
 10595                           ;FM_RADIO_main.c: 182: _delay((unsigned long)((100)*(4000000/4000.0)));
 10596                           	opt asmopt_off
 10597  1BE7  3082               movlw	130
 10598  1BE8  00A8               movwf	((??_lcd_RS+0)+0+1),f
 10599  1BE9  30DD               	movlw	221
 10600  1BEA  00A7               movwf	((??_lcd_RS+0)+0),f
 10601  1BEB                     u8247:
 10602  1BEB  0BA7               	decfsz	((??_lcd_RS+0)+0),f
 10603  1BEC  2BEB               	goto	u8247
 10604  1BED  0BA8               	decfsz	((??_lcd_RS+0)+0+1),f
 10605  1BEE  2BEB               	goto	u8247
 10606  1BEF  2BF0               	nop2
 10607                           opt asmopt_on
 10608                           
 10609                           	line	183
 10610                           	
 10611  1BF0                     l7994:	
 10612                           ;FM_RADIO_main.c: 183: i2c_byte_write(0, 0x7C, 0x00, 0x38, 0);
 10613  1BF0  3000               	movlw	low(0)
 10614  1BF1  1283               	bcf	status, 5	;RP0=0, select bank0
 10615  1BF2  1303               	bcf	status, 6	;RP1=0, select bank0
 10616  1BF3  00A0               	movwf	(?_i2c_byte_write)
 10617  1BF4  3000               	movlw	high(0)
 10618  1BF5  00A1               	movwf	((?_i2c_byte_write))+1
 10619  1BF6  307C               	movlw	(07Ch)
 10620  1BF7  00A7               	movwf	(??_lcd_RS+0)+0
 10621  1BF8  0827               	movf	(??_lcd_RS+0)+0,w
 10622  1BF9  00A2               	movwf	0+(?_i2c_byte_write)+02h
 10623  1BFA  01A3               	clrf	0+(?_i2c_byte_write)+03h
 10624  1BFB  3038               	movlw	(038h)
 10625  1BFC  00A8               	movwf	(??_lcd_RS+1)+0
 10626  1BFD  0828               	movf	(??_lcd_RS+1)+0,w
 10627  1BFE  00A4               	movwf	0+(?_i2c_byte_write)+04h
 10628  1BFF  01A5               	clrf	0+(?_i2c_byte_write)+05h
 10629  1C00  160A  158A  20C7   	fcall	_i2c_byte_write
              160A  158A         
 10630                           	line	184
 10631                           	
 10632  1C05                     l7996:	
 10633                           ;FM_RADIO_main.c: 184: i2c_byte_write(0, 0x7C, 0x00, 0x39, 0);
 10634  1C05  3000               	movlw	low(0)
 10635  1C06  1283               	bcf	status, 5	;RP0=0, select bank0
 10636  1C07  1303               	bcf	status, 6	;RP1=0, select bank0
 10637  1C08  00A0               	movwf	(?_i2c_byte_write)
 10638  1C09  3000               	movlw	high(0)
 10639  1C0A  00A1               	movwf	((?_i2c_byte_write))+1
 10640  1C0B  307C               	movlw	(07Ch)
 10641  1C0C  00A7               	movwf	(??_lcd_RS+0)+0
 10642  1C0D  0827               	movf	(??_lcd_RS+0)+0,w
 10643  1C0E  00A2               	movwf	0+(?_i2c_byte_write)+02h
 10644  1C0F  01A3               	clrf	0+(?_i2c_byte_write)+03h
 10645  1C10  3039               	movlw	(039h)
 10646  1C11  00A8               	movwf	(??_lcd_RS+1)+0
 10647  1C12  0828               	movf	(??_lcd_RS+1)+0,w
 10648  1C13  00A4               	movwf	0+(?_i2c_byte_write)+04h
 10649  1C14  01A5               	clrf	0+(?_i2c_byte_write)+05h
 10650  1C15  160A  158A  20C7   	fcall	_i2c_byte_write
              160A  158A         
 10651                           	line	185
 10652                           	
 10653  1C1A                     l7998:	
 10654                           ;FM_RADIO_main.c: 185: i2c_byte_write(0, 0x7C, 0x00, 0x14, 0);
 10655  1C1A  3000               	movlw	low(0)
 10656  1C1B  1283               	bcf	status, 5	;RP0=0, select bank0
 10657  1C1C  1303               	bcf	status, 6	;RP1=0, select bank0
 10658  1C1D  00A0               	movwf	(?_i2c_byte_write)
 10659  1C1E  3000               	movlw	high(0)
 10660  1C1F  00A1               	movwf	((?_i2c_byte_write))+1
 10661  1C20  307C               	movlw	(07Ch)
 10662  1C21  00A7               	movwf	(??_lcd_RS+0)+0
 10663  1C22  0827               	movf	(??_lcd_RS+0)+0,w
 10664  1C23  00A2               	movwf	0+(?_i2c_byte_write)+02h
 10665  1C24  01A3               	clrf	0+(?_i2c_byte_write)+03h
 10666  1C25  3014               	movlw	(014h)
 10667  1C26  00A8               	movwf	(??_lcd_RS+1)+0
 10668  1C27  0828               	movf	(??_lcd_RS+1)+0,w
 10669  1C28  00A4               	movwf	0+(?_i2c_byte_write)+04h
 10670  1C29  01A5               	clrf	0+(?_i2c_byte_write)+05h
 10671  1C2A  160A  158A  20C7   	fcall	_i2c_byte_write
              160A  158A         
 10672                           	line	186
 10673                           	
 10674  1C2F                     l8000:	
 10675                           ;FM_RADIO_main.c: 186: i2c_byte_write(0, 0x7C, 0x00, 0x70, 0);
 10676  1C2F  3000               	movlw	low(0)
 10677  1C30  1283               	bcf	status, 5	;RP0=0, select bank0
 10678  1C31  1303               	bcf	status, 6	;RP1=0, select bank0
 10679  1C32  00A0               	movwf	(?_i2c_byte_write)
 10680  1C33  3000               	movlw	high(0)
 10681  1C34  00A1               	movwf	((?_i2c_byte_write))+1
 10682  1C35  307C               	movlw	(07Ch)
 10683  1C36  00A7               	movwf	(??_lcd_RS+0)+0
 10684  1C37  0827               	movf	(??_lcd_RS+0)+0,w
 10685  1C38  00A2               	movwf	0+(?_i2c_byte_write)+02h
 10686  1C39  01A3               	clrf	0+(?_i2c_byte_write)+03h
 10687  1C3A  3070               	movlw	(070h)
 10688  1C3B  00A8               	movwf	(??_lcd_RS+1)+0
 10689  1C3C  0828               	movf	(??_lcd_RS+1)+0,w
 10690  1C3D  00A4               	movwf	0+(?_i2c_byte_write)+04h
 10691  1C3E  01A5               	clrf	0+(?_i2c_byte_write)+05h
 10692  1C3F  160A  158A  20C7   	fcall	_i2c_byte_write
              160A  158A         
 10693                           	line	187
 10694                           	
 10695  1C44                     l8002:	
 10696                           ;FM_RADIO_main.c: 187: i2c_byte_write(0, 0x7C, 0x00, 0x56, 0);
 10697  1C44  3000               	movlw	low(0)
 10698  1C45  1283               	bcf	status, 5	;RP0=0, select bank0
 10699  1C46  1303               	bcf	status, 6	;RP1=0, select bank0
 10700  1C47  00A0               	movwf	(?_i2c_byte_write)
 10701  1C48  3000               	movlw	high(0)
 10702  1C49  00A1               	movwf	((?_i2c_byte_write))+1
 10703  1C4A  307C               	movlw	(07Ch)
 10704  1C4B  00A7               	movwf	(??_lcd_RS+0)+0
 10705  1C4C  0827               	movf	(??_lcd_RS+0)+0,w
 10706  1C4D  00A2               	movwf	0+(?_i2c_byte_write)+02h
 10707  1C4E  01A3               	clrf	0+(?_i2c_byte_write)+03h
 10708  1C4F  3056               	movlw	(056h)
 10709  1C50  00A8               	movwf	(??_lcd_RS+1)+0
 10710  1C51  0828               	movf	(??_lcd_RS+1)+0,w
 10711  1C52  00A4               	movwf	0+(?_i2c_byte_write)+04h
 10712  1C53  01A5               	clrf	0+(?_i2c_byte_write)+05h
 10713  1C54  160A  158A  20C7   	fcall	_i2c_byte_write
              160A  158A         
 10714                           	line	188
 10715                           	
 10716  1C59                     l8004:	
 10717                           ;FM_RADIO_main.c: 188: i2c_byte_write(0, 0x7C, 0x00, 0x6C, 0);
 10718  1C59  3000               	movlw	low(0)
 10719  1C5A  1283               	bcf	status, 5	;RP0=0, select bank0
 10720  1C5B  1303               	bcf	status, 6	;RP1=0, select bank0
 10721  1C5C  00A0               	movwf	(?_i2c_byte_write)
 10722  1C5D  3000               	movlw	high(0)
 10723  1C5E  00A1               	movwf	((?_i2c_byte_write))+1
 10724  1C5F  307C               	movlw	(07Ch)
 10725  1C60  00A7               	movwf	(??_lcd_RS+0)+0
 10726  1C61  0827               	movf	(??_lcd_RS+0)+0,w
 10727  1C62  00A2               	movwf	0+(?_i2c_byte_write)+02h
 10728  1C63  01A3               	clrf	0+(?_i2c_byte_write)+03h
 10729  1C64  306C               	movlw	(06Ch)
 10730  1C65  00A8               	movwf	(??_lcd_RS+1)+0
 10731  1C66  0828               	movf	(??_lcd_RS+1)+0,w
 10732  1C67  00A4               	movwf	0+(?_i2c_byte_write)+04h
 10733  1C68  01A5               	clrf	0+(?_i2c_byte_write)+05h
 10734  1C69  160A  158A  20C7   	fcall	_i2c_byte_write
              160A  158A         
 10735                           	line	189
 10736                           ;FM_RADIO_main.c: 189: _delay((unsigned long)((200)*(4000000/4000.0)));
 10737                           	opt asmopt_off
 10738  1C6E  3002               movlw  2
 10739  1C6F  1283               	bcf	status, 5	;RP0=0, select bank0
 10740  1C70  1303               	bcf	status, 6	;RP1=0, select bank0
 10741  1C71  00A9               movwf	((??_lcd_RS+0)+0+2),f
 10742  1C72  3004               movlw	4
 10743  1C73  00A8               movwf	((??_lcd_RS+0)+0+1),f
 10744  1C74  30BA               	movlw	186
 10745  1C75  00A7               movwf	((??_lcd_RS+0)+0),f
 10746  1C76                     u8257:
 10747  1C76  0BA7               	decfsz	((??_lcd_RS+0)+0),f
 10748  1C77  2C76               	goto	u8257
 10749  1C78  0BA8               	decfsz	((??_lcd_RS+0)+0+1),f
 10750  1C79  2C76               	goto	u8257
 10751  1C7A  0BA9               	decfsz	((??_lcd_RS+0)+0+2),f
 10752  1C7B  2C76               	goto	u8257
 10753  1C7C  0064               	clrwdt
 10754                           opt asmopt_on
 10755                           
 10756                           	line	190
 10757                           	
 10758  1C7D                     l8006:	
 10759                           ;FM_RADIO_main.c: 190: i2c_byte_write(0, 0x7C, 0x00, 0x38, 0);
 10760  1C7D  3000               	movlw	low(0)
 10761  1C7E  1283               	bcf	status, 5	;RP0=0, select bank0
 10762  1C7F  1303               	bcf	status, 6	;RP1=0, select bank0
 10763  1C80  00A0               	movwf	(?_i2c_byte_write)
 10764  1C81  3000               	movlw	high(0)
 10765  1C82  00A1               	movwf	((?_i2c_byte_write))+1
 10766  1C83  307C               	movlw	(07Ch)
 10767  1C84  00A7               	movwf	(??_lcd_RS+0)+0
 10768  1C85  0827               	movf	(??_lcd_RS+0)+0,w
 10769  1C86  00A2               	movwf	0+(?_i2c_byte_write)+02h
 10770  1C87  01A3               	clrf	0+(?_i2c_byte_write)+03h
 10771  1C88  3038               	movlw	(038h)
 10772  1C89  00A8               	movwf	(??_lcd_RS+1)+0
 10773  1C8A  0828               	movf	(??_lcd_RS+1)+0,w
 10774  1C8B  00A4               	movwf	0+(?_i2c_byte_write)+04h
 10775  1C8C  01A5               	clrf	0+(?_i2c_byte_write)+05h
 10776  1C8D  160A  158A  20C7   	fcall	_i2c_byte_write
              160A  158A         
 10777                           	line	191
 10778                           	
 10779  1C92                     l8008:	
 10780                           ;FM_RADIO_main.c: 191: i2c_byte_write(0, 0x7C, 0x00, 0x0C, 0);
 10781  1C92  3000               	movlw	low(0)
 10782  1C93  1283               	bcf	status, 5	;RP0=0, select bank0
 10783  1C94  1303               	bcf	status, 6	;RP1=0, select bank0
 10784  1C95  00A0               	movwf	(?_i2c_byte_write)
 10785  1C96  3000               	movlw	high(0)
 10786  1C97  00A1               	movwf	((?_i2c_byte_write))+1
 10787  1C98  307C               	movlw	(07Ch)
 10788  1C99  00A7               	movwf	(??_lcd_RS+0)+0
 10789  1C9A  0827               	movf	(??_lcd_RS+0)+0,w
 10790  1C9B  00A2               	movwf	0+(?_i2c_byte_write)+02h
 10791  1C9C  01A3               	clrf	0+(?_i2c_byte_write)+03h
 10792  1C9D  300C               	movlw	(0Ch)
 10793  1C9E  00A8               	movwf	(??_lcd_RS+1)+0
 10794  1C9F  0828               	movf	(??_lcd_RS+1)+0,w
 10795  1CA0  00A4               	movwf	0+(?_i2c_byte_write)+04h
 10796  1CA1  01A5               	clrf	0+(?_i2c_byte_write)+05h
 10797  1CA2  160A  158A  20C7   	fcall	_i2c_byte_write
              160A  158A         
 10798                           	line	192
 10799                           	
 10800  1CA7                     l8010:	
 10801                           ;FM_RADIO_main.c: 192: i2c_byte_write(0, 0x7C, 0x00, 0x01, 0);
 10802  1CA7  3000               	movlw	low(0)
 10803  1CA8  1283               	bcf	status, 5	;RP0=0, select bank0
 10804  1CA9  1303               	bcf	status, 6	;RP1=0, select bank0
 10805  1CAA  00A0               	movwf	(?_i2c_byte_write)
 10806  1CAB  3000               	movlw	high(0)
 10807  1CAC  00A1               	movwf	((?_i2c_byte_write))+1
 10808  1CAD  307C               	movlw	(07Ch)
 10809  1CAE  00A7               	movwf	(??_lcd_RS+0)+0
 10810  1CAF  0827               	movf	(??_lcd_RS+0)+0,w
 10811  1CB0  00A2               	movwf	0+(?_i2c_byte_write)+02h
 10812  1CB1  01A3               	clrf	0+(?_i2c_byte_write)+03h
 10813  1CB2  01A4               	clrf	0+(?_i2c_byte_write)+04h
 10814  1CB3  1403               	bsf	status,0
 10815  1CB4  0DA4               	rlf	0+(?_i2c_byte_write)+04h,f
 10816  1CB5  01A5               	clrf	0+(?_i2c_byte_write)+05h
 10817  1CB6  160A  158A  20C7   	fcall	_i2c_byte_write
              160A  158A         
 10818                           	line	193
 10819                           	
 10820  1CBB                     l8012:	
 10821                           ;FM_RADIO_main.c: 193: _delay((unsigned long)((10)*(4000000/4000.0)));
 10822                           	opt asmopt_off
 10823  1CBB  300D               movlw	13
 10824  1CBC  1283               	bcf	status, 5	;RP0=0, select bank0
 10825  1CBD  1303               	bcf	status, 6	;RP1=0, select bank0
 10826  1CBE  00A8               movwf	((??_lcd_RS+0)+0+1),f
 10827  1CBF  30FB               	movlw	251
 10828  1CC0  00A7               movwf	((??_lcd_RS+0)+0),f
 10829  1CC1                     u8267:
 10830  1CC1  0BA7               	decfsz	((??_lcd_RS+0)+0),f
 10831  1CC2  2CC1               	goto	u8267
 10832  1CC3  0BA8               	decfsz	((??_lcd_RS+0)+0+1),f
 10833  1CC4  2CC1               	goto	u8267
 10834  1CC5  2CC6               	nop2
 10835                           opt asmopt_on
 10836                           
 10837                           	line	194
 10838                           	
 10839  1CC6                     l1099:	
 10840  1CC6  0008               	return
 10841                           	opt stack 0
 10842                           GLOBAL	__end_of_lcd_RS
 10843  1CC7                     	__end_of_lcd_RS:
 10844 ;; =============== function _lcd_RS ends ============
 10845                           
 10846                           	signat	_lcd_RS,90
 10847                           	global	_i2c_byte_read
 10848                           psect	text910,local,class=CODE,delta=2
 10849                           global __ptext910
 10850  1A69                     __ptext910:
 10851                           
 10852 ;; *************** function _i2c_byte_read *****************
 10853 ;; Defined at:
 10854 ;;		line 150 in file "FM_RADIO_main.c"
 10855 ;; Parameters:    Size  Location     Type
 10856 ;;  sel             2    6[BANK0 ] unsigned int 
 10857 ;;  add             1    8[BANK0 ] unsigned char 
 10858 ;;  regadd          1    9[BANK0 ] unsigned char 
 10859 ;; Auto vars:     Size  Location     Type
 10860 ;;  read_data       2   12[BANK0 ] unsigned char [2]
 10861 ;; Return value:  Size  Location     Type
 10862 ;;                  2    6[BANK0 ] int 
 10863 ;; Registers used:
 10864 ;;		wreg, fsr0l, fsr0h, status,2, status,0, pclath, cstack
 10865 ;; Tracked objects:
 10866 ;;		On entry : 0/0
 10867 ;;		On exit  : 0/0
 10868 ;;		Unchanged: 0/0
 10869 ;; Data sizes:     COMMON   BANK0   BANK1   BANK3   BANK2
 10870 ;;      Params:         0       4       0       0       0
 10871 ;;      Locals:         0       2       0       0       0
 10872 ;;      Temps:          0       2       0       0       0
 10873 ;;      Totals:         0       8       0       0       0
 10874 ;;Total ram usage:        8 bytes
 10875 ;; Hardware stack levels used:    1
 10876 ;; Hardware stack levels required when called:    2
 10877 ;; This function calls:
 10878 ;;		_i2c_Tx
 10879 ;; This function is called by:
 10880 ;;		_seek_RSSI
 10881 ;;		_seek_SNR
 10882 ;;		_buss_boost
 10883 ;;		_fm_serch
 10884 ;;		_main
 10885 ;; This function uses a non-reentrant model
 10886 ;;
 10887                           psect	text910
 10888                           	file	"FM_RADIO_main.c"
 10889                           	line	150
 10890                           	global	__size_of_i2c_byte_read
 10891  0073                     	__size_of_i2c_byte_read	equ	__end_of_i2c_byte_read-_i2c_byte_read
 10892                           	
 10893  1A69                     _i2c_byte_read:	
 10894                           	opt	stack 3
 10895                           ; Regs used in _i2c_byte_read: [wreg-fsr0h+status,2+status,0+pclath+cstack]
 10896                           	line	152
 10897                           	
 10898  1A69                     l7958:	
 10899                           ;FM_RADIO_main.c: 151: char read_data[2];
 10900                           ;FM_RADIO_main.c: 152: SSPADD = 0x09;
 10901  1A69  3009               	movlw	(09h)
 10902  1A6A  1683               	bsf	status, 5	;RP0=1, select bank1
 10903  1A6B  1303               	bcf	status, 6	;RP1=0, select bank1
 10904  1A6C  0093               	movwf	(147)^080h	;volatile
 10905                           	line	153
 10906                           	
 10907  1A6D                     l7960:	
 10908                           ;FM_RADIO_main.c: 153: SEN = 1;
 10909  1A6D  1411               	bsf	(1160/8)^080h,(1160)&7
 10910                           	line	154
 10911                           ;FM_RADIO_main.c: 154: while (SEN);
 10912  1A6E  2A6F               	goto	l1075
 10913                           	
 10914  1A6F                     l1076:	
 10915                           	
 10916  1A6F                     l1075:	
 10917  1A6F  1811               	btfsc	(1160/8)^080h,(1160)&7
 10918  1A70  2A72               	goto	u6461
 10919  1A71  2A73               	goto	u6460
 10920  1A72                     u6461:
 10921  1A72  2A6F               	goto	l1075
 10922  1A73                     u6460:
 10923  1A73  2A74               	goto	l7962
 10924                           	
 10925  1A74                     l1077:	
 10926                           	line	155
 10927                           	
 10928  1A74                     l7962:	
 10929                           ;FM_RADIO_main.c: 155: i2c_Tx(add);
 10930  1A74  1283               	bcf	status, 5	;RP0=0, select bank0
 10931  1A75  1303               	bcf	status, 6	;RP1=0, select bank0
 10932  1A76  0828               	movf	(i2c_byte_read@add),w
 10933  1A77  120A  158A  2000   	fcall	_i2c_Tx
              160A  158A         
 10934                           	line	156
 10935                           ;FM_RADIO_main.c: 156: i2c_Tx(regadd);
 10936  1A7C  1283               	bcf	status, 5	;RP0=0, select bank0
 10937  1A7D  1303               	bcf	status, 6	;RP1=0, select bank0
 10938  1A7E  0829               	movf	(i2c_byte_read@regadd),w
 10939  1A7F  120A  158A  2000   	fcall	_i2c_Tx
              160A  158A         
 10940                           	line	157
 10941                           	
 10942  1A84                     l7964:	
 10943                           ;FM_RADIO_main.c: 157: RSEN = 1;
 10944  1A84  1683               	bsf	status, 5	;RP0=1, select bank1
 10945  1A85  1303               	bcf	status, 6	;RP1=0, select bank1
 10946  1A86  1491               	bsf	(1161/8)^080h,(1161)&7
 10947                           	line	158
 10948                           ;FM_RADIO_main.c: 158: while (RSEN);
 10949  1A87  2A88               	goto	l1078
 10950                           	
 10951  1A88                     l1079:	
 10952                           	
 10953  1A88                     l1078:	
 10954  1A88  1891               	btfsc	(1161/8)^080h,(1161)&7
 10955  1A89  2A8B               	goto	u6471
 10956  1A8A  2A8C               	goto	u6470
 10957  1A8B                     u6471:
 10958  1A8B  2A88               	goto	l1078
 10959  1A8C                     u6470:
 10960  1A8C  2A8D               	goto	l7966
 10961                           	
 10962  1A8D                     l1080:	
 10963                           	line	159
 10964                           	
 10965  1A8D                     l7966:	
 10966                           ;FM_RADIO_main.c: 159: i2c_Tx(add + 0x01);
 10967  1A8D  1283               	bcf	status, 5	;RP0=0, select bank0
 10968  1A8E  1303               	bcf	status, 6	;RP1=0, select bank0
 10969  1A8F  0828               	movf	(i2c_byte_read@add),w
 10970  1A90  3E01               	addlw	01h
 10971  1A91  120A  158A  2000   	fcall	_i2c_Tx
              160A  158A         
 10972                           	line	160
 10973                           	
 10974  1A96                     l7968:	
 10975                           ;FM_RADIO_main.c: 160: RCEN = 1;
 10976  1A96  1683               	bsf	status, 5	;RP0=1, select bank1
 10977  1A97  1303               	bcf	status, 6	;RP1=0, select bank1
 10978  1A98  1591               	bsf	(1163/8)^080h,(1163)&7
 10979                           	line	161
 10980                           ;FM_RADIO_main.c: 161: while (RCEN);
 10981  1A99  2A9A               	goto	l1081
 10982                           	
 10983  1A9A                     l1082:	
 10984                           	
 10985  1A9A                     l1081:	
 10986  1A9A  1991               	btfsc	(1163/8)^080h,(1163)&7
 10987  1A9B  2A9D               	goto	u6481
 10988  1A9C  2A9E               	goto	u6480
 10989  1A9D                     u6481:
 10990  1A9D  2A9A               	goto	l1081
 10991  1A9E                     u6480:
 10992  1A9E  2A9F               	goto	l7970
 10993                           	
 10994  1A9F                     l1083:	
 10995                           	line	162
 10996                           	
 10997  1A9F                     l7970:	
 10998                           ;FM_RADIO_main.c: 162: read_data[0] = SSPBUF;
 10999  1A9F  1283               	bcf	status, 5	;RP0=0, select bank0
 11000  1AA0  1303               	bcf	status, 6	;RP1=0, select bank0
 11001  1AA1  0813               	movf	(19),w	;volatile
 11002  1AA2  00AA               	movwf	(??_i2c_byte_read+0)+0
 11003  1AA3  082A               	movf	(??_i2c_byte_read+0)+0,w
 11004  1AA4  00AC               	movwf	(i2c_byte_read@read_data)
 11005                           	line	163
 11006                           	
 11007  1AA5                     l7972:	
 11008                           ;FM_RADIO_main.c: 163: ACKDT = 0;
 11009  1AA5  1683               	bsf	status, 5	;RP0=1, select bank1
 11010  1AA6  1303               	bcf	status, 6	;RP1=0, select bank1
 11011  1AA7  1291               	bcf	(1165/8)^080h,(1165)&7
 11012                           	line	164
 11013                           	
 11014  1AA8                     l7974:	
 11015                           ;FM_RADIO_main.c: 164: ACKEN = 1;
 11016  1AA8  1611               	bsf	(1164/8)^080h,(1164)&7
 11017                           	line	165
 11018                           ;FM_RADIO_main.c: 165: while (ACKEN);
 11019  1AA9  2AAA               	goto	l1084
 11020                           	
 11021  1AAA                     l1085:	
 11022                           	
 11023  1AAA                     l1084:	
 11024  1AAA  1A11               	btfsc	(1164/8)^080h,(1164)&7
 11025  1AAB  2AAD               	goto	u6491
 11026  1AAC  2AAE               	goto	u6490
 11027  1AAD                     u6491:
 11028  1AAD  2AAA               	goto	l1084
 11029  1AAE                     u6490:
 11030                           	
 11031  1AAE                     l1086:	
 11032                           	line	166
 11033                           ;FM_RADIO_main.c: 166: RCEN = 1;
 11034  1AAE  1591               	bsf	(1163/8)^080h,(1163)&7
 11035                           	line	167
 11036                           ;FM_RADIO_main.c: 167: while (RCEN);
 11037  1AAF  2AB0               	goto	l1087
 11038                           	
 11039  1AB0                     l1088:	
 11040                           	
 11041  1AB0                     l1087:	
 11042  1AB0  1991               	btfsc	(1163/8)^080h,(1163)&7
 11043  1AB1  2AB3               	goto	u6501
 11044  1AB2  2AB4               	goto	u6500
 11045  1AB3                     u6501:
 11046  1AB3  2AB0               	goto	l1087
 11047  1AB4                     u6500:
 11048  1AB4  2AB5               	goto	l7976
 11049                           	
 11050  1AB5                     l1089:	
 11051                           	line	168
 11052                           	
 11053  1AB5                     l7976:	
 11054                           ;FM_RADIO_main.c: 168: read_data[1] = SSPBUF;
 11055  1AB5  1283               	bcf	status, 5	;RP0=0, select bank0
 11056  1AB6  1303               	bcf	status, 6	;RP1=0, select bank0
 11057  1AB7  0813               	movf	(19),w	;volatile
 11058  1AB8  00AA               	movwf	(??_i2c_byte_read+0)+0
 11059  1AB9  082A               	movf	(??_i2c_byte_read+0)+0,w
 11060  1ABA  00AD               	movwf	0+(i2c_byte_read@read_data)+01h
 11061                           	line	169
 11062                           	
 11063  1ABB                     l7978:	
 11064                           ;FM_RADIO_main.c: 169: ACKDT = 1;
 11065  1ABB  1683               	bsf	status, 5	;RP0=1, select bank1
 11066  1ABC  1303               	bcf	status, 6	;RP1=0, select bank1
 11067  1ABD  1691               	bsf	(1165/8)^080h,(1165)&7
 11068                           	line	170
 11069                           	
 11070  1ABE                     l7980:	
 11071                           ;FM_RADIO_main.c: 170: ACKEN = 1;
 11072  1ABE  1611               	bsf	(1164/8)^080h,(1164)&7
 11073                           	line	171
 11074                           ;FM_RADIO_main.c: 171: while (ACKEN);
 11075  1ABF  2AC0               	goto	l1090
 11076                           	
 11077  1AC0                     l1091:	
 11078                           	
 11079  1AC0                     l1090:	
 11080  1AC0  1A11               	btfsc	(1164/8)^080h,(1164)&7
 11081  1AC1  2AC3               	goto	u6511
 11082  1AC2  2AC4               	goto	u6510
 11083  1AC3                     u6511:
 11084  1AC3  2AC0               	goto	l1090
 11085  1AC4                     u6510:
 11086                           	
 11087  1AC4                     l1092:	
 11088                           	line	172
 11089                           ;FM_RADIO_main.c: 172: PEN = 1;
 11090  1AC4  1511               	bsf	(1162/8)^080h,(1162)&7
 11091                           	line	173
 11092                           ;FM_RADIO_main.c: 173: while (PEN);
 11093  1AC5  2AC6               	goto	l1093
 11094                           	
 11095  1AC6                     l1094:	
 11096                           	
 11097  1AC6                     l1093:	
 11098  1AC6  1911               	btfsc	(1162/8)^080h,(1162)&7
 11099  1AC7  2AC9               	goto	u6521
 11100  1AC8  2ACA               	goto	u6520
 11101  1AC9                     u6521:
 11102  1AC9  2AC6               	goto	l1093
 11103  1ACA                     u6520:
 11104  1ACA  2ACB               	goto	l7982
 11105                           	
 11106  1ACB                     l1095:	
 11107                           	line	174
 11108                           	
 11109  1ACB                     l7982:	
 11110                           ;FM_RADIO_main.c: 174: SSPADD = 0x09;
 11111  1ACB  3009               	movlw	(09h)
 11112  1ACC  0093               	movwf	(147)^080h	;volatile
 11113                           	line	175
 11114                           	
 11115  1ACD                     l7984:	
 11116                           ;FM_RADIO_main.c: 175: return (read_data[sel]);
 11117  1ACD  1283               	bcf	status, 5	;RP0=0, select bank0
 11118  1ACE  1303               	bcf	status, 6	;RP1=0, select bank0
 11119  1ACF  0826               	movf	(i2c_byte_read@sel),w
 11120  1AD0  3E2C               	addlw	i2c_byte_read@read_data&0ffh
 11121  1AD1  0084               	movwf	fsr0
 11122  1AD2  1383               	bcf	status, 7	;select IRP bank0
 11123  1AD3  0800               	movf	indf,w
 11124  1AD4  00AA               	movwf	(??_i2c_byte_read+0)+0
 11125  1AD5  01AB               	clrf	(??_i2c_byte_read+0)+0+1
 11126  1AD6  082A               	movf	0+(??_i2c_byte_read+0)+0,w
 11127  1AD7  00A6               	movwf	(?_i2c_byte_read)
 11128  1AD8  082B               	movf	1+(??_i2c_byte_read+0)+0,w
 11129  1AD9  00A7               	movwf	(?_i2c_byte_read+1)
 11130  1ADA  2ADB               	goto	l1096
 11131                           	
 11132  1ADB                     l7986:	
 11133                           	line	176
 11134                           	
 11135  1ADB                     l1096:	
 11136  1ADB  0008               	return
 11137                           	opt stack 0
 11138                           GLOBAL	__end_of_i2c_byte_read
 11139  1ADC                     	__end_of_i2c_byte_read:
 11140 ;; =============== function _i2c_byte_read ends ============
 11141                           
 11142                           	signat	_i2c_byte_read,12410
 11143                           	global	_i2c_byte_write
 11144                           psect	text911,local,class=CODE,delta=2
 11145                           global __ptext911
 11146  18C7                     __ptext911:
 11147                           
 11148 ;; *************** function _i2c_byte_write *****************
 11149 ;; Defined at:
 11150 ;;		line 137 in file "FM_RADIO_main.c"
 11151 ;; Parameters:    Size  Location     Type
 11152 ;;  sel             2    0[BANK0 ] int 
 11153 ;;  add             1    2[BANK0 ] unsigned char 
 11154 ;;  cmd             1    3[BANK0 ] unsigned char 
 11155 ;;  date1           1    4[BANK0 ] unsigned char 
 11156 ;;  date2           1    5[BANK0 ] unsigned char 
 11157 ;; Auto vars:     Size  Location     Type
 11158 ;;		None
 11159 ;; Return value:  Size  Location     Type
 11160 ;;                  2    0[BANK0 ] int 
 11161 ;; Registers used:
 11162 ;;		wreg, status,2, status,0, pclath, cstack
 11163 ;; Tracked objects:
 11164 ;;		On entry : 0/0
 11165 ;;		On exit  : 0/0
 11166 ;;		Unchanged: 0/0
 11167 ;; Data sizes:     COMMON   BANK0   BANK1   BANK3   BANK2
 11168 ;;      Params:         0       6       0       0       0
 11169 ;;      Locals:         0       0       0       0       0
 11170 ;;      Temps:          0       1       0       0       0
 11171 ;;      Totals:         0       7       0       0       0
 11172 ;;Total ram usage:        7 bytes
 11173 ;; Hardware stack levels used:    1
 11174 ;; Hardware stack levels required when called:    2
 11175 ;; This function calls:
 11176 ;;		_i2c_Tx
 11177 ;; This function is called by:
 11178 ;;		_lcd_RS
 11179 ;;		_fmIC_RS
 11180 ;;		_fmIC_VOL
 11181 ;;		_lcd_int
 11182 ;;		_lcd_float
 11183 ;;		_start_LCD_POINT
 11184 ;;		_fm_fcon_write
 11185 ;;		_seek_RSSI
 11186 ;;		_seek_SNR
 11187 ;;		_buss_boost
 11188 ;;		_fmNo_in
 11189 ;;		_fm_serch
 11190 ;;		_main
 11191 ;; This function uses a non-reentrant model
 11192 ;;
 11193                           psect	text911
 11194                           	file	"FM_RADIO_main.c"
 11195                           	line	137
 11196                           	global	__size_of_i2c_byte_write
 11197  0045                     	__size_of_i2c_byte_write	equ	__end_of_i2c_byte_write-_i2c_byte_write
 11198                           	
 11199  18C7                     _i2c_byte_write:	
 11200                           	opt	stack 3
 11201                           ; Regs used in _i2c_byte_write: [wreg+status,2+status,0+pclath+cstack]
 11202                           	line	138
 11203                           	
 11204  18C7                     l7944:	
 11205                           ;FM_RADIO_main.c: 138: SEN = 1;
 11206  18C7  1683               	bsf	status, 5	;RP0=1, select bank1
 11207  18C8  1303               	bcf	status, 6	;RP1=0, select bank1
 11208  18C9  1411               	bsf	(1160/8)^080h,(1160)&7
 11209                           	line	139
 11210                           ;FM_RADIO_main.c: 139: while (SEN);
 11211  18CA  28CB               	goto	l1065
 11212                           	
 11213  18CB                     l1066:	
 11214                           	
 11215  18CB                     l1065:	
 11216  18CB  1811               	btfsc	(1160/8)^080h,(1160)&7
 11217  18CC  28CE               	goto	u6431
 11218  18CD  28CF               	goto	u6430
 11219  18CE                     u6431:
 11220  18CE  28CB               	goto	l1065
 11221  18CF                     u6430:
 11222  18CF  28D0               	goto	l7946
 11223                           	
 11224  18D0                     l1067:	
 11225                           	line	140
 11226                           	
 11227  18D0                     l7946:	
 11228                           ;FM_RADIO_main.c: 140: i2c_Tx(add);
 11229  18D0  1283               	bcf	status, 5	;RP0=0, select bank0
 11230  18D1  1303               	bcf	status, 6	;RP1=0, select bank0
 11231  18D2  0822               	movf	(i2c_byte_write@add),w
 11232  18D3  120A  158A  2000   	fcall	_i2c_Tx
              160A  158A         
 11233                           	line	141
 11234                           ;FM_RADIO_main.c: 141: i2c_Tx(cmd);
 11235  18D8  1283               	bcf	status, 5	;RP0=0, select bank0
 11236  18D9  1303               	bcf	status, 6	;RP1=0, select bank0
 11237  18DA  0823               	movf	(i2c_byte_write@cmd),w
 11238  18DB  120A  158A  2000   	fcall	_i2c_Tx
              160A  158A         
 11239                           	line	142
 11240                           ;FM_RADIO_main.c: 142: i2c_Tx(date1);
 11241  18E0  1283               	bcf	status, 5	;RP0=0, select bank0
 11242  18E1  1303               	bcf	status, 6	;RP1=0, select bank0
 11243  18E2  0824               	movf	(i2c_byte_write@date1),w
 11244  18E3  120A  158A  2000   	fcall	_i2c_Tx
              160A  158A         
 11245                           	line	143
 11246                           	
 11247  18E8                     l7948:	
 11248                           ;FM_RADIO_main.c: 143: if (sel == 1)i2c_Tx(date2);
 11249  18E8  3001               	movlw	01h
 11250  18E9  1283               	bcf	status, 5	;RP0=0, select bank0
 11251  18EA  1303               	bcf	status, 6	;RP1=0, select bank0
 11252  18EB  0620               	xorwf	(i2c_byte_write@sel),w
 11253  18EC  0421               	iorwf	(i2c_byte_write@sel+1),w
 11254  18ED  1D03               	skipz
 11255  18EE  28F0               	goto	u6441
 11256  18EF  28F1               	goto	u6440
 11257  18F0                     u6441:
 11258  18F0  28F8               	goto	l7952
 11259  18F1                     u6440:
 11260                           	
 11261  18F1                     l7950:	
 11262  18F1  0825               	movf	(i2c_byte_write@date2),w
 11263  18F2  120A  158A  2000   	fcall	_i2c_Tx
              160A  158A         
 11264  18F7  28F8               	goto	l7952
 11265                           	
 11266  18F8                     l1068:	
 11267                           	line	144
 11268                           	
 11269  18F8                     l7952:	
 11270                           ;FM_RADIO_main.c: 144: SSPIF = 0;
 11271  18F8  1283               	bcf	status, 5	;RP0=0, select bank0
 11272  18F9  1303               	bcf	status, 6	;RP1=0, select bank0
 11273  18FA  118C               	bcf	(99/8),(99)&7
 11274                           	line	145
 11275                           	
 11276  18FB                     l7954:	
 11277                           ;FM_RADIO_main.c: 145: PEN = 1;
 11278  18FB  1683               	bsf	status, 5	;RP0=1, select bank1
 11279  18FC  1303               	bcf	status, 6	;RP1=0, select bank1
 11280  18FD  1511               	bsf	(1162/8)^080h,(1162)&7
 11281                           	line	146
 11282                           ;FM_RADIO_main.c: 146: while (PEN);
 11283  18FE  28FF               	goto	l1069
 11284                           	
 11285  18FF                     l1070:	
 11286                           	
 11287  18FF                     l1069:	
 11288  18FF  1911               	btfsc	(1162/8)^080h,(1162)&7
 11289  1900  2902               	goto	u6451
 11290  1901  2903               	goto	u6450
 11291  1902                     u6451:
 11292  1902  28FF               	goto	l1069
 11293  1903                     u6450:
 11294  1903  2904               	goto	l7956
 11295                           	
 11296  1904                     l1071:	
 11297                           	line	147
 11298                           	
 11299  1904                     l7956:	
 11300                           ;FM_RADIO_main.c: 147: _delay((unsigned long)((27)*(4000000/4000000.0)));
 11301                           	opt asmopt_off
 11302  1904  3008               movlw	8
 11303  1905  1283               	bcf	status, 5	;RP0=0, select bank0
 11304  1906  1303               	bcf	status, 6	;RP1=0, select bank0
 11305  1907  00A6               movwf	(??_i2c_byte_write+0)+0,f
 11306  1908                     u8277:
 11307  1908  0BA6               decfsz	(??_i2c_byte_write+0)+0,f
 11308  1909  2908               	goto	u8277
 11309  190A  290B               	nop2	;nop
 11310                           opt asmopt_on
 11311                           
 11312                           	line	148
 11313                           	
 11314  190B                     l1072:	
 11315  190B  0008               	return
 11316                           	opt stack 0
 11317                           GLOBAL	__end_of_i2c_byte_write
 11318  190C                     	__end_of_i2c_byte_write:
 11319 ;; =============== function _i2c_byte_write ends ============
 11320                           
 11321                           	signat	_i2c_byte_write,20602
 11322                           	global	_memory_fcont
 11323                           psect	text912,local,class=CODE,delta=2
 11324                           global __ptext912
 11325  1B52                     __ptext912:
 11326                           
 11327 ;; *************** function _memory_fcont *****************
 11328 ;; Defined at:
 11329 ;;		line 112 in file "FM_RADIO_main.c"
 11330 ;; Parameters:    Size  Location     Type
 11331 ;;  sel             2   10[BANK0 ] int 
 11332 ;;  add             2   12[BANK0 ] int 
 11333 ;;  fcont           2   14[BANK0 ] int 
 11334 ;; Auto vars:     Size  Location     Type
 11335 ;;  fcon            2   19[BANK0 ] int 
 11336 ;; Return value:  Size  Location     Type
 11337 ;;                  2   10[BANK0 ] int 
 11338 ;; Registers used:
 11339 ;;		wreg, fsr0l, fsr0h, status,2, status,0, pclath, cstack
 11340 ;; Tracked objects:
 11341 ;;		On entry : 0/0
 11342 ;;		On exit  : 0/0
 11343 ;;		Unchanged: 0/0
 11344 ;; Data sizes:     COMMON   BANK0   BANK1   BANK3   BANK2
 11345 ;;      Params:         0       6       0       0       0
 11346 ;;      Locals:         0       2       0       0       0
 11347 ;;      Temps:          0       3       0       0       0
 11348 ;;      Totals:         0      11       0       0       0
 11349 ;;Total ram usage:       11 bytes
 11350 ;; Hardware stack levels used:    1
 11351 ;; Hardware stack levels required when called:    2
 11352 ;; This function calls:
 11353 ;;		_eeprom_read
 11354 ;;		___wmul
 11355 ;;		___awdiv
 11356 ;;		_eeprom_write
 11357 ;;		___awmod
 11358 ;; This function is called by:
 11359 ;;		_fmNo_in
 11360 ;;		_main
 11361 ;; This function uses a non-reentrant model
 11362 ;;
 11363                           psect	text912
 11364                           	file	"FM_RADIO_main.c"
 11365                           	line	112
 11366                           	global	__size_of_memory_fcont
 11367  0086                     	__size_of_memory_fcont	equ	__end_of_memory_fcont-_memory_fcont
 11368                           	
 11369  1B52                     _memory_fcont:	
 11370                           	opt	stack 4
 11371                           ; Regs used in _memory_fcont: [wreg-fsr0h+status,2+status,0+pclath+cstack]
 11372                           	line	114
 11373                           	
 11374  1B52                     l7926:	
 11375                           ;FM_RADIO_main.c: 113: int fcon;
 11376                           ;FM_RADIO_main.c: 114: switch (sel) {
 11377  1B52  2BBF               	goto	l7934
 11378                           	line	115
 11379                           ;FM_RADIO_main.c: 115: case 0:
 11380                           	
 11381  1B53                     l1049:	
 11382                           	line	116
 11383                           	
 11384  1B53                     l7928:	
 11385                           ;FM_RADIO_main.c: 116: fcon = (eeprom_read(add + 7 + 1) * 10 + eeprom_read(add + 7 + 32 
                                 + 1));
 11386  1B53  1283               	bcf	status, 5	;RP0=0, select bank0
 11387  1B54  1303               	bcf	status, 6	;RP1=0, select bank0
 11388  1B55  082C               	movf	(memory_fcont@add),w
 11389  1B56  3E28               	addlw	028h
 11390  1B57  160A  158A  2048   	fcall	_eeprom_read
              160A  158A         
 11391  1B5C  1283               	bcf	status, 5	;RP0=0, select bank0
 11392  1B5D  1303               	bcf	status, 6	;RP1=0, select bank0
 11393  1B5E  00B0               	movwf	(??_memory_fcont+0)+0
 11394  1B5F  082C               	movf	(memory_fcont@add),w
 11395  1B60  3E08               	addlw	08h
 11396  1B61  160A  158A  2048   	fcall	_eeprom_read
              160A  158A         
 11397  1B66  1283               	bcf	status, 5	;RP0=0, select bank0
 11398  1B67  1303               	bcf	status, 6	;RP1=0, select bank0
 11399  1B68  00B1               	movwf	(??_memory_fcont+1)+0
 11400  1B69  01B2               	clrf	(??_memory_fcont+1)+0+1
 11401  1B6A  0831               	movf	0+(??_memory_fcont+1)+0,w
 11402  1B6B  00A0               	movwf	(?___wmul)
 11403  1B6C  0832               	movf	1+(??_memory_fcont+1)+0,w
 11404  1B6D  00A1               	movwf	(?___wmul+1)
 11405  1B6E  300A               	movlw	low(0Ah)
 11406  1B6F  00A2               	movwf	0+(?___wmul)+02h
 11407  1B70  3000               	movlw	high(0Ah)
 11408  1B71  00A3               	movwf	(0+(?___wmul)+02h)+1
 11409  1B72  160A  118A  2000   	fcall	___wmul
              160A  158A         
 11410  1B77  1283               	bcf	status, 5	;RP0=0, select bank0
 11411  1B78  1303               	bcf	status, 6	;RP1=0, select bank0
 11412  1B79  0830               	movf	0+(??_memory_fcont+0)+0,w
 11413  1B7A  0720               	addwf	(0+(?___wmul)),w
 11414  1B7B  00B3               	movwf	(memory_fcont@fcon)
 11415  1B7C  3000               	movlw	0
 11416  1B7D  1803               	skipnc
 11417  1B7E  3001               	movlw	1
 11418  1B7F  0721               	addwf	(1+(?___wmul)),w
 11419  1B80  00B4               	movwf	1+(memory_fcont@fcon)
 11420                           	line	117
 11421                           ;FM_RADIO_main.c: 117: break;
 11422  1B81  2BCE               	goto	l7936
 11423                           	line	118
 11424                           ;FM_RADIO_main.c: 118: case 1:
 11425                           	
 11426  1B82                     l1051:	
 11427                           	line	119
 11428                           	
 11429  1B82                     l7930:	
 11430                           ;FM_RADIO_main.c: 119: eeprom_write(add + 7 + 1, (fcont / 10));
 11431  1B82  300A               	movlw	low(0Ah)
 11432  1B83  00A0               	movwf	(?___awdiv)
 11433  1B84  3000               	movlw	high(0Ah)
 11434  1B85  00A1               	movwf	((?___awdiv))+1
 11435  1B86  082F               	movf	(memory_fcont@fcont+1),w
 11436  1B87  01A3               	clrf	1+(?___awdiv)+02h
 11437  1B88  07A3               	addwf	1+(?___awdiv)+02h
 11438  1B89  082E               	movf	(memory_fcont@fcont),w
 11439  1B8A  01A2               	clrf	0+(?___awdiv)+02h
 11440  1B8B  07A2               	addwf	0+(?___awdiv)+02h
 11441                           
 11442  1B8C  160A  158A  22DC   	fcall	___awdiv
              160A  158A         
 11443  1B91  1283               	bcf	status, 5	;RP0=0, select bank0
 11444  1B92  1303               	bcf	status, 6	;RP1=0, select bank0
 11445  1B93  0820               	movf	(0+(?___awdiv)),w
 11446  1B94  00B0               	movwf	(??_memory_fcont+0)+0
 11447  1B95  0830               	movf	(??_memory_fcont+0)+0,w
 11448  1B96  00F5               	movwf	(?_eeprom_write)
 11449  1B97  082C               	movf	(memory_fcont@add),w
 11450  1B98  3E08               	addlw	08h
 11451  1B99  160A  158A  2090   	fcall	_eeprom_write
              160A  158A         
 11452                           	line	120
 11453                           ;FM_RADIO_main.c: 120: eeprom_write((add + 7 + 32 + 1), (fcont % 10));
 11454  1B9E  300A               	movlw	low(0Ah)
 11455  1B9F  1283               	bcf	status, 5	;RP0=0, select bank0
 11456  1BA0  1303               	bcf	status, 6	;RP1=0, select bank0
 11457  1BA1  00A0               	movwf	(?___awmod)
 11458  1BA2  3000               	movlw	high(0Ah)
 11459  1BA3  00A1               	movwf	((?___awmod))+1
 11460  1BA4  082F               	movf	(memory_fcont@fcont+1),w
 11461  1BA5  01A3               	clrf	1+(?___awmod)+02h
 11462  1BA6  07A3               	addwf	1+(?___awmod)+02h
 11463  1BA7  082E               	movf	(memory_fcont@fcont),w
 11464  1BA8  01A2               	clrf	0+(?___awmod)+02h
 11465  1BA9  07A2               	addwf	0+(?___awmod)+02h
 11466                           
 11467  1BAA  160A  158A  2201   	fcall	___awmod
              160A  158A         
 11468  1BAF  1283               	bcf	status, 5	;RP0=0, select bank0
 11469  1BB0  1303               	bcf	status, 6	;RP1=0, select bank0
 11470  1BB1  0820               	movf	(0+(?___awmod)),w
 11471  1BB2  00B0               	movwf	(??_memory_fcont+0)+0
 11472  1BB3  0830               	movf	(??_memory_fcont+0)+0,w
 11473  1BB4  00F5               	movwf	(?_eeprom_write)
 11474  1BB5  082C               	movf	(memory_fcont@add),w
 11475  1BB6  3E28               	addlw	028h
 11476  1BB7  160A  158A  2090   	fcall	_eeprom_write
              160A  158A         
 11477                           	line	121
 11478                           ;FM_RADIO_main.c: 121: break;
 11479  1BBC  2BCE               	goto	l7936
 11480                           	line	122
 11481                           ;FM_RADIO_main.c: 122: default:
 11482                           	
 11483  1BBD                     l1052:	
 11484                           	line	123
 11485                           ;FM_RADIO_main.c: 123: break;
 11486  1BBD  2BCE               	goto	l7936
 11487                           	line	124
 11488                           	
 11489  1BBE                     l7932:	
 11490                           ;FM_RADIO_main.c: 124: }
 11491  1BBE  2BCE               	goto	l7936
 11492                           	line	114
 11493                           	
 11494  1BBF                     l1048:	
 11495                           	
 11496  1BBF                     l7934:	
 11497                           	; Switch on 2 bytes has been partitioned into a top level switch of size 1, and 1 sub-s
                                 witches
 11498                           ; Switch size 1, requested type "space"
 11499                           ; Number of cases is 1, Range of values is 0 to 0
 11500                           ; switch strategies available:
 11501                           ; Name         Instructions Cycles
 11502                           ; simple_byte            4     3 (average)
 11503                           ; direct_byte           11     8 (fixed)
 11504                           ; jumptable            260     6 (fixed)
 11505                           ; rangetable             5     6 (fixed)
 11506                           ; spacedrange            8     9 (fixed)
 11507                           ; locatedrange           1     3 (fixed)
 11508                           ;	Chosen strategy is simple_byte
 11509                           
 11510  1BBF  1283               	bcf	status, 5	;RP0=0, select bank0
 11511  1BC0  1303               	bcf	status, 6	;RP1=0, select bank0
 11512  1BC1  082B               	movf (memory_fcont@sel+1),w
 11513                           	opt asmopt_off
 11514  1BC2  3A00               	xorlw	0^0	; case 0
 11515  1BC3  1903               	skipnz
 11516  1BC4  2BC6               	goto	l8854
 11517  1BC5  2BCE               	goto	l7936
 11518                           	opt asmopt_on
 11519                           	
 11520  1BC6                     l8854:	
 11521                           ; Switch size 1, requested type "space"
 11522                           ; Number of cases is 2, Range of values is 0 to 1
 11523                           ; switch strategies available:
 11524                           ; Name         Instructions Cycles
 11525                           ; simple_byte            7     4 (average)
 11526                           ; direct_byte           14     8 (fixed)
 11527                           ; jumptable            260     6 (fixed)
 11528                           ; rangetable             6     6 (fixed)
 11529                           ; spacedrange           10     9 (fixed)
 11530                           ; locatedrange           2     3 (fixed)
 11531                           ;	Chosen strategy is simple_byte
 11532                           
 11533  1BC6  082A               	movf (memory_fcont@sel),w
 11534                           	opt asmopt_off
 11535  1BC7  3A00               	xorlw	0^0	; case 0
 11536  1BC8  1903               	skipnz
 11537  1BC9  2B53               	goto	l7928
 11538  1BCA  3A01               	xorlw	1^0	; case 1
 11539  1BCB  1903               	skipnz
 11540  1BCC  2B82               	goto	l7930
 11541  1BCD  2BCE               	goto	l7936
 11542                           	opt asmopt_on
 11543                           
 11544                           	line	124
 11545                           	
 11546  1BCE                     l1050:	
 11547                           	line	125
 11548                           	
 11549  1BCE                     l7936:	
 11550                           ;FM_RADIO_main.c: 125: return (fcon);
 11551  1BCE  1283               	bcf	status, 5	;RP0=0, select bank0
 11552  1BCF  1303               	bcf	status, 6	;RP1=0, select bank0
 11553  1BD0  0834               	movf	(memory_fcont@fcon+1),w
 11554  1BD1  01AB               	clrf	(?_memory_fcont+1)
 11555  1BD2  07AB               	addwf	(?_memory_fcont+1)
 11556  1BD3  0833               	movf	(memory_fcont@fcon),w
 11557  1BD4  01AA               	clrf	(?_memory_fcont)
 11558  1BD5  07AA               	addwf	(?_memory_fcont)
 11559                           
 11560  1BD6  2BD7               	goto	l1053
 11561                           	
 11562  1BD7                     l7938:	
 11563                           	line	126
 11564                           	
 11565  1BD7                     l1053:	
 11566  1BD7  0008               	return
 11567                           	opt stack 0
 11568                           GLOBAL	__end_of_memory_fcont
 11569  1BD8                     	__end_of_memory_fcont:
 11570 ;; =============== function _memory_fcont ends ============
 11571                           
 11572                           	signat	_memory_fcont,12410
 11573                           	global	___awmod
 11574                           psect	text913,local,class=CODE,delta=2
 11575                           global __ptext913
 11576  1A01                     __ptext913:
 11577                           
 11578 ;; *************** function ___awmod *****************
 11579 ;; Defined at:
 11580 ;;		line 5 in file "C:\Program Files (x86)\HI-TECH Software\PICC\9.82\sources\awmod.c"
 11581 ;; Parameters:    Size  Location     Type
 11582 ;;  divisor         2    0[BANK0 ] int 
 11583 ;;  dividend        2    2[BANK0 ] int 
 11584 ;; Auto vars:     Size  Location     Type
 11585 ;;  sign            1    5[BANK0 ] unsigned char 
 11586 ;;  counter         1    4[BANK0 ] unsigned char 
 11587 ;; Return value:  Size  Location     Type
 11588 ;;                  2    0[BANK0 ] int 
 11589 ;; Registers used:
 11590 ;;		wreg, status,2, status,0
 11591 ;; Tracked objects:
 11592 ;;		On entry : 0/0
 11593 ;;		On exit  : 0/0
 11594 ;;		Unchanged: 0/0
 11595 ;; Data sizes:     COMMON   BANK0   BANK1   BANK3   BANK2
 11596 ;;      Params:         0       4       0       0       0
 11597 ;;      Locals:         0       2       0       0       0
 11598 ;;      Temps:          1       0       0       0       0
 11599 ;;      Totals:         1       6       0       0       0
 11600 ;;Total ram usage:        7 bytes
 11601 ;; Hardware stack levels used:    1
 11602 ;; Hardware stack levels required when called:    1
 11603 ;; This function calls:
 11604 ;;		Nothing
 11605 ;; This function is called by:
 11606 ;;		_memory_fcont
 11607 ;;		_main
 11608 ;; This function uses a non-reentrant model
 11609 ;;
 11610                           psect	text913
 11611                           	file	"C:\Program Files (x86)\HI-TECH Software\PICC\9.82\sources\awmod.c"
 11612                           	line	5
 11613                           	global	__size_of___awmod
 11614  0068                     	__size_of___awmod	equ	__end_of___awmod-___awmod
 11615                           	
 11616  1A01                     ___awmod:	
 11617                           	opt	stack 6
 11618                           ; Regs used in ___awmod: [wreg+status,2+status,0]
 11619                           	line	8
 11620                           	
 11621  1A01                     l7892:	
 11622  1A01  1283               	bcf	status, 5	;RP0=0, select bank0
 11623  1A02  1303               	bcf	status, 6	;RP1=0, select bank0
 11624  1A03  01A5               	clrf	(___awmod@sign)
 11625                           	line	9
 11626  1A04  1FA3               	btfss	(___awmod@dividend+1),7
 11627  1A05  2A07               	goto	u6341
 11628  1A06  2A08               	goto	u6340
 11629  1A07                     u6341:
 11630  1A07  2A11               	goto	l7896
 11631  1A08                     u6340:
 11632                           	line	10
 11633                           	
 11634  1A08                     l7894:	
 11635  1A08  09A2               	comf	(___awmod@dividend),f
 11636  1A09  09A3               	comf	(___awmod@dividend+1),f
 11637  1A0A  0AA2               	incf	(___awmod@dividend),f
 11638  1A0B  1903               	skipnz
 11639  1A0C  0AA3               	incf	(___awmod@dividend+1),f
 11640                           	line	11
 11641  1A0D  01A5               	clrf	(___awmod@sign)
 11642  1A0E  1403               	bsf	status,0
 11643  1A0F  0DA5               	rlf	(___awmod@sign),f
 11644  1A10  2A11               	goto	l7896
 11645                           	line	12
 11646                           	
 11647  1A11                     l4376:	
 11648                           	line	13
 11649                           	
 11650  1A11                     l7896:	
 11651  1A11  1FA1               	btfss	(___awmod@divisor+1),7
 11652  1A12  2A14               	goto	u6351
 11653  1A13  2A15               	goto	u6350
 11654  1A14                     u6351:
 11655  1A14  2A1B               	goto	l7900
 11656  1A15                     u6350:
 11657                           	line	14
 11658                           	
 11659  1A15                     l7898:	
 11660  1A15  09A0               	comf	(___awmod@divisor),f
 11661  1A16  09A1               	comf	(___awmod@divisor+1),f
 11662  1A17  0AA0               	incf	(___awmod@divisor),f
 11663  1A18  1903               	skipnz
 11664  1A19  0AA1               	incf	(___awmod@divisor+1),f
 11665  1A1A  2A1B               	goto	l7900
 11666                           	
 11667  1A1B                     l4377:	
 11668                           	line	15
 11669                           	
 11670  1A1B                     l7900:	
 11671  1A1B  0821               	movf	(___awmod@divisor+1),w
 11672  1A1C  0420               	iorwf	(___awmod@divisor),w
 11673  1A1D  1903               	skipnz
 11674  1A1E  2A20               	goto	u6361
 11675  1A1F  2A21               	goto	u6360
 11676  1A20                     u6361:
 11677  1A20  2A57               	goto	l7918
 11678  1A21                     u6360:
 11679                           	line	16
 11680                           	
 11681  1A21                     l7902:	
 11682  1A21  01A4               	clrf	(___awmod@counter)
 11683  1A22  1403               	bsf	status,0
 11684  1A23  0DA4               	rlf	(___awmod@counter),f
 11685                           	line	17
 11686  1A24  2A31               	goto	l7908
 11687                           	
 11688  1A25                     l4380:	
 11689                           	line	18
 11690                           	
 11691  1A25                     l7904:	
 11692  1A25  3001               	movlw	01h
 11693                           	
 11694  1A26                     u6375:
 11695  1A26  1003               	clrc
 11696  1A27  0DA0               	rlf	(___awmod@divisor),f
 11697  1A28  0DA1               	rlf	(___awmod@divisor+1),f
 11698  1A29  3EFF               	addlw	-1
 11699  1A2A  1D03               	skipz
 11700  1A2B  2A26               	goto	u6375
 11701                           	line	19
 11702                           	
 11703  1A2C                     l7906:	
 11704  1A2C  3001               	movlw	(01h)
 11705  1A2D  00F4               	movwf	(??___awmod+0)+0
 11706  1A2E  0874               	movf	(??___awmod+0)+0,w
 11707  1A2F  07A4               	addwf	(___awmod@counter),f
 11708  1A30  2A31               	goto	l7908
 11709                           	line	20
 11710                           	
 11711  1A31                     l4379:	
 11712                           	line	17
 11713                           	
 11714  1A31                     l7908:	
 11715  1A31  1FA1               	btfss	(___awmod@divisor+1),(15)&7
 11716  1A32  2A34               	goto	u6381
 11717  1A33  2A35               	goto	u6380
 11718  1A34                     u6381:
 11719  1A34  2A25               	goto	l7904
 11720  1A35                     u6380:
 11721  1A35  2A37               	goto	l7910
 11722                           	
 11723  1A36                     l4381:	
 11724  1A36  2A37               	goto	l7910
 11725                           	line	21
 11726                           	
 11727  1A37                     l4382:	
 11728                           	line	22
 11729                           	
 11730  1A37                     l7910:	
 11731  1A37  0821               	movf	(___awmod@divisor+1),w
 11732  1A38  0223               	subwf	(___awmod@dividend+1),w
 11733  1A39  1D03               	skipz
 11734  1A3A  2A3D               	goto	u6395
 11735  1A3B  0820               	movf	(___awmod@divisor),w
 11736  1A3C  0222               	subwf	(___awmod@dividend),w
 11737  1A3D                     u6395:
 11738  1A3D  1C03               	skipc
 11739  1A3E  2A40               	goto	u6391
 11740  1A3F  2A41               	goto	u6390
 11741  1A40                     u6391:
 11742  1A40  2A48               	goto	l7914
 11743  1A41                     u6390:
 11744                           	line	23
 11745                           	
 11746  1A41                     l7912:	
 11747  1A41  0820               	movf	(___awmod@divisor),w
 11748  1A42  02A2               	subwf	(___awmod@dividend),f
 11749  1A43  0821               	movf	(___awmod@divisor+1),w
 11750  1A44  1C03               	skipc
 11751  1A45  03A3               	decf	(___awmod@dividend+1),f
 11752  1A46  02A3               	subwf	(___awmod@dividend+1),f
 11753  1A47  2A48               	goto	l7914
 11754                           	
 11755  1A48                     l4383:	
 11756                           	line	24
 11757                           	
 11758  1A48                     l7914:	
 11759  1A48  3001               	movlw	01h
 11760                           	
 11761  1A49                     u6405:
 11762  1A49  1003               	clrc
 11763  1A4A  0CA1               	rrf	(___awmod@divisor+1),f
 11764  1A4B  0CA0               	rrf	(___awmod@divisor),f
 11765  1A4C  3EFF               	addlw	-1
 11766  1A4D  1D03               	skipz
 11767  1A4E  2A49               	goto	u6405
 11768                           	line	25
 11769                           	
 11770  1A4F                     l7916:	
 11771  1A4F  3001               	movlw	low(01h)
 11772  1A50  02A4               	subwf	(___awmod@counter),f
 11773  1A51  1D03               	btfss	status,2
 11774  1A52  2A54               	goto	u6411
 11775  1A53  2A55               	goto	u6410
 11776  1A54                     u6411:
 11777  1A54  2A37               	goto	l7910
 11778  1A55                     u6410:
 11779  1A55  2A57               	goto	l7918
 11780                           	
 11781  1A56                     l4384:	
 11782  1A56  2A57               	goto	l7918
 11783                           	line	26
 11784                           	
 11785  1A57                     l4378:	
 11786                           	line	27
 11787                           	
 11788  1A57                     l7918:	
 11789  1A57  0825               	movf	(___awmod@sign),w
 11790  1A58  1D03               	skipz
 11791  1A59  2A5B               	goto	u6420
 11792  1A5A  2A61               	goto	l7922
 11793  1A5B                     u6420:
 11794                           	line	28
 11795                           	
 11796  1A5B                     l7920:	
 11797  1A5B  09A2               	comf	(___awmod@dividend),f
 11798  1A5C  09A3               	comf	(___awmod@dividend+1),f
 11799  1A5D  0AA2               	incf	(___awmod@dividend),f
 11800  1A5E  1903               	skipnz
 11801  1A5F  0AA3               	incf	(___awmod@dividend+1),f
 11802  1A60  2A61               	goto	l7922
 11803                           	
 11804  1A61                     l4385:	
 11805                           	line	29
 11806                           	
 11807  1A61                     l7922:	
 11808  1A61  0823               	movf	(___awmod@dividend+1),w
 11809  1A62  01A1               	clrf	(?___awmod+1)
 11810  1A63  07A1               	addwf	(?___awmod+1)
 11811  1A64  0822               	movf	(___awmod@dividend),w
 11812  1A65  01A0               	clrf	(?___awmod)
 11813  1A66  07A0               	addwf	(?___awmod)
 11814                           
 11815  1A67  2A68               	goto	l4386
 11816                           	
 11817  1A68                     l7924:	
 11818                           	line	30
 11819                           	
 11820  1A68                     l4386:	
 11821  1A68  0008               	return
 11822                           	opt stack 0
 11823                           GLOBAL	__end_of___awmod
 11824  1A69                     	__end_of___awmod:
 11825 ;; =============== function ___awmod ends ============
 11826                           
 11827                           	signat	___awmod,8314
 11828                           	global	___awdiv
 11829                           psect	text914,local,class=CODE,delta=2
 11830                           global __ptext914
 11831  1ADC                     __ptext914:
 11832                           
 11833 ;; *************** function ___awdiv *****************
 11834 ;; Defined at:
 11835 ;;		line 5 in file "C:\Program Files (x86)\HI-TECH Software\PICC\9.82\sources\awdiv.c"
 11836 ;; Parameters:    Size  Location     Type
 11837 ;;  divisor         2    0[BANK0 ] int 
 11838 ;;  dividend        2    2[BANK0 ] int 
 11839 ;; Auto vars:     Size  Location     Type
 11840 ;;  quotient        2    6[BANK0 ] int 
 11841 ;;  sign            1    5[BANK0 ] unsigned char 
 11842 ;;  counter         1    4[BANK0 ] unsigned char 
 11843 ;; Return value:  Size  Location     Type
 11844 ;;                  2    0[BANK0 ] int 
 11845 ;; Registers used:
 11846 ;;		wreg, status,2, status,0
 11847 ;; Tracked objects:
 11848 ;;		On entry : 0/0
 11849 ;;		On exit  : 0/0
 11850 ;;		Unchanged: 0/0
 11851 ;; Data sizes:     COMMON   BANK0   BANK1   BANK3   BANK2
 11852 ;;      Params:         0       4       0       0       0
 11853 ;;      Locals:         0       4       0       0       0
 11854 ;;      Temps:          1       0       0       0       0
 11855 ;;      Totals:         1       8       0       0       0
 11856 ;;Total ram usage:        9 bytes
 11857 ;; Hardware stack levels used:    1
 11858 ;; Hardware stack levels required when called:    1
 11859 ;; This function calls:
 11860 ;;		Nothing
 11861 ;; This function is called by:
 11862 ;;		_memory_fcont
 11863 ;;		_main
 11864 ;; This function uses a non-reentrant model
 11865 ;;
 11866                           psect	text914
 11867                           	file	"C:\Program Files (x86)\HI-TECH Software\PICC\9.82\sources\awdiv.c"
 11868                           	line	5
 11869                           	global	__size_of___awdiv
 11870  0076                     	__size_of___awdiv	equ	__end_of___awdiv-___awdiv
 11871                           	
 11872  1ADC                     ___awdiv:	
 11873                           	opt	stack 6
 11874                           ; Regs used in ___awdiv: [wreg+status,2+status,0]
 11875                           	line	9
 11876                           	
 11877  1ADC                     l7852:	
 11878  1ADC  1283               	bcf	status, 5	;RP0=0, select bank0
 11879  1ADD  1303               	bcf	status, 6	;RP1=0, select bank0
 11880  1ADE  01A5               	clrf	(___awdiv@sign)
 11881                           	line	10
 11882  1ADF  1FA1               	btfss	(___awdiv@divisor+1),7
 11883  1AE0  2AE2               	goto	u6241
 11884  1AE1  2AE3               	goto	u6240
 11885  1AE2                     u6241:
 11886  1AE2  2AEC               	goto	l7856
 11887  1AE3                     u6240:
 11888                           	line	11
 11889                           	
 11890  1AE3                     l7854:	
 11891  1AE3  09A0               	comf	(___awdiv@divisor),f
 11892  1AE4  09A1               	comf	(___awdiv@divisor+1),f
 11893  1AE5  0AA0               	incf	(___awdiv@divisor),f
 11894  1AE6  1903               	skipnz
 11895  1AE7  0AA1               	incf	(___awdiv@divisor+1),f
 11896                           	line	12
 11897  1AE8  01A5               	clrf	(___awdiv@sign)
 11898  1AE9  1403               	bsf	status,0
 11899  1AEA  0DA5               	rlf	(___awdiv@sign),f
 11900  1AEB  2AEC               	goto	l7856
 11901                           	line	13
 11902                           	
 11903  1AEC                     l4308:	
 11904                           	line	14
 11905                           	
 11906  1AEC                     l7856:	
 11907  1AEC  1FA3               	btfss	(___awdiv@dividend+1),7
 11908  1AED  2AEF               	goto	u6251
 11909  1AEE  2AF0               	goto	u6250
 11910  1AEF                     u6251:
 11911  1AEF  2AFA               	goto	l7862
 11912  1AF0                     u6250:
 11913                           	line	15
 11914                           	
 11915  1AF0                     l7858:	
 11916  1AF0  09A2               	comf	(___awdiv@dividend),f
 11917  1AF1  09A3               	comf	(___awdiv@dividend+1),f
 11918  1AF2  0AA2               	incf	(___awdiv@dividend),f
 11919  1AF3  1903               	skipnz
 11920  1AF4  0AA3               	incf	(___awdiv@dividend+1),f
 11921                           	line	16
 11922                           	
 11923  1AF5                     l7860:	
 11924  1AF5  3001               	movlw	(01h)
 11925  1AF6  00F4               	movwf	(??___awdiv+0)+0
 11926  1AF7  0874               	movf	(??___awdiv+0)+0,w
 11927  1AF8  06A5               	xorwf	(___awdiv@sign),f
 11928  1AF9  2AFA               	goto	l7862
 11929                           	line	17
 11930                           	
 11931  1AFA                     l4309:	
 11932                           	line	18
 11933                           	
 11934  1AFA                     l7862:	
 11935  1AFA  01A6               	clrf	(___awdiv@quotient)
 11936  1AFB  01A7               	clrf	(___awdiv@quotient+1)
 11937                           	line	19
 11938                           	
 11939  1AFC                     l7864:	
 11940  1AFC  0821               	movf	(___awdiv@divisor+1),w
 11941  1AFD  0420               	iorwf	(___awdiv@divisor),w
 11942  1AFE  1903               	skipnz
 11943  1AFF  2B01               	goto	u6261
 11944  1B00  2B02               	goto	u6260
 11945  1B01                     u6261:
 11946  1B01  2B40               	goto	l7884
 11947  1B02                     u6260:
 11948                           	line	20
 11949                           	
 11950  1B02                     l7866:	
 11951  1B02  01A4               	clrf	(___awdiv@counter)
 11952  1B03  1403               	bsf	status,0
 11953  1B04  0DA4               	rlf	(___awdiv@counter),f
 11954                           	line	21
 11955  1B05  2B12               	goto	l7872
 11956                           	
 11957  1B06                     l4312:	
 11958                           	line	22
 11959                           	
 11960  1B06                     l7868:	
 11961  1B06  3001               	movlw	01h
 11962                           	
 11963  1B07                     u6275:
 11964  1B07  1003               	clrc
 11965  1B08  0DA0               	rlf	(___awdiv@divisor),f
 11966  1B09  0DA1               	rlf	(___awdiv@divisor+1),f
 11967  1B0A  3EFF               	addlw	-1
 11968  1B0B  1D03               	skipz
 11969  1B0C  2B07               	goto	u6275
 11970                           	line	23
 11971                           	
 11972  1B0D                     l7870:	
 11973  1B0D  3001               	movlw	(01h)
 11974  1B0E  00F4               	movwf	(??___awdiv+0)+0
 11975  1B0F  0874               	movf	(??___awdiv+0)+0,w
 11976  1B10  07A4               	addwf	(___awdiv@counter),f
 11977  1B11  2B12               	goto	l7872
 11978                           	line	24
 11979                           	
 11980  1B12                     l4311:	
 11981                           	line	21
 11982                           	
 11983  1B12                     l7872:	
 11984  1B12  1FA1               	btfss	(___awdiv@divisor+1),(15)&7
 11985  1B13  2B15               	goto	u6281
 11986  1B14  2B16               	goto	u6280
 11987  1B15                     u6281:
 11988  1B15  2B06               	goto	l7868
 11989  1B16                     u6280:
 11990  1B16  2B18               	goto	l7874
 11991                           	
 11992  1B17                     l4313:	
 11993  1B17  2B18               	goto	l7874
 11994                           	line	25
 11995                           	
 11996  1B18                     l4314:	
 11997                           	line	26
 11998                           	
 11999  1B18                     l7874:	
 12000  1B18  3001               	movlw	01h
 12001                           	
 12002  1B19                     u6295:
 12003  1B19  1003               	clrc
 12004  1B1A  0DA6               	rlf	(___awdiv@quotient),f
 12005  1B1B  0DA7               	rlf	(___awdiv@quotient+1),f
 12006  1B1C  3EFF               	addlw	-1
 12007  1B1D  1D03               	skipz
 12008  1B1E  2B19               	goto	u6295
 12009                           	line	27
 12010  1B1F  0821               	movf	(___awdiv@divisor+1),w
 12011  1B20  0223               	subwf	(___awdiv@dividend+1),w
 12012  1B21  1D03               	skipz
 12013  1B22  2B25               	goto	u6305
 12014  1B23  0820               	movf	(___awdiv@divisor),w
 12015  1B24  0222               	subwf	(___awdiv@dividend),w
 12016  1B25                     u6305:
 12017  1B25  1C03               	skipc
 12018  1B26  2B28               	goto	u6301
 12019  1B27  2B29               	goto	u6300
 12020  1B28                     u6301:
 12021  1B28  2B31               	goto	l7880
 12022  1B29                     u6300:
 12023                           	line	28
 12024                           	
 12025  1B29                     l7876:	
 12026  1B29  0820               	movf	(___awdiv@divisor),w
 12027  1B2A  02A2               	subwf	(___awdiv@dividend),f
 12028  1B2B  0821               	movf	(___awdiv@divisor+1),w
 12029  1B2C  1C03               	skipc
 12030  1B2D  03A3               	decf	(___awdiv@dividend+1),f
 12031  1B2E  02A3               	subwf	(___awdiv@dividend+1),f
 12032                           	line	29
 12033                           	
 12034  1B2F                     l7878:	
 12035  1B2F  1426               	bsf	(___awdiv@quotient)+(0/8),(0)&7
 12036  1B30  2B31               	goto	l7880
 12037                           	line	30
 12038                           	
 12039  1B31                     l4315:	
 12040                           	line	31
 12041                           	
 12042  1B31                     l7880:	
 12043  1B31  3001               	movlw	01h
 12044                           	
 12045  1B32                     u6315:
 12046  1B32  1003               	clrc
 12047  1B33  0CA1               	rrf	(___awdiv@divisor+1),f
 12048  1B34  0CA0               	rrf	(___awdiv@divisor),f
 12049  1B35  3EFF               	addlw	-1
 12050  1B36  1D03               	skipz
 12051  1B37  2B32               	goto	u6315
 12052                           	line	32
 12053                           	
 12054  1B38                     l7882:	
 12055  1B38  3001               	movlw	low(01h)
 12056  1B39  02A4               	subwf	(___awdiv@counter),f
 12057  1B3A  1D03               	btfss	status,2
 12058  1B3B  2B3D               	goto	u6321
 12059  1B3C  2B3E               	goto	u6320
 12060  1B3D                     u6321:
 12061  1B3D  2B18               	goto	l7874
 12062  1B3E                     u6320:
 12063  1B3E  2B40               	goto	l7884
 12064                           	
 12065  1B3F                     l4316:	
 12066  1B3F  2B40               	goto	l7884
 12067                           	line	33
 12068                           	
 12069  1B40                     l4310:	
 12070                           	line	34
 12071                           	
 12072  1B40                     l7884:	
 12073  1B40  0825               	movf	(___awdiv@sign),w
 12074  1B41  1D03               	skipz
 12075  1B42  2B44               	goto	u6330
 12076  1B43  2B4A               	goto	l7888
 12077  1B44                     u6330:
 12078                           	line	35
 12079                           	
 12080  1B44                     l7886:	
 12081  1B44  09A6               	comf	(___awdiv@quotient),f
 12082  1B45  09A7               	comf	(___awdiv@quotient+1),f
 12083  1B46  0AA6               	incf	(___awdiv@quotient),f
 12084  1B47  1903               	skipnz
 12085  1B48  0AA7               	incf	(___awdiv@quotient+1),f
 12086  1B49  2B4A               	goto	l7888
 12087                           	
 12088  1B4A                     l4317:	
 12089                           	line	36
 12090                           	
 12091  1B4A                     l7888:	
 12092  1B4A  0827               	movf	(___awdiv@quotient+1),w
 12093  1B4B  01A1               	clrf	(?___awdiv+1)
 12094  1B4C  07A1               	addwf	(?___awdiv+1)
 12095  1B4D  0826               	movf	(___awdiv@quotient),w
 12096  1B4E  01A0               	clrf	(?___awdiv)
 12097  1B4F  07A0               	addwf	(?___awdiv)
 12098                           
 12099  1B50  2B51               	goto	l4318
 12100                           	
 12101  1B51                     l7890:	
 12102                           	line	37
 12103                           	
 12104  1B51                     l4318:	
 12105  1B51  0008               	return
 12106                           	opt stack 0
 12107                           GLOBAL	__end_of___awdiv
 12108  1B52                     	__end_of___awdiv:
 12109 ;; =============== function ___awdiv ends ============
 12110                           
 12111                           	signat	___awdiv,8314
 12112                           	global	___lwmod
 12113                           psect	text915,local,class=CODE,delta=2
 12114                           global __ptext915
 12115  190C                     __ptext915:
 12116                           
 12117 ;; *************** function ___lwmod *****************
 12118 ;; Defined at:
 12119 ;;		line 5 in file "C:\Program Files (x86)\HI-TECH Software\PICC\9.82\sources\lwmod.c"
 12120 ;; Parameters:    Size  Location     Type
 12121 ;;  divisor         2    0[BANK0 ] unsigned int 
 12122 ;;  dividend        2    2[BANK0 ] unsigned int 
 12123 ;; Auto vars:     Size  Location     Type
 12124 ;;  counter         1    5[COMMON] unsigned char 
 12125 ;; Return value:  Size  Location     Type
 12126 ;;                  2    0[BANK0 ] unsigned int 
 12127 ;; Registers used:
 12128 ;;		wreg, status,2, status,0
 12129 ;; Tracked objects:
 12130 ;;		On entry : 0/0
 12131 ;;		On exit  : 0/0
 12132 ;;		Unchanged: 0/0
 12133 ;; Data sizes:     COMMON   BANK0   BANK1   BANK3   BANK2
 12134 ;;      Params:         0       4       0       0       0
 12135 ;;      Locals:         1       0       0       0       0
 12136 ;;      Temps:          1       0       0       0       0
 12137 ;;      Totals:         2       4       0       0       0
 12138 ;;Total ram usage:        6 bytes
 12139 ;; Hardware stack levels used:    1
 12140 ;; Hardware stack levels required when called:    1
 12141 ;; This function calls:
 12142 ;;		Nothing
 12143 ;; This function is called by:
 12144 ;;		_lcd_int
 12145 ;;		_lcd_float
 12146 ;; This function uses a non-reentrant model
 12147 ;;
 12148                           psect	text915
 12149                           	file	"C:\Program Files (x86)\HI-TECH Software\PICC\9.82\sources\lwmod.c"
 12150                           	line	5
 12151                           	global	__size_of___lwmod
 12152  0046                     	__size_of___lwmod	equ	__end_of___lwmod-___lwmod
 12153                           	
 12154  190C                     ___lwmod:	
 12155                           	opt	stack 3
 12156                           ; Regs used in ___lwmod: [wreg+status,2+status,0]
 12157                           	line	8
 12158                           	
 12159  190C                     l7830:	
 12160  190C  1283               	bcf	status, 5	;RP0=0, select bank0
 12161  190D  1303               	bcf	status, 6	;RP1=0, select bank0
 12162  190E  0821               	movf	(___lwmod@divisor+1),w
 12163  190F  0420               	iorwf	(___lwmod@divisor),w
 12164  1910  1903               	skipnz
 12165  1911  2913               	goto	u6181
 12166  1912  2914               	goto	u6180
 12167  1913                     u6181:
 12168  1913  294A               	goto	l7848
 12169  1914                     u6180:
 12170                           	line	9
 12171                           	
 12172  1914                     l7832:	
 12173  1914  01F5               	clrf	(___lwmod@counter)
 12174  1915  1403               	bsf	status,0
 12175  1916  0DF5               	rlf	(___lwmod@counter),f
 12176                           	line	10
 12177  1917  2924               	goto	l7838
 12178                           	
 12179  1918                     l4186:	
 12180                           	line	11
 12181                           	
 12182  1918                     l7834:	
 12183  1918  3001               	movlw	01h
 12184                           	
 12185  1919                     u6195:
 12186  1919  1003               	clrc
 12187  191A  0DA0               	rlf	(___lwmod@divisor),f
 12188  191B  0DA1               	rlf	(___lwmod@divisor+1),f
 12189  191C  3EFF               	addlw	-1
 12190  191D  1D03               	skipz
 12191  191E  2919               	goto	u6195
 12192                           	line	12
 12193                           	
 12194  191F                     l7836:	
 12195  191F  3001               	movlw	(01h)
 12196  1920  00F4               	movwf	(??___lwmod+0)+0
 12197  1921  0874               	movf	(??___lwmod+0)+0,w
 12198  1922  07F5               	addwf	(___lwmod@counter),f
 12199  1923  2924               	goto	l7838
 12200                           	line	13
 12201                           	
 12202  1924                     l4185:	
 12203                           	line	10
 12204                           	
 12205  1924                     l7838:	
 12206  1924  1FA1               	btfss	(___lwmod@divisor+1),(15)&7
 12207  1925  2927               	goto	u6201
 12208  1926  2928               	goto	u6200
 12209  1927                     u6201:
 12210  1927  2918               	goto	l7834
 12211  1928                     u6200:
 12212  1928  292A               	goto	l7840
 12213                           	
 12214  1929                     l4187:	
 12215  1929  292A               	goto	l7840
 12216                           	line	14
 12217                           	
 12218  192A                     l4188:	
 12219                           	line	15
 12220                           	
 12221  192A                     l7840:	
 12222  192A  0821               	movf	(___lwmod@divisor+1),w
 12223  192B  0223               	subwf	(___lwmod@dividend+1),w
 12224  192C  1D03               	skipz
 12225  192D  2930               	goto	u6215
 12226  192E  0820               	movf	(___lwmod@divisor),w
 12227  192F  0222               	subwf	(___lwmod@dividend),w
 12228  1930                     u6215:
 12229  1930  1C03               	skipc
 12230  1931  2933               	goto	u6211
 12231  1932  2934               	goto	u6210
 12232  1933                     u6211:
 12233  1933  293B               	goto	l7844
 12234  1934                     u6210:
 12235                           	line	16
 12236                           	
 12237  1934                     l7842:	
 12238  1934  0820               	movf	(___lwmod@divisor),w
 12239  1935  02A2               	subwf	(___lwmod@dividend),f
 12240  1936  0821               	movf	(___lwmod@divisor+1),w
 12241  1937  1C03               	skipc
 12242  1938  03A3               	decf	(___lwmod@dividend+1),f
 12243  1939  02A3               	subwf	(___lwmod@dividend+1),f
 12244  193A  293B               	goto	l7844
 12245                           	
 12246  193B                     l4189:	
 12247                           	line	17
 12248                           	
 12249  193B                     l7844:	
 12250  193B  3001               	movlw	01h
 12251                           	
 12252  193C                     u6225:
 12253  193C  1003               	clrc
 12254  193D  0CA1               	rrf	(___lwmod@divisor+1),f
 12255  193E  0CA0               	rrf	(___lwmod@divisor),f
 12256  193F  3EFF               	addlw	-1
 12257  1940  1D03               	skipz
 12258  1941  293C               	goto	u6225
 12259                           	line	18
 12260                           	
 12261  1942                     l7846:	
 12262  1942  3001               	movlw	low(01h)
 12263  1943  02F5               	subwf	(___lwmod@counter),f
 12264  1944  1D03               	btfss	status,2
 12265  1945  2947               	goto	u6231
 12266  1946  2948               	goto	u6230
 12267  1947                     u6231:
 12268  1947  292A               	goto	l7840
 12269  1948                     u6230:
 12270  1948  294A               	goto	l7848
 12271                           	
 12272  1949                     l4190:	
 12273  1949  294A               	goto	l7848
 12274                           	line	19
 12275                           	
 12276  194A                     l4184:	
 12277                           	line	20
 12278                           	
 12279  194A                     l7848:	
 12280  194A  0823               	movf	(___lwmod@dividend+1),w
 12281  194B  01A1               	clrf	(?___lwmod+1)
 12282  194C  07A1               	addwf	(?___lwmod+1)
 12283  194D  0822               	movf	(___lwmod@dividend),w
 12284  194E  01A0               	clrf	(?___lwmod)
 12285  194F  07A0               	addwf	(?___lwmod)
 12286                           
 12287  1950  2951               	goto	l4191
 12288                           	
 12289  1951                     l7850:	
 12290                           	line	21
 12291                           	
 12292  1951                     l4191:	
 12293  1951  0008               	return
 12294                           	opt stack 0
 12295                           GLOBAL	__end_of___lwmod
 12296  1952                     	__end_of___lwmod:
 12297 ;; =============== function ___lwmod ends ============
 12298                           
 12299                           	signat	___lwmod,8314
 12300                           	global	___lwdiv
 12301                           psect	text916,local,class=CODE,delta=2
 12302                           global __ptext916
 12303  1952                     __ptext916:
 12304                           
 12305 ;; *************** function ___lwdiv *****************
 12306 ;; Defined at:
 12307 ;;		line 5 in file "C:\Program Files (x86)\HI-TECH Software\PICC\9.82\sources\lwdiv.c"
 12308 ;; Parameters:    Size  Location     Type
 12309 ;;  divisor         2    6[BANK0 ] unsigned int 
 12310 ;;  dividend        2    8[BANK0 ] unsigned int 
 12311 ;; Auto vars:     Size  Location     Type
 12312 ;;  quotient        2   12[BANK0 ] unsigned int 
 12313 ;;  counter         1   11[BANK0 ] unsigned char 
 12314 ;; Return value:  Size  Location     Type
 12315 ;;                  2    6[BANK0 ] unsigned int 
 12316 ;; Registers used:
 12317 ;;		wreg, status,2, status,0
 12318 ;; Tracked objects:
 12319 ;;		On entry : 0/0
 12320 ;;		On exit  : 0/0
 12321 ;;		Unchanged: 0/0
 12322 ;; Data sizes:     COMMON   BANK0   BANK1   BANK3   BANK2
 12323 ;;      Params:         0       4       0       0       0
 12324 ;;      Locals:         0       3       0       0       0
 12325 ;;      Temps:          0       1       0       0       0
 12326 ;;      Totals:         0       8       0       0       0
 12327 ;;Total ram usage:        8 bytes
 12328 ;; Hardware stack levels used:    1
 12329 ;; Hardware stack levels required when called:    1
 12330 ;; This function calls:
 12331 ;;		Nothing
 12332 ;; This function is called by:
 12333 ;;		_lcd_int
 12334 ;;		_lcd_float
 12335 ;; This function uses a non-reentrant model
 12336 ;;
 12337                           psect	text916
 12338                           	file	"C:\Program Files (x86)\HI-TECH Software\PICC\9.82\sources\lwdiv.c"
 12339                           	line	5
 12340                           	global	__size_of___lwdiv
 12341  0050                     	__size_of___lwdiv	equ	__end_of___lwdiv-___lwdiv
 12342                           	
 12343  1952                     ___lwdiv:	
 12344                           	opt	stack 3
 12345                           ; Regs used in ___lwdiv: [wreg+status,2+status,0]
 12346                           	line	9
 12347                           	
 12348  1952                     l7804:	
 12349  1952  1283               	bcf	status, 5	;RP0=0, select bank0
 12350  1953  1303               	bcf	status, 6	;RP1=0, select bank0
 12351  1954  01AC               	clrf	(___lwdiv@quotient)
 12352  1955  01AD               	clrf	(___lwdiv@quotient+1)
 12353                           	line	10
 12354                           	
 12355  1956                     l7806:	
 12356  1956  0827               	movf	(___lwdiv@divisor+1),w
 12357  1957  0426               	iorwf	(___lwdiv@divisor),w
 12358  1958  1903               	skipnz
 12359  1959  295B               	goto	u6111
 12360  195A  295C               	goto	u6110
 12361  195B                     u6111:
 12362  195B  299A               	goto	l7826
 12363  195C                     u6110:
 12364                           	line	11
 12365                           	
 12366  195C                     l7808:	
 12367  195C  01AB               	clrf	(___lwdiv@counter)
 12368  195D  1403               	bsf	status,0
 12369  195E  0DAB               	rlf	(___lwdiv@counter),f
 12370                           	line	12
 12371  195F  296C               	goto	l7814
 12372                           	
 12373  1960                     l4176:	
 12374                           	line	13
 12375                           	
 12376  1960                     l7810:	
 12377  1960  3001               	movlw	01h
 12378                           	
 12379  1961                     u6125:
 12380  1961  1003               	clrc
 12381  1962  0DA6               	rlf	(___lwdiv@divisor),f
 12382  1963  0DA7               	rlf	(___lwdiv@divisor+1),f
 12383  1964  3EFF               	addlw	-1
 12384  1965  1D03               	skipz
 12385  1966  2961               	goto	u6125
 12386                           	line	14
 12387                           	
 12388  1967                     l7812:	
 12389  1967  3001               	movlw	(01h)
 12390  1968  00AA               	movwf	(??___lwdiv+0)+0
 12391  1969  082A               	movf	(??___lwdiv+0)+0,w
 12392  196A  07AB               	addwf	(___lwdiv@counter),f
 12393  196B  296C               	goto	l7814
 12394                           	line	15
 12395                           	
 12396  196C                     l4175:	
 12397                           	line	12
 12398                           	
 12399  196C                     l7814:	
 12400  196C  1FA7               	btfss	(___lwdiv@divisor+1),(15)&7
 12401  196D  296F               	goto	u6131
 12402  196E  2970               	goto	u6130
 12403  196F                     u6131:
 12404  196F  2960               	goto	l7810
 12405  1970                     u6130:
 12406  1970  2972               	goto	l7816
 12407                           	
 12408  1971                     l4177:	
 12409  1971  2972               	goto	l7816
 12410                           	line	16
 12411                           	
 12412  1972                     l4178:	
 12413                           	line	17
 12414                           	
 12415  1972                     l7816:	
 12416  1972  3001               	movlw	01h
 12417                           	
 12418  1973                     u6145:
 12419  1973  1003               	clrc
 12420  1974  0DAC               	rlf	(___lwdiv@quotient),f
 12421  1975  0DAD               	rlf	(___lwdiv@quotient+1),f
 12422  1976  3EFF               	addlw	-1
 12423  1977  1D03               	skipz
 12424  1978  2973               	goto	u6145
 12425                           	line	18
 12426  1979  0827               	movf	(___lwdiv@divisor+1),w
 12427  197A  0229               	subwf	(___lwdiv@dividend+1),w
 12428  197B  1D03               	skipz
 12429  197C  297F               	goto	u6155
 12430  197D  0826               	movf	(___lwdiv@divisor),w
 12431  197E  0228               	subwf	(___lwdiv@dividend),w
 12432  197F                     u6155:
 12433  197F  1C03               	skipc
 12434  1980  2982               	goto	u6151
 12435  1981  2983               	goto	u6150
 12436  1982                     u6151:
 12437  1982  298B               	goto	l7822
 12438  1983                     u6150:
 12439                           	line	19
 12440                           	
 12441  1983                     l7818:	
 12442  1983  0826               	movf	(___lwdiv@divisor),w
 12443  1984  02A8               	subwf	(___lwdiv@dividend),f
 12444  1985  0827               	movf	(___lwdiv@divisor+1),w
 12445  1986  1C03               	skipc
 12446  1987  03A9               	decf	(___lwdiv@dividend+1),f
 12447  1988  02A9               	subwf	(___lwdiv@dividend+1),f
 12448                           	line	20
 12449                           	
 12450  1989                     l7820:	
 12451  1989  142C               	bsf	(___lwdiv@quotient)+(0/8),(0)&7
 12452  198A  298B               	goto	l7822
 12453                           	line	21
 12454                           	
 12455  198B                     l4179:	
 12456                           	line	22
 12457                           	
 12458  198B                     l7822:	
 12459  198B  3001               	movlw	01h
 12460                           	
 12461  198C                     u6165:
 12462  198C  1003               	clrc
 12463  198D  0CA7               	rrf	(___lwdiv@divisor+1),f
 12464  198E  0CA6               	rrf	(___lwdiv@divisor),f
 12465  198F  3EFF               	addlw	-1
 12466  1990  1D03               	skipz
 12467  1991  298C               	goto	u6165
 12468                           	line	23
 12469                           	
 12470  1992                     l7824:	
 12471  1992  3001               	movlw	low(01h)
 12472  1993  02AB               	subwf	(___lwdiv@counter),f
 12473  1994  1D03               	btfss	status,2
 12474  1995  2997               	goto	u6171
 12475  1996  2998               	goto	u6170
 12476  1997                     u6171:
 12477  1997  2972               	goto	l7816
 12478  1998                     u6170:
 12479  1998  299A               	goto	l7826
 12480                           	
 12481  1999                     l4180:	
 12482  1999  299A               	goto	l7826
 12483                           	line	24
 12484                           	
 12485  199A                     l4174:	
 12486                           	line	25
 12487                           	
 12488  199A                     l7826:	
 12489  199A  082D               	movf	(___lwdiv@quotient+1),w
 12490  199B  01A7               	clrf	(?___lwdiv+1)
 12491  199C  07A7               	addwf	(?___lwdiv+1)
 12492  199D  082C               	movf	(___lwdiv@quotient),w
 12493  199E  01A6               	clrf	(?___lwdiv)
 12494  199F  07A6               	addwf	(?___lwdiv)
 12495                           
 12496  19A0  29A1               	goto	l4181
 12497                           	
 12498  19A1                     l7828:	
 12499                           	line	26
 12500                           	
 12501  19A1                     l4181:	
 12502  19A1  0008               	return
 12503                           	opt stack 0
 12504                           GLOBAL	__end_of___lwdiv
 12505  19A2                     	__end_of___lwdiv:
 12506 ;; =============== function ___lwdiv ends ============
 12507                           
 12508                           	signat	___lwdiv,8314
 12509                           	global	___wmul
 12510                           psect	text917,local,class=CODE,delta=2
 12511                           global __ptext917
 12512  1000                     __ptext917:
 12513                           
 12514 ;; *************** function ___wmul *****************
 12515 ;; Defined at:
 12516 ;;		line 3 in file "C:\Program Files (x86)\HI-TECH Software\PICC\9.82\sources\wmul.c"
 12517 ;; Parameters:    Size  Location     Type
 12518 ;;  multiplier      2    0[BANK0 ] unsigned int 
 12519 ;;  multiplicand    2    2[BANK0 ] unsigned int 
 12520 ;; Auto vars:     Size  Location     Type
 12521 ;;  product         2    4[BANK0 ] unsigned int 
 12522 ;; Return value:  Size  Location     Type
 12523 ;;                  2    0[BANK0 ] unsigned int 
 12524 ;; Registers used:
 12525 ;;		wreg, status,2, status,0
 12526 ;; Tracked objects:
 12527 ;;		On entry : 0/0
 12528 ;;		On exit  : 0/0
 12529 ;;		Unchanged: 0/0
 12530 ;; Data sizes:     COMMON   BANK0   BANK1   BANK3   BANK2
 12531 ;;      Params:         0       4       0       0       0
 12532 ;;      Locals:         0       2       0       0       0
 12533 ;;      Temps:          0       0       0       0       0
 12534 ;;      Totals:         0       6       0       0       0
 12535 ;;Total ram usage:        6 bytes
 12536 ;; Hardware stack levels used:    1
 12537 ;; Hardware stack levels required when called:    1
 12538 ;; This function calls:
 12539 ;;		Nothing
 12540 ;; This function is called by:
 12541 ;;		_memory_fcont
 12542 ;;		_lcd_float
 12543 ;;		_seek_RSSI
 12544 ;;		_fm_serch
 12545 ;;		_main
 12546 ;; This function uses a non-reentrant model
 12547 ;;
 12548                           psect	text917
 12549                           	file	"C:\Program Files (x86)\HI-TECH Software\PICC\9.82\sources\wmul.c"
 12550                           	line	3
 12551                           	global	__size_of___wmul
 12552  002C                     	__size_of___wmul	equ	__end_of___wmul-___wmul
 12553                           	
 12554  1000                     ___wmul:	
 12555                           	opt	stack 4
 12556                           ; Regs used in ___wmul: [wreg+status,2+status,0]
 12557                           	line	4
 12558                           	
 12559  1000                     l7792:	
 12560  1000  1283               	bcf	status, 5	;RP0=0, select bank0
 12561  1001  1303               	bcf	status, 6	;RP1=0, select bank0
 12562  1002  01A4               	clrf	(___wmul@product)
 12563  1003  01A5               	clrf	(___wmul@product+1)
 12564  1004  2805               	goto	l7794
 12565                           	line	6
 12566                           	
 12567  1005                     l4168:	
 12568                           	line	7
 12569                           	
 12570  1005                     l7794:	
 12571  1005  1C20               	btfss	(___wmul@multiplier),(0)&7
 12572  1006  2808               	goto	u6071
 12573  1007  2809               	goto	u6070
 12574  1008                     u6071:
 12575  1008  280F               	goto	l4169
 12576  1009                     u6070:
 12577                           	line	8
 12578                           	
 12579  1009                     l7796:	
 12580  1009  0822               	movf	(___wmul@multiplicand),w
 12581  100A  07A4               	addwf	(___wmul@product),f
 12582  100B  1803               	skipnc
 12583  100C  0AA5               	incf	(___wmul@product+1),f
 12584  100D  0823               	movf	(___wmul@multiplicand+1),w
 12585  100E  07A5               	addwf	(___wmul@product+1),f
 12586                           	
 12587  100F                     l4169:	
 12588                           	line	9
 12589  100F  3001               	movlw	01h
 12590                           	
 12591  1010                     u6085:
 12592  1010  1003               	clrc
 12593  1011  0DA2               	rlf	(___wmul@multiplicand),f
 12594  1012  0DA3               	rlf	(___wmul@multiplicand+1),f
 12595  1013  3EFF               	addlw	-1
 12596  1014  1D03               	skipz
 12597  1015  2810               	goto	u6085
 12598                           	line	10
 12599                           	
 12600  1016                     l7798:	
 12601  1016  3001               	movlw	01h
 12602                           	
 12603  1017                     u6095:
 12604  1017  1003               	clrc
 12605  1018  0CA1               	rrf	(___wmul@multiplier+1),f
 12606  1019  0CA0               	rrf	(___wmul@multiplier),f
 12607  101A  3EFF               	addlw	-1
 12608  101B  1D03               	skipz
 12609  101C  2817               	goto	u6095
 12610                           	line	11
 12611  101D  0821               	movf	((___wmul@multiplier+1)),w
 12612  101E  0420               	iorwf	((___wmul@multiplier)),w
 12613  101F  1D03               	skipz
 12614  1020  2822               	goto	u6101
 12615  1021  2823               	goto	u6100
 12616  1022                     u6101:
 12617  1022  2805               	goto	l7794
 12618  1023                     u6100:
 12619  1023  2824               	goto	l7800
 12620                           	
 12621  1024                     l4170:	
 12622                           	line	12
 12623                           	
 12624  1024                     l7800:	
 12625  1024  0825               	movf	(___wmul@product+1),w
 12626  1025  01A1               	clrf	(?___wmul+1)
 12627  1026  07A1               	addwf	(?___wmul+1)
 12628  1027  0824               	movf	(___wmul@product),w
 12629  1028  01A0               	clrf	(?___wmul)
 12630  1029  07A0               	addwf	(?___wmul)
 12631                           
 12632  102A  282B               	goto	l4171
 12633                           	
 12634  102B                     l7802:	
 12635                           	line	13
 12636                           	
 12637  102B                     l4171:	
 12638  102B  0008               	return
 12639                           	opt stack 0
 12640                           GLOBAL	__end_of___wmul
 12641  102C                     	__end_of___wmul:
 12642 ;; =============== function ___wmul ends ============
 12643                           
 12644                           	signat	___wmul,8314
 12645                           	global	_i2c_Tx
 12646                           psect	text918,local,class=CODE,delta=2
 12647                           global __ptext918
 12648  0800                     __ptext918:
 12649                           
 12650 ;; *************** function _i2c_Tx *****************
 12651 ;; Defined at:
 12652 ;;		line 128 in file "FM_RADIO_main.c"
 12653 ;; Parameters:    Size  Location     Type
 12654 ;;  date            1    wreg     unsigned char 
 12655 ;; Auto vars:     Size  Location     Type
 12656 ;;  date            1    4[COMMON] unsigned char 
 12657 ;; Return value:  Size  Location     Type
 12658 ;;                  2  1055[COMMON] int 
 12659 ;; Registers used:
 12660 ;;		wreg
 12661 ;; Tracked objects:
 12662 ;;		On entry : 0/0
 12663 ;;		On exit  : 0/0
 12664 ;;		Unchanged: 0/0
 12665 ;; Data sizes:     COMMON   BANK0   BANK1   BANK3   BANK2
 12666 ;;      Params:         0       0       0       0       0
 12667 ;;      Locals:         1       0       0       0       0
 12668 ;;      Temps:          0       0       0       0       0
 12669 ;;      Totals:         1       0       0       0       0
 12670 ;;Total ram usage:        1 bytes
 12671 ;; Hardware stack levels used:    1
 12672 ;; Hardware stack levels required when called:    1
 12673 ;; This function calls:
 12674 ;;		Nothing
 12675 ;; This function is called by:
 12676 ;;		_i2c_byte_write
 12677 ;;		_i2c_byte_read
 12678 ;; This function uses a non-reentrant model
 12679 ;;
 12680                           psect	text918
 12681                           	file	"FM_RADIO_main.c"
 12682                           	line	128
 12683                           	global	__size_of_i2c_Tx
 12684  0017                     	__size_of_i2c_Tx	equ	__end_of_i2c_Tx-_i2c_Tx
 12685                           	
 12686  0800                     _i2c_Tx:	
 12687                           	opt	stack 3
 12688                           ; Regs used in _i2c_Tx: [wreg]
 12689                           ;i2c_Tx@date stored from wreg
 12690  0800  00F4               	movwf	(i2c_Tx@date)
 12691                           	line	129
 12692                           	
 12693  0801                     l7788:	
 12694                           ;FM_RADIO_main.c: 129: RB3 = 1;
 12695  0801  1283               	bcf	status, 5	;RP0=0, select bank0
 12696  0802  1303               	bcf	status, 6	;RP1=0, select bank0
 12697  0803  1586               	bsf	(51/8),(51)&7
 12698                           	line	130
 12699                           ;FM_RADIO_main.c: 130: SSPIF = 0;
 12700  0804  118C               	bcf	(99/8),(99)&7
 12701                           	line	131
 12702                           	
 12703  0805                     l7790:	
 12704                           ;FM_RADIO_main.c: 131: SSPBUF = date;
 12705  0805  0874               	movf	(i2c_Tx@date),w
 12706  0806  0093               	movwf	(19)	;volatile
 12707                           	line	132
 12708                           ;FM_RADIO_main.c: 132: while (BF);
 12709  0807  2808               	goto	l1056
 12710                           	
 12711  0808                     l1057:	
 12712                           	
 12713  0808                     l1056:	
 12714  0808  1683               	bsf	status, 5	;RP0=1, select bank1
 12715  0809  1303               	bcf	status, 6	;RP1=0, select bank1
 12716  080A  1814               	btfsc	(1184/8)^080h,(1184)&7
 12717  080B  280D               	goto	u6051
 12718  080C  280E               	goto	u6050
 12719  080D                     u6051:
 12720  080D  2808               	goto	l1056
 12721  080E                     u6050:
 12722  080E  2810               	goto	l1059
 12723                           	
 12724  080F                     l1058:	
 12725                           	line	133
 12726                           ;FM_RADIO_main.c: 133: while (!SSPIF);
 12727  080F  2810               	goto	l1059
 12728                           	
 12729  0810                     l1060:	
 12730                           	
 12731  0810                     l1059:	
 12732  0810  1283               	bcf	status, 5	;RP0=0, select bank0
 12733  0811  1D8C               	btfss	(99/8),(99)&7
 12734  0812  2814               	goto	u6061
 12735  0813  2815               	goto	u6060
 12736  0814                     u6061:
 12737  0814  2810               	goto	l1059
 12738  0815                     u6060:
 12739                           	
 12740  0815                     l1061:	
 12741                           	line	134
 12742                           ;FM_RADIO_main.c: 134: RB3 = 0;
 12743  0815  1186               	bcf	(51/8),(51)&7
 12744                           	line	135
 12745                           	
 12746  0816                     l1062:	
 12747  0816  0008               	return
 12748                           	opt stack 0
 12749                           GLOBAL	__end_of_i2c_Tx
 12750  0817                     	__end_of_i2c_Tx:
 12751 ;; =============== function _i2c_Tx ends ============
 12752                           
 12753                           	signat	_i2c_Tx,4218
 12754                           	global	_eeprom_write
 12755                           psect	text919,local,class=CODE,delta=2
 12756                           global __ptext919
 12757  1890                     __ptext919:
 12758                           
 12759 ;; *************** function _eeprom_write *****************
 12760 ;; Defined at:
 12761 ;;		line 7 in file "C:\Program Files (x86)\HI-TECH Software\PICC\9.82\sources\eewrite.c"
 12762 ;; Parameters:    Size  Location     Type
 12763 ;;  addr            1    wreg     unsigned char 
 12764 ;;  value           1    5[COMMON] unsigned char 
 12765 ;; Auto vars:     Size  Location     Type
 12766 ;;  addr            1    9[BANK0 ] unsigned char 
 12767 ;; Return value:  Size  Location     Type
 12768 ;;                  1    wreg      unsigned char 
 12769 ;; Registers used:
 12770 ;;		wreg, status,2, status,0
 12771 ;; Tracked objects:
 12772 ;;		On entry : 0/0
 12773 ;;		On exit  : 0/0
 12774 ;;		Unchanged: 0/0
 12775 ;; Data sizes:     COMMON   BANK0   BANK1   BANK3   BANK2
 12776 ;;      Params:         1       0       0       0       0
 12777 ;;      Locals:         0       1       0       0       0
 12778 ;;      Temps:          0       1       0       0       0
 12779 ;;      Totals:         1       2       0       0       0
 12780 ;;Total ram usage:        3 bytes
 12781 ;; Hardware stack levels used:    1
 12782 ;; Hardware stack levels required when called:    1
 12783 ;; This function calls:
 12784 ;;		Nothing
 12785 ;; This function is called by:
 12786 ;;		_memory_fcont
 12787 ;;		_seek_RSSI
 12788 ;;		_seek_SNR
 12789 ;;		_buss_boost
 12790 ;;		_main
 12791 ;; This function uses a non-reentrant model
 12792 ;;
 12793                           psect	text919
 12794                           	file	"C:\Program Files (x86)\HI-TECH Software\PICC\9.82\sources\eewrite.c"
 12795                           	line	7
 12796                           	global	__size_of_eeprom_write
 12797  0037                     	__size_of_eeprom_write	equ	__end_of_eeprom_write-_eeprom_write
 12798                           	
 12799  1890                     _eeprom_write:	
 12800                           	opt	stack 6
 12801                           ; Regs used in _eeprom_write: [wreg+status,2+status,0]
 12802                           ;eeprom_write@addr stored from wreg
 12803  1890  1283               	bcf	status, 5	;RP0=0, select bank0
 12804  1891  1303               	bcf	status, 6	;RP1=0, select bank0
 12805  1892  00A9               	movwf	(eeprom_write@addr)
 12806                           	line	8
 12807                           	
 12808  1893                     l3172:	
 12809  1893  2894               	goto	l3173
 12810                           	
 12811  1894                     l3174:	
 12812                           	
 12813  1894                     l3173:	
 12814  1894  1683               	bsf	status, 5	;RP0=1, select bank3
 12815  1895  1703               	bsf	status, 6	;RP1=1, select bank3
 12816  1896  188C               	btfsc	(3169/8)^0180h,(3169)&7
 12817  1897  2899               	goto	u6021
 12818  1898  289A               	goto	u6020
 12819  1899                     u6021:
 12820  1899  2894               	goto	l3173
 12821  189A                     u6020:
 12822  189A  289B               	goto	l7768
 12823                           	
 12824  189B                     l3175:	
 12825                           	
 12826  189B                     l7768:	
 12827  189B  1283               	bcf	status, 5	;RP0=0, select bank0
 12828  189C  1303               	bcf	status, 6	;RP1=0, select bank0
 12829  189D  0829               	movf	(eeprom_write@addr),w
 12830  189E  1283               	bcf	status, 5	;RP0=0, select bank2
 12831  189F  1703               	bsf	status, 6	;RP1=1, select bank2
 12832  18A0  008D               	movwf	(269)^0100h	;volatile
 12833  18A1  0875               	movf	(eeprom_write@value),w
 12834  18A2  008C               	movwf	(268)^0100h	;volatile
 12835                           	
 12836  18A3                     l7770:	
 12837  18A3  303F               	movlw	(03Fh)
 12838  18A4  1283               	bcf	status, 5	;RP0=0, select bank0
 12839  18A5  1303               	bcf	status, 6	;RP1=0, select bank0
 12840  18A6  00A8               	movwf	(??_eeprom_write+0)+0
 12841  18A7  0828               	movf	(??_eeprom_write+0)+0,w
 12842  18A8  1683               	bsf	status, 5	;RP0=1, select bank3
 12843  18A9  1703               	bsf	status, 6	;RP1=1, select bank3
 12844  18AA  058C               	andwf	(396)^0180h,f	;volatile
 12845                           	
 12846  18AB                     l7772:	
 12847  18AB  1283               	bcf	status, 5	;RP0=0, select bank0
 12848  18AC  1303               	bcf	status, 6	;RP1=0, select bank0
 12849  18AD  1003               	bcf	(24/8),(24)&7
 12850                           	
 12851  18AE                     l7774:	
 12852  18AE  1F8B               	btfss	(95/8),(95)&7
 12853  18AF  28B1               	goto	u6031
 12854  18B0  28B2               	goto	u6030
 12855  18B1                     u6031:
 12856  18B1  28B3               	goto	l3176
 12857  18B2                     u6030:
 12858                           	
 12859  18B2                     l7776:	
 12860  18B2  1403               	bsf	(24/8),(24)&7
 12861                           	
 12862  18B3                     l3176:	
 12863  18B3  138B               	bcf	(95/8),(95)&7
 12864  18B4  1683               	bsf	status, 5	;RP0=1, select bank3
 12865  18B5  1703               	bsf	status, 6	;RP1=1, select bank3
 12866  18B6  150C               	bsf	(3170/8)^0180h,(3170)&7
 12867                           	
 12868  18B7                     l7778:	
 12869  18B7  3055               	movlw	(055h)
 12870  18B8  008D               	movwf	(397)^0180h	;volatile
 12871  18B9  30AA               	movlw	(0AAh)
 12872  18BA  008D               	movwf	(397)^0180h	;volatile
 12873                           	
 12874  18BB                     l7780:	
 12875  18BB  148C               	bsf	(3169/8)^0180h,(3169)&7
 12876                           	
 12877  18BC                     l7782:	
 12878  18BC  110C               	bcf	(3170/8)^0180h,(3170)&7
 12879                           	
 12880  18BD                     l7784:	
 12881  18BD  1283               	bcf	status, 5	;RP0=0, select bank0
 12882  18BE  1303               	bcf	status, 6	;RP1=0, select bank0
 12883  18BF  1C03               	btfss	(24/8),(24)&7
 12884  18C0  28C2               	goto	u6041
 12885  18C1  28C3               	goto	u6040
 12886  18C2                     u6041:
 12887  18C2  28C6               	goto	l3179
 12888  18C3                     u6040:
 12889                           	
 12890  18C3                     l7786:	
 12891  18C3  178B               	bsf	(95/8),(95)&7
 12892  18C4  28C6               	goto	l3179
 12893                           	
 12894  18C5                     l3177:	
 12895  18C5  28C6               	goto	l3179
 12896                           	
 12897  18C6                     l3178:	
 12898                           	line	10
 12899                           ;	Return value of _eeprom_write is never used
 12900                           	
 12901  18C6                     l3179:	
 12902  18C6  0008               	return
 12903                           	opt stack 0
 12904                           GLOBAL	__end_of_eeprom_write
 12905  18C7                     	__end_of_eeprom_write:
 12906 ;; =============== function _eeprom_write ends ============
 12907                           
 12908                           	signat	_eeprom_write,8313
 12909                           	global	_eeprom_read
 12910                           psect	text920,local,class=CODE,delta=2
 12911                           global __ptext920
 12912  1848                     __ptext920:
 12913                           
 12914 ;; *************** function _eeprom_read *****************
 12915 ;; Defined at:
 12916 ;;		line 7 in file "eeread.c"
 12917 ;; Parameters:    Size  Location     Type
 12918 ;;  addr            1    wreg     unsigned char 
 12919 ;; Auto vars:     Size  Location     Type
 12920 ;;  addr            1    5[COMMON] unsigned char 
 12921 ;; Return value:  Size  Location     Type
 12922 ;;                  1    wreg      unsigned char 
 12923 ;; Registers used:
 12924 ;;		wreg, status,2, status,0
 12925 ;; Tracked objects:
 12926 ;;		On entry : 0/0
 12927 ;;		On exit  : 0/0
 12928 ;;		Unchanged: 0/0
 12929 ;; Data sizes:     COMMON   BANK0   BANK1   BANK3   BANK2
 12930 ;;      Params:         0       0       0       0       0
 12931 ;;      Locals:         1       0       0       0       0
 12932 ;;      Temps:          1       0       0       0       0
 12933 ;;      Totals:         2       0       0       0       0
 12934 ;;Total ram usage:        2 bytes
 12935 ;; Hardware stack levels used:    1
 12936 ;; Hardware stack levels required when called:    1
 12937 ;; This function calls:
 12938 ;;		Nothing
 12939 ;; This function is called by:
 12940 ;;		_memory_fcont
 12941 ;;		_fmIC_RS
 12942 ;;		_seek_RSSI
 12943 ;;		_seek_SNR
 12944 ;;		_buss_boost
 12945 ;;		_fm_serch
 12946 ;;		_main
 12947 ;; This function uses a non-reentrant model
 12948 ;;
 12949                           psect	text920
 12950                           	file	"C:\Program Files (x86)\HI-TECH Software\PICC\9.82\sources\eeread.c"
 12951                           	line	7
 12952                           	global	__size_of_eeprom_read
 12953  001F                     	__size_of_eeprom_read	equ	__end_of_eeprom_read-_eeprom_read
 12954                           	
 12955  1848                     _eeprom_read:	
 12956                           	opt	stack 4
 12957                           ; Regs used in _eeprom_read: [wreg+status,2+status,0]
 12958                           ;eeprom_read@addr stored from wreg
 12959                           	line	9
 12960  1848  00F5               	movwf	(eeprom_read@addr)
 12961                           	line	8
 12962                           	
 12963  1849                     l2249:	
 12964                           	line	9
 12965                           # 9 "C:\Program Files (x86)\HI-TECH Software\PICC\9.82\sources\eeread.c"
 12966  1849  0064               clrwdt ;#
 12967                           psect	text920
 12968                           	line	10
 12969  184A  1683               	bsf	status, 5	;RP0=1, select bank3
 12970  184B  1703               	bsf	status, 6	;RP1=1, select bank3
 12971  184C  188C               	btfsc	(3169/8)^0180h,(3169)&7
 12972  184D  284F               	goto	u6011
 12973  184E  2850               	goto	u6010
 12974  184F                     u6011:
 12975  184F  2849               	goto	l2249
 12976  1850                     u6010:
 12977  1850  2851               	goto	l7764
 12978                           	
 12979  1851                     l2250:	
 12980                           	line	11
 12981                           	
 12982  1851                     l7764:	
 12983  1851  0875               	movf	(eeprom_read@addr),w
 12984  1852  1283               	bcf	status, 5	;RP0=0, select bank2
 12985  1853  1703               	bsf	status, 6	;RP1=1, select bank2
 12986  1854  008D               	movwf	(269)^0100h	;volatile
 12987  1855  303F               	movlw	(03Fh)
 12988  1856  00F4               	movwf	(??_eeprom_read+0)+0
 12989  1857  0874               	movf	(??_eeprom_read+0)+0,w
 12990  1858  1683               	bsf	status, 5	;RP0=1, select bank3
 12991  1859  1703               	bsf	status, 6	;RP1=1, select bank3
 12992  185A  058C               	andwf	(396)^0180h,f	;volatile
 12993  185B  140C               	bsf	(3168/8)^0180h,(3168)&7
 12994  185C  1003               	clrc
 12995  185D  180C               	btfsc	(3168/8)^0180h,(3168)&7
 12996  185E  1403               	setc
 12997  185F  3000               	movlw	0
 12998  1860  1803               	skipnc
 12999  1861  3001               	movlw	1
 13000                           
 13001  1862  1283               	bcf	status, 5	;RP0=0, select bank2
 13002  1863  1703               	bsf	status, 6	;RP1=1, select bank2
 13003  1864  080C               	movf	(268)^0100h,w	;volatile
 13004  1865  2866               	goto	l2251
 13005                           	
 13006  1866                     l7766:	
 13007                           	line	12
 13008                           	
 13009  1866                     l2251:	
 13010  1866  0008               	return
 13011                           	opt stack 0
 13012                           GLOBAL	__end_of_eeprom_read
 13013  1867                     	__end_of_eeprom_read:
 13014 ;; =============== function _eeprom_read ends ============
 13015                           
 13016                           	signat	_eeprom_read,4217
 13017                           	global	_oscsel
 13018                           psect	text921,local,class=CODE,delta=2
 13019                           global __ptext921
 13020  1867                     __ptext921:
 13021                           
 13022 ;; *************** function _oscsel *****************
 13023 ;; Defined at:
 13024 ;;		line 95 in file "FM_RADIO_main.c"
 13025 ;; Parameters:    Size  Location     Type
 13026 ;;  sel1            2    4[COMMON] int 
 13027 ;; Auto vars:     Size  Location     Type
 13028 ;;		None
 13029 ;; Return value:  Size  Location     Type
 13030 ;;                  2    4[COMMON] int 
 13031 ;; Registers used:
 13032 ;;		wreg, fsr0l, fsr0h, status,2, status,0
 13033 ;; Tracked objects:
 13034 ;;		On entry : 0/0
 13035 ;;		On exit  : 0/0
 13036 ;;		Unchanged: 0/0
 13037 ;; Data sizes:     COMMON   BANK0   BANK1   BANK3   BANK2
 13038 ;;      Params:         2       0       0       0       0
 13039 ;;      Locals:         0       0       0       0       0
 13040 ;;      Temps:          0       0       0       0       0
 13041 ;;      Totals:         2       0       0       0       0
 13042 ;;Total ram usage:        2 bytes
 13043 ;; Hardware stack levels used:    1
 13044 ;; Hardware stack levels required when called:    1
 13045 ;; This function calls:
 13046 ;;		Nothing
 13047 ;; This function is called by:
 13048 ;;		_main
 13049 ;; This function uses a non-reentrant model
 13050 ;;
 13051                           psect	text921
 13052                           	file	"FM_RADIO_main.c"
 13053                           	line	95
 13054                           	global	__size_of_oscsel
 13055  0029                     	__size_of_oscsel	equ	__end_of_oscsel-_oscsel
 13056                           	
 13057  1867                     _oscsel:	
 13058                           	opt	stack 6
 13059                           ; Regs used in _oscsel: [wreg-fsr0h+status,2+status,0]
 13060                           	line	96
 13061                           	
 13062  1867                     l7746:	
 13063                           ;FM_RADIO_main.c: 96: switch (sel1) {
 13064  1867  287C               	goto	l7758
 13065                           	line	97
 13066                           ;FM_RADIO_main.c: 97: case 0:
 13067                           	
 13068  1868                     l1040:	
 13069                           	line	98
 13070                           	
 13071  1868                     l7748:	
 13072                           ;FM_RADIO_main.c: 98: OSCCON = 0b01100000;
 13073  1868  3060               	movlw	(060h)
 13074  1869  1683               	bsf	status, 5	;RP0=1, select bank1
 13075  186A  1303               	bcf	status, 6	;RP1=0, select bank1
 13076  186B  008F               	movwf	(143)^080h	;volatile
 13077                           	line	99
 13078                           ;FM_RADIO_main.c: 99: break;
 13079  186C  288F               	goto	l1045
 13080                           	line	100
 13081                           ;FM_RADIO_main.c: 100: case 1:
 13082                           	
 13083  186D                     l1042:	
 13084                           	line	101
 13085                           	
 13086  186D                     l7750:	
 13087                           ;FM_RADIO_main.c: 101: OSCCON = 0b00000000;
 13088  186D  1683               	bsf	status, 5	;RP0=1, select bank1
 13089  186E  1303               	bcf	status, 6	;RP1=0, select bank1
 13090  186F  018F               	clrf	(143)^080h	;volatile
 13091                           	line	102
 13092                           ;FM_RADIO_main.c: 102: break;
 13093  1870  288F               	goto	l1045
 13094                           	line	103
 13095                           ;FM_RADIO_main.c: 103: case 2:
 13096                           	
 13097  1871                     l1043:	
 13098                           	line	104
 13099                           	
 13100  1871                     l7752:	
 13101                           ;FM_RADIO_main.c: 104: OSCCON = 0b01000000;
 13102  1871  3040               	movlw	(040h)
 13103  1872  1683               	bsf	status, 5	;RP0=1, select bank1
 13104  1873  1303               	bcf	status, 6	;RP1=0, select bank1
 13105  1874  008F               	movwf	(143)^080h	;volatile
 13106                           	line	105
 13107                           ;FM_RADIO_main.c: 105: break;
 13108  1875  288F               	goto	l1045
 13109                           	line	106
 13110                           ;FM_RADIO_main.c: 106: case 3:
 13111                           	
 13112  1876                     l1044:	
 13113                           	line	107
 13114                           	
 13115  1876                     l7754:	
 13116                           ;FM_RADIO_main.c: 107: OSCCON = 0b00110000;
 13117  1876  3030               	movlw	(030h)
 13118  1877  1683               	bsf	status, 5	;RP0=1, select bank1
 13119  1878  1303               	bcf	status, 6	;RP1=0, select bank1
 13120  1879  008F               	movwf	(143)^080h	;volatile
 13121                           	line	108
 13122                           ;FM_RADIO_main.c: 108: break;
 13123  187A  288F               	goto	l1045
 13124                           	line	109
 13125                           	
 13126  187B                     l7756:	
 13127                           ;FM_RADIO_main.c: 109: }
 13128  187B  288F               	goto	l1045
 13129                           	line	96
 13130                           	
 13131  187C                     l1039:	
 13132                           	
 13133  187C                     l7758:	
 13134                           	; Switch on 2 bytes has been partitioned into a top level switch of size 1, and 1 sub-s
                                 witches
 13135                           ; Switch size 1, requested type "space"
 13136                           ; Number of cases is 1, Range of values is 0 to 0
 13137                           ; switch strategies available:
 13138                           ; Name         Instructions Cycles
 13139                           ; simple_byte            4     3 (average)
 13140                           ; direct_byte           11     8 (fixed)
 13141                           ; jumptable            260     6 (fixed)
 13142                           ; rangetable             5     6 (fixed)
 13143                           ; spacedrange            8     9 (fixed)
 13144                           ; locatedrange           1     3 (fixed)
 13145                           ;	Chosen strategy is simple_byte
 13146                           
 13147  187C  0875               	movf (oscsel@sel1+1),w
 13148                           	opt asmopt_off
 13149  187D  3A00               	xorlw	0^0	; case 0
 13150  187E  1903               	skipnz
 13151  187F  2881               	goto	l8856
 13152  1880  288F               	goto	l1045
 13153                           	opt asmopt_on
 13154                           	
 13155  1881                     l8856:	
 13156                           ; Switch size 1, requested type "space"
 13157                           ; Number of cases is 4, Range of values is 0 to 3
 13158                           ; switch strategies available:
 13159                           ; Name         Instructions Cycles
 13160                           ; simple_byte           13     7 (average)
 13161                           ; direct_byte           20     8 (fixed)
 13162                           ; jumptable            260     6 (fixed)
 13163                           ; rangetable             8     6 (fixed)
 13164                           ; spacedrange           14     9 (fixed)
 13165                           ; locatedrange           4     3 (fixed)
 13166                           ;	Chosen strategy is simple_byte
 13167                           
 13168  1881  0874               	movf (oscsel@sel1),w
 13169                           	opt asmopt_off
 13170  1882  3A00               	xorlw	0^0	; case 0
 13171  1883  1903               	skipnz
 13172  1884  2868               	goto	l7748
 13173  1885  3A01               	xorlw	1^0	; case 1
 13174  1886  1903               	skipnz
 13175  1887  286D               	goto	l7750
 13176  1888  3A03               	xorlw	2^1	; case 2
 13177  1889  1903               	skipnz
 13178  188A  2871               	goto	l7752
 13179  188B  3A01               	xorlw	3^2	; case 3
 13180  188C  1903               	skipnz
 13181  188D  2876               	goto	l7754
 13182  188E  288F               	goto	l1045
 13183                           	opt asmopt_on
 13184                           
 13185                           	line	109
 13186                           	
 13187  188F                     l1041:	
 13188                           	line	110
 13189                           	
 13190  188F                     l1045:	
 13191  188F  0008               	return
 13192                           	opt stack 0
 13193                           GLOBAL	__end_of_oscsel
 13194  1890                     	__end_of_oscsel:
 13195 ;; =============== function _oscsel ends ============
 13196                           
 13197                           	signat	_oscsel,4218
 13198                           	global	_InterTimer
 13199                           psect	text922,local,class=CODE,delta=2
 13200                           global __ptext922
 13201  181A                     __ptext922:
 13202                           
 13203 ;; *************** function _InterTimer *****************
 13204 ;; Defined at:
 13205 ;;		line 88 in file "FM_RADIO_main.c"
 13206 ;; Parameters:    Size  Location     Type
 13207 ;;		None
 13208 ;; Auto vars:     Size  Location     Type
 13209 ;;		None
 13210 ;; Return value:  Size  Location     Type
 13211 ;;		None               void
 13212 ;; Registers used:
 13213 ;;		status,2
 13214 ;; Tracked objects:
 13215 ;;		On entry : 0/0
 13216 ;;		On exit  : 0/0
 13217 ;;		Unchanged: 0/0
 13218 ;; Data sizes:     COMMON   BANK0   BANK1   BANK3   BANK2
 13219 ;;      Params:         0       0       0       0       0
 13220 ;;      Locals:         0       0       0       0       0
 13221 ;;      Temps:          4       0       0       0       0
 13222 ;;      Totals:         4       0       0       0       0
 13223 ;;Total ram usage:        4 bytes
 13224 ;; Hardware stack levels used:    1
 13225 ;; This function calls:
 13226 ;;		Nothing
 13227 ;; This function is called by:
 13228 ;;		Interrupt level 1
 13229 ;; This function uses a non-reentrant model
 13230 ;;
 13231                           psect	text922
 13232                           	file	"FM_RADIO_main.c"
 13233                           	line	88
 13234                           	global	__size_of_InterTimer
 13235  0013                     	__size_of_InterTimer	equ	__end_of_InterTimer-_InterTimer
 13236                           	
 13237  181A                     _InterTimer:	
 13238                           	opt	stack 2
 13239                           ; Regs used in _InterTimer: [status,2]
 13240                           psect	intentry,class=CODE,delta=2
 13241                           global __pintentry
 13242  0004                     __pintentry:
 13243                           global interrupt_function
 13244  0004                     interrupt_function:
 13245                           	global saved_w
 13246  007E                     	saved_w	set	btemp+0
 13247  0004  00FE               	movwf	saved_w
 13248  0005  0E03               	swapf	status,w
 13249  0006  00F0               	movwf	(??_InterTimer+0)
 13250  0007  0804               	movf	fsr0,w
 13251  0008  00F1               	movwf	(??_InterTimer+1)
 13252  0009  080A               	movf	pclath,w
 13253  000A  00F2               	movwf	(??_InterTimer+2)
 13254  000B  1283               	bcf	status, 5	;RP0=0, select bank0
 13255  000C  1303               	bcf	status, 6	;RP1=0, select bank0
 13256  000D  087F               	movf	btemp+1,w
 13257  000E  00F3               	movwf	(??_InterTimer+3)
 13258  000F  160A  158A  281A   	ljmp	_InterTimer
 13259                           psect	text922
 13260                           	line	89
 13261                           	
 13262  181A                     i1l4728:	
 13263                           ;FM_RADIO_main.c: 89: if (TMR1IF == 1) {
 13264  181A  1C0C               	btfss	(96/8),(96)&7
 13265  181B  281D               	goto	u1_21
 13266  181C  281E               	goto	u1_20
 13267  181D                     u1_21:
 13268  181D  2822               	goto	i1l1036
 13269  181E                     u1_20:
 13270                           	line	90
 13271                           	
 13272  181E                     i1l4730:	
 13273                           ;FM_RADIO_main.c: 90: TMR1ON_Flag = 0 ;
 13274  181E  01F6               	clrf	(_TMR1ON_Flag)
 13275  181F  01F7               	clrf	(_TMR1ON_Flag+1)
 13276                           	line	91
 13277                           	
 13278  1820                     i1l4732:	
 13279                           ;FM_RADIO_main.c: 91: TMR1IF = 0 ;
 13280  1820  100C               	bcf	(96/8),(96)&7
 13281  1821  2822               	goto	i1l1036
 13282                           	line	92
 13283                           	
 13284  1822                     i1l1035:	
 13285                           	line	93
 13286                           	
 13287  1822                     i1l1036:	
 13288  1822  0873               	movf	(??_InterTimer+3),w
 13289  1823  00FF               	movwf	btemp+1
 13290  1824  0872               	movf	(??_InterTimer+2),w
 13291  1825  008A               	movwf	pclath
 13292  1826  0871               	movf	(??_InterTimer+1),w
 13293  1827  0084               	movwf	fsr0
 13294  1828  0E70               	swapf	(??_InterTimer+0)^0FFFFFF80h,w
 13295  1829  0083               	movwf	status
 13296  182A  0EFE               	swapf	saved_w,f
 13297  182B  0E7E               	swapf	saved_w,w
 13298  182C  0009               	retfie
 13299                           	opt stack 0
 13300                           GLOBAL	__end_of_InterTimer
 13301  182D                     	__end_of_InterTimer:
 13302 ;; =============== function _InterTimer ends ============
 13303                           
 13304                           	signat	_InterTimer,88
 13305                           psect	text923,local,class=CODE,delta=2
 13306                           global __ptext923
 13307  0000                     __ptext923:
 13308                           	global	btemp
 13309  007E                     	btemp set 07Eh
 13310                           
 13311                           	DABS	1,126,2	;btemp
 13312                           	global	wtemp0
 13313  007E                     	wtemp0 set btemp


HI-TECH Software PICC Macro Assembler V9.82 build 9453 
Symbol Table                                                                                   Thu Aug 24 12:54:33 2017

         ??_fm_fcon_write 0037                        _BF 04A0                        _RD 0C60  
                      _WR 0C61              ___awdiv@sign 0025       ___wmul@multiplicand 0022  
              i2c_Tx@date 0074                       _GIE 005F                       _RA1 0029  
                     _RA2 002A                       _RA3 002B                       _RC1 0039  
                     _RB3 0033                       _RD0 0040                       _RA6 002E  
                     _RC5 003D                       _RD4 0044                       _RC6 003E  
                     _PEN 048A                       _SEN 0488               lcd_int@cnt1 0032  
       memory_fcont@fcont 002E               fm_serch@sel 0042                       fsr0 0004  
                     indf 0000              ___awmod@sign 0025              lcd_int@LCD_1 0039  
            lcd_int@LCD_2 0037                      l1102 08EA                      l1040 1868  
                    l1112 1DC0                      l1200 0B75                      l1041 188F  
                    l1105 1847                      l1121 14DB                      l1042 186D  
                    l1050 1BCE                      l1130 15CC                      l1122 14DB  
                    l1210 0BFE                      l1202 0B74                      l1043 1871  
                    l1051 1B82                      l1115 1EBD                      l1131 15C4  
                    l1123 14EA                      l1211 0BFC                      l1203 0B7D  
                    l1044 1876                      l1060 0810                      l1052 1BBD  
                    l1108 07FC                      l1132 15C4                      l1124 15CC  
                    l1140 1349                      l1220 0FD7                      l1204 0BFF  
                    l1212 0BF6                      l1300 03AD                      l1045 188F  
                    l1061 0815                      l1053 1BD7                      l1109 07FC  
                    l1133 15CB                      l1125 14EB                      l1141 1442  
                    l1221 0D6A                      l1213 0BF6                      l1205 0BDF  
                    l1301 03B3                      l1062 0816                      l1070 18FF  
                    l1118 1A00                      l1134 15DB                      l1126 158A  
                    l1150 1441                      l1142 134A                      l1230 11AE  
                    l1222 0FD7                      l1214 0BFB                      l1206 0BED  
                    l1310 04F4                      l1302 0405                      l1039 187C  
                    l1071 1904                      l1135 165A                      l1127 1582  
                    l1151 1451                      l1143 1400                      l1231 1227  
                    l1223 0E00                      l1215 0BFD                      l1207 0BE7  
                    l1303 0524                      l1311 04FE                      l1056 0808  
                    l1048 1BBF                      l1072 190B                      l1080 1A8D  
                    l1128 1582                      l1152 14B8                      l1144 13F8  
                    l1160 172F                      l1240 12DB                      l1232 11E7  
                    l1224 0FD6                      l1216 0C14                      l1208 0BE7  
                    l1320 0744                      l1312 0523                      l1304 04FA  
                    l1057 0808                      l1049 1B53                      l1065 18CB  
                    l1081 1A9A                      l1129 1589                      l1145 13F8  
                    l1161 1727                      l1241 1309                      l1233 11DF  
                    l1225 0FD5                      l1217 0C13                      l1209 0BEC  
                    l1305 0452                      l1058 080F                      l1066 18CB  
                    l1090 1AC0                      l1082 1A9A                      l1146 13FF  
                    l1138 133A                      l1162 1727                      l1242 1309  
                    l1234 120A                      l1226 0FFF                      l1218 0C1D  
                    l1322 0631                      l1314 051C                      l1306 04D7  
                    l1250 10F4                      l1059 0810                      l1067 18D0  
                    l1091 1AC0                      l1083 1A9F                      l1075 1A6F  
                    l1147 1442                      l1139 133A                      l1163 172E  
                    l1155 16BF                      l1243 1310                      l1235 1201  
                    l1219 0CD9                      l1323 0654                      l1315 058D  
                    l1307 04EB                      l1251 10F8                      l1068 18F8  
                    l1092 1AC4                      l1084 1AAA                      l1076 1A6F  
                    l1148 143A                      l1164 178B                      l1156 16BF  
                    l1244 1317                      l1180 0A91                      l1172 0C14  
                    l1324 0743                      l1316 061C                      l1252 0582  
                    l1308 04FA                      l1260 1F6C                      l1069 18FF  
                    l1093 1AC6                      l1085 1AAA                      l1077 1A74  
                    l1149 143A                      l1165 1783                      l1157 16CE  
                    l1237 12DA                      l1229 12B5                      l1181 0AD3  
                    l1173 090D                      l1325 0763                      l1317 0616  
                    l1261 003F                      l1253 1EBE                      l1094 1AC6  
                    l1086 1AAE                      l1078 1A88                      l1166 1783  
                    l1158 178B                      l1190 0B58                      l1182 0AB8  
                    l1174 0A42                      l1326 0764                      l1318 0616  
                    l1270 0057                      l1262 1F8D                      l1254 1F5C  
                    l1095 1ACB                      l1087 1AB0                      l1079 1A88  
                    l1167 178A                      l1159 16CF                      l1239 12D3  
                    l1191 0B3D                      l1183 0AC5                      l1175 0A42  
                    l1327 0765                      l1319 061B                      l1271 0057  
                    l1263 001C                      l1255 1EBF                      l1247 10EA  
                    l1096 1ADB                      l1088 1AB0                      l1168 1798  
                    l1192 0B4A                      l1184 0AD2                      l1176 0A51  
                    l1328 0765                      l1248 0626                      l1272 01CD  
                    l1280 016A                      l1264 0015                      l1256 1F19  
                    l1089 1AB5                      l1169 17FF                      l1193 0B57  
                    l1177 0B67                      l1281 01BF                      l1273 0163  
                    l1265 0015                      l1257 1F47                      l1249 10F4  
                    l2250 1851                      l1186 0AE0                      l1178 0A52  
                    l1282 028B                      l1274 00A6                      l1266 001C  
                    l2251 1866                      l1099 1CC6                      l1195 0B65  
                    l1187 0AE1                      l1179 0AE1                      l1291 02A1  
                    l1283 01F2                      l1275 0157                      l1267 002E  
                    l1259 1F6B                      l1188 0B67                      l1196 0B66  
                    l1292 02A1                      l1284 0268                      l1276 0157  
                    l1268 003E                      l1189 0B16                      l1293 0413  
                    l1285 0261                      l1277 0162                      l1198 0B7C  
                    l1294 03AC                      l1286 0261                      l1278 0164  
                    l1295 02F0                      l1287 0268                      l1279 0164  
                    l1296 03A1                      l1288 027A                      l2249 1849  
                    l1297 03A1                      l1289 028A                      l1298 03AB  
                    l1299 03AD                      l3172 1893                      l3173 1894  
                    l3174 1894                      l4310 1B40                      l3175 189B  
                    l4311 1B12                      l3176 18B3                      l4312 1B06  
                    l3177 18C5                      l4313 1B17                      l3178 18C6  
                    l4170 1024                      l4314 1B18                      l3179 18C6  
                    l4171 102B                      l4315 1B31                      l4180 1999  
                    l4316 1B3F                      l4308 1AEC                      l4181 19A1  
                    l4317 1B4A                      l4309 1AFA                      l4174 199A  
                    l4190 1949                      l4318 1B51                      l4175 196C  
                    l4191 1951                      l4168 1005                      l4176 1960  
                    l4184 194A                      l4169 100F                      l4177 1971  
                    l4185 1924                      l4178 1972                      l4186 1918  
                    l4179 198B                      l4187 1929                      l4188 192A  
                    l4380 1A25                      l4189 193B                      l4381 1A36  
                    l4382 1A37                      l4383 1A48                      l4384 1A56  
                    l4376 1A11                      l8000 1C2F                      l4385 1A61  
                    l4377 1A1B                      l4386 1A68                      l4378 1A57  
                    l8010 1CA7                      l8002 1C44                      l4379 1A31  
                    l8012 1CBB                      l8004 1C59                      l8020 0833  
                    l8100 15B0                      l8006 1C7D                      l8030 08BA  
                    l8022 084B                      l8014 0817                      l8102 15D2  
                    l8110 1340                      l8008 1C92                      l8032 08D2  
                    l8024 0863                      l8016 081A                      l8040 07A4  
                    l8104 15D6                      l8120 13BE                      l8112 1344  
                    l8200 1191                      l8026 087B                      l8018 0823  
                    l8034 1830                      l8042 07DC                      l8050 1D34  
                    l8106 15DB                      l8130 1400                      l8122 13C9  
                    l8114 134A                      l8210 11C5                      l8202 119F  
                    l8028 089F                      l8044 07E5                      l8036 0768  
                    l8060 1D90                      l8052 1D40                      l8140 1448  
                    l8132 140B                      l8124 13CF                      l8116 1396  
                    l8108 1318                      l8220 120A                      l8212 11CC  
                    l8204 11AE                      l8300 0B6F                      l8038 0798  
                    l8062 1DA8                      l8054 1D4C                      l8046 1CC7  
                    l8070 14B9                      l8142 144C                      l8134 1411  
                    l8126 13DC                      l8118 13A9                      l8150 1688  
                    l8222 1215                      l8214 11D9                      l8206 11B4  
                    l8230 12B5                      l8310 0BE6                      l8302 0B75  
                    l8056 1D60                      l8048 1D28                      l8064 1DC1  
                    l8080 1533                      l8072 14E1                      l8144 1451  
                    l8136 141E                      l8128 13E4                      l8160 16CF  
                    l8152 169E                      l8232 12C3                      l8216 11EE  
                    l8208 11C1                      l8224 1227                      l8320 0C1F  
                    l8312 0BF1                      l8304 0B7D                      l8240 08EB  
                    l8400 105F                      l8058 1D78                      l8066 19A2  
                    l8090 156E                      l8082 1548                      l8074 14E5  
                    l8138 1426                      l8170 1703                      l8162 16D8  
                    l8154 16AA                      l8146 165B                      l8234 12DB  
                    l8226 1231                      l8218 11FB                      l8330 0C90  
                    l8322 0C25                      l8306 0B83                      l8314 0BFF  
                    l8250 0A52                      l8242 08F1                      l8410 106E  
                    l8402 1060                      l8068 19CA                      l8092 158A  
                    l8084 1553                      l8076 14EB                      l8180 1742  
                    l8172 1710                      l8164 16DE                      l8156 16C5  
                    l8148 1675                      l8236 1310                      l8228 127F  
                    l8340 0D6A                      l8332 0CA8                      l8324 0C57  
                    l8316 0C0C                      l8308 0BDF                      l8260 0AA6  
                    l8252 0A5A                      l8244 090D                      l8500 1FD1  
                    l8420 1077                      l8412 106F                      l8404 1064  
                    l8094 1595                      l8086 1559                      l8078 1520  
                    l8190 1793                      l8182 1744                      l8166 16E4  
                    l8174 172F                      l8158 16C9                      l8238 1317  
                    l8350 0EBD                      l8342 0D73                      l8334 0CC0  
                    l8326 0C6A                      l8318 0C1D                      l8270 0ACD  
                    l8262 0ABC                      l8254 0A60                      l8246 0A48  
                    l8510 0027                      l8502 1FD7                      l8430 10D5  
                    l8422 1080                      l8414 1072                      l8406 1068  
                    l7800 1024                      l8096 159B                      l8088 1566  
                    l8192 1798                      l8184 175F                      l8176 1738  
                    l8168 16E8                      l8360 0F12                      l8352 0EC2  
                    l8344 0DFA                      l8328 0C7B                      l8336 0CD9  
                    l8280 0B16                      l8264 0AC0                      l8272 0AD3  
                    l8256 0A6D                      l8248 0A4C                      l8600 0257  
                    l8520 0045                      l8512 002E                      l8504 1FDB  
                    l8440 110D                      l8432 10EA                      l8424 1083  
                    l8416 1075                      l8408 106A                      l7802 102B  
                    l7810 1960                      l8098 15A8                      l8186 176C  
                    l8178 173E                      l8194 1185                      l8370 0F87  
                    l8362 0F2A                      l8354 0ED1                      l8346 0E00  
                    l8338 0CE2                      l8290 0B4E                      l8282 0B2B  
                    l8274 0AD9                      l8266 0AC5                      l8258 0A91  
                    l8610 0283                      l8602 026C                      l8530 0089  
                    l8522 005A                      l8514 0033                      l8506 1FF4  
                    l8450 1142                      l8442 1113                      l8434 10F3  
                    l8426 1097                      l8418 1076                      l7820 1989  
                    l7812 1967                      l7804 1952                      l7900 1A1B  
                    l8188 178F                      l8196 118B                      l8380 0FFA  
                    l8372 0F9F                      l8364 0F42                      l8356 0EE5  
                    l8348 0E09                      l8292 0B52                      l8284 0B41  
                    l8276 0AE5                      l8268 0AC9                      l8700 04BC  
                    l8620 02BC                      l8604 0273                      l8612 028B  
                    l8540 00CC                      l8532 0090                      l8524 0063  
                    l8516 0037                      l8508 0020                      l8460 1EC8  
                    l8452 115F                      l8444 1118                      l8436 10F9  
                    l8428 10AB                      l7750 186D                      l7822 198B  
                    l7814 196C                      l7806 1956                      l7830 190C  
                    l7910 1A37                      l7902 1A21                      l8198 118D  
                    l8374 0FB7                      l8366 0F5A                      l8358 0EFA  
                    l8286 0B45                      l8294 0B58                      l8278 0AF2  
                    l8710 04EB                      l8702 04CD                      l8630 02F0  
                    l8622 02CB                      l8614 0291                      l8606 027A  
                    l8550 015D                      l8542 00F1                      l8534 009D  
                    l8526 0072                      l8518 003F                      l8470 1F50  
                    l8462 1ECB                      l8454 1170                      l8446 111D  
                    l8438 1102                      l8390 1053                      l8382 102C  
                    l7752 1871                      l7824 1992                      l7816 1972  
                    l7808 195C                      l7840 192A                      l7832 1914  
                    l7920 1A5B                      l7912 1A41                      l7904 1A25  
                    l8376 0FCF                      l8368 0F6F                      l8296 0B5E  
                    l8288 0B4A                      l8800 0744                      l8720 050E  
                    l8712 04F0                      l8704 04D7                      l8640 0391  
                    l8632 02F9                      l8624 02D3                      l8616 02A4  
                    l8608 027F                      l8560 018B                      l8552 016A  
                    l8544 0119                      l8536 00A6                      l8528 0081  
                    l8480 1F6C                      l8472 1F54                      l8464 1EED  
                    l8456 1175                      l8448 1125                      l8392 1056  
                    l8384 1036                      l7754 1876                      l7746 1867  
                    l7770 18A3                      l7818 1983                      l7826 199A  
                    l7850 1951                      l7842 1934                      l7834 1918  
                    l7922 1A61                      l7914 1A48                      l7906 1A2C  
                    l7930 1B82                      l8378 0FE6                      l8298 0B6B  
                    l8810 0756                      l8802 074D                      l8730 054A  
                    l8722 0512                      l8714 04F9                      l8706 04DD  
                    l8650 03C1                      l8642 039A                      l8634 0316  
                    l8626 02DA                      l8618 02AD                      l8570 01C8  
                    l8562 0195                      l8554 0175                      l8546 0147  
                    l8538 00AF                      l8490 1F86                      l8482 1F75  
                    l8466 1F19                      l8458 1EBF                      l8474 1F5C  
                    l8394 1057                      l8386 1038                      l7756 187B  
                    l7748 1868                      l7764 1851                      l7780 18BB  
                    l7772 18AB                      l7828 19A1                      l7844 193B  
                    l7836 191F                      l7860 1AF5                      l7852 1ADC  
                    l7924 1A68                      l7916 1A4F                      l7908 1A31  
                    l7932 1BBE                      l8812 0759                      l8804 0750  
                    l8740 0596                      l8732 0567                      l8724 051C  
                    l8716 04FF                      l8708 04E4                      l8660 03E7  
                    l8652 03C8                      l8644 03A6                      l8636 033B  
                    l8628 02E7                      l8580 01E6                      l8564 019B  
                    l8556 017B                      l8548 014D                      l8572 01CD  
                    l8492 1F95                      l8484 1F7B                      l8476 1F62  
                    l8468 1F47                      l8396 105B                      l8388 104A  
                    l7758 187C                      l7766 1866                      l7782 18BC  
                    l7774 18AE                      l7790 0805                      l7846 1942  
                    l7838 1924                      l7870 1B0D                      l7862 1AFA  
                    l7854 1AE3                      l7918 1A57                      l7934 1BBF  
                    l7926 1B52                      l7950 18F1                      l8806 0751  
                    l8750 05A3                      l8742 0599                      l8734 0578  
                    l8718 0508                      l8726 0524                      l8670 0420  
                    l8654 03D1                      l8662 0405                      l8646 03B3  
                    l8638 0363                      l8590 0207                      l8582 01EA  
                    l8574 01D1                      l8566 01A1                      l8558 0182  
                    l8494 1F9B                      l8486 1F81                      l8478 1F66  
                    l8398 105D                      l7784 18BD                      l7776 18B2  
                    l7768 189B                      l7792 1000                      l7848 194A  
                    l7880 1B31                      l7872 1B12                      l7864 1AFC  
                    l7856 1AEC                      l7936 1BCE                      l7928 1B53  
                    l7952 18F8                      l7944 18C7                      l7960 1A6D  
                    l8808 0752                      l8752 05AC                      l8744 059A  
                    l8728 052D                      l8680 0440                      l8672 0429  
                    l8664 040E                      l8656 03DB                      l8648 03BB  
                    l8592 021C                      l8584 01EE                      l8576 01DA  
                    l8568 01BF                      l8496 1FA4                      l8488 1F85  
                    l8736 0582                      l8760 0626                      l7786 18C3  
                    l7778 18B7                      l7794 1005                      l7890 1B51  
                    l7882 1B38                      l7874 1B18                      l7866 1B02  
                    l7858 1AF0                      l7938 1BD7                      l7954 18FB  
                    l7946 18D0                      l7970 1A9F                      l7962 1A74  
                    l8770 0645                      l8762 062C                      l8754 060E  
                    l8746 059E                      l8738 058D                      l8690 045C  
                    l8682 0446                      l8674 042F                      l8658 03E1  
                    l8666 0413                      l8594 0234                      l8586 01F8  
                    l8578 01E0                      l8498 1FB9                      l7788 0801  
                    l7796 1009                      l7876 1B29                      l7868 1B06  
                    l7884 1B40                      l7892 1A01                      l7956 1904  
                    l7948 18E8                      l7980 1ABE                      l7972 1AA5  
                    l7964 1A84                      l8780 0664                      l8772 064B  
                    l8764 0631                      l8756 0612                      l8748 05A0  
                    l8692 0465                      l8684 044C                      l8676 0433  
                    l8668 0417                      l8596 023A                      l8588 01FE  
                    l7798 1016                      l7886 1B44                      l7878 1B2F  
                    l7894 1A08                      l8854 1BC6                      l7982 1ACB  
                    l7974 1AA8                      l7966 1A8D                      l7958 1A69  
                    l7990 1BDB                      l8790 06D9                      l8782 0679  
                    l8774 0650                      l8766 0639                      l8758 061C  
                    l8694 046B                      l8686 0450                      l8678 0437  
                    l8598 023E                      l8856 1881                      l7888 1B4A  
                    l7896 1A11                      l7984 1ACD                      l7976 1AB5  
                    l7968 1A96                      l7992 1BE4                      l8792 06F1  
                    l8784 0691                      l8768 063C                      l8776 0654  
                    l8696 0482                      l8688 0456                      l7898 1A15  
                    l7986 1ADB                      l7978 1ABB                      l7994 1BF0  
                    l8794 0709                      l8786 06A9                      l8778 065B  
                    l8698 049F                      l7996 1C05                      l7988 1BD8  
                    l8796 0721                      l8788 06C1                      l7998 1C1A  
                    l8798 0739                      u6010 1850                      u6011 184F  
                    u6020 189A                      u6100 1023                      u6021 1899  
                    u6101 1022              fm_serch@RSSI 0052                      u6030 18B2  
                    u6110 195C                      u6031 18B1                      u6111 195B  
                    u6040 18C3                      u6200 1928                      u6041 18C2  
                    u6201 1927                      u6050 080E                      u6130 1970  
                    u6210 1934                      u6051 080D                      u6131 196F  
                    u6211 1933                      _PEIE 005E                      u6060 0815  
                    u6300 1B29                      u7100 0A60                      u6061 0814  
                    u6125 1961                      u6301 1B28                      u7005 124E  
                    u7101 0A5F                      u6070 1009                      u6150 1983  
                    u6230 1948                      u7030 12C3                      u7110 0A6D  
                    u6071 1008                      u6151 1982                      u6231 1947  
                    u6215 1930                      u7031 12C2                      u7015 126C  
                    u7111 0A6C                      u6320 1B3E                      u6240 1AE3  
                    u7040 12D3                      u7200 0B41                      u7120 0ABC  
                    u8000 051B                      u6145 1973                      u6225 193C  
                    u6321 1B3D                      u6305 1B25                      u6241 1AE2  
                    u7041 12D2                      u7025 1298                      u7201 0B40  
                    u7121 0ABB                      u8001 051A                      u6170 1998  
                    u6330 1B44                      u6250 1AF0                      u6410 1A55  
                    u7050 12D9                      u7210 0B45                      u7130 0AC0  
                    u8010 058C                      u6171 1997                      u6155 197F  
                    u6315 1B32                      u6251 1AEF                      u6411 1A54  
                    u7051 12D8                      u7035 12BF                      u7211 0B44  
                    u7131 0ABF                      u7115 0A69                      u8011 0589  
                    u6180 1914                      u6260 1B02                      u6420 1A5B  
                    u6340 1A08                      u6500 1AB4                      u7060 130F  
                    u7300 0B83                      u7220 0B4E                      u7140 0AC9  
                    u8020 05AC                      _RCEN 048B                      u6085 1010  
                    u6165 198C                      u6181 1913                      u6261 1B01  
                    u6405 1A49                      u6341 1A07                      u6501 1AB3  
                    u7061 130E                      u7045 12CF                      u7301 0B82  
                    u7221 0B4D                      u7141 0AC8                      u8021 05AB  
                    u6350 1A15                      u6430 18CF                      u6510 1AC4  
                    u7310 0BE5                      u7230 0B52                      u7150 0ACD  
                    u7070 0A48                      u8030 061A                      u6095 1017  
                    u6351 1A14                      u6431 18CE                      u6511 1AC3  
                    u7311 0BE4                      u7231 0B51                      u7151 0ACC  
                    u7071 0A47                      u8031 0619                      u6280 1B16  
                    u6360 1A21                      u6440 18F1                      u6520 1ACA  
                    u6600 1559                      u7400 0E09                      u7320 0BEB  
                    u7240 0B5E                      u7160 0AD9                      u7080 0A4C  
                    u8040 062C                      u6281 1B15                      u6361 1A20  
                    u6441 18F0                      u6521 1AC9                      u6601 1558  
                    u7401 0E08                      u7321 0BEA                      u7241 0B5D  
                    u7161 0AD8                      u7081 0A4B                      u8041 062B  
                    u6450 1903                      u6530 07E5                      u6610 1566  
                    u7330 0BF1                      u7250 0B64                      u7170 0ADF  
                    u7090 0A50                      u8050 0630                      u7410 10F2  
                    u6195 1919                      u6275 1B07                      u6451 1902  
                    u6531 07E4                      u6611 1565                      u7331 0BF0  
                    u7251 0B63                      u7171 0ADE                      u7091 0A4F  
                    u8051 062F                      u8107 0424                      u7411 10EF  
                    u6380 1A35                      u6460 1A73                      u6620 1588  
                    u6700 1344                      u7340 0BFA                      u7260 0B6B  
                    u7180 0AE5                      u8060 0639                      u7500 0020  
                    u7420 10F8                      u6381 1A34                      u6461 1A72  
                    u6621 1587                      u6701 1343                      u7341 0BF9  
                    u7261 0B6A                      u7181 0AE4                      u8117 0A56  
                    u8061 0638                      u7501 001F                      u7421 10F7  
                    u6390 1A41                      u6470 1A8C                      u6630 159B  
                    u6710 1348                      u7350 0C0C                      u7270 0B6F  
                    u7190 0AF2                      u8070 065B                      u7510 0027  
                    u7430 1EED                      u6295 1B19                      u6391 1A40  
                    u6375 1A26                      u6471 1A8B                      u6631 159A  
                    u8207 1590                      u6615 1562                      u6711 1347  
                    u8127 0ECA                      u7351 0C0B                      u7271 0B6E  
                    u7191 0AF1                      u8071 0658                      u7511 0026  
                    u7431 1EEC                      u6480 1A9E                      u6640 15A8  
                    u6560 14E1                      u6800 1448                      u7360 0C1C  
                    u7280 0B73                      u7600 009D                      u7520 0033  
                    u7440 1F62                      u6481 1A9D                      u8217 081E  
                    u6545 19B5                      u6641 15A7                      u6561 14E0  
                    u6801 1447                      u8137 0FDF                      u7361 0C1B  
                    u7281 0B72                      u7601 009C                      u7521 0032  
                    u7441 1F61                      u6490 1AAE                      u6650 15CA  
                    u6570 14E5                      u6810 144C                      u7370 0C25  
                    u7290 0B7B                      u7610 015D                      u7530 0037  
                    u7450 1F66                      u6395 1A3D                      u6491 1AAD  
                    u8227 082C                      u6555 19DE                      u6651 15C9  
                    u6571 14E4                      u6811 144B                      u8147 122D  
                    u7371 0C24                      u7355 0C08                      u7291 0B7A  
                    u7195 0AEE                      u7611 015C                      u7531 0036  
                    u7451 1F65                      u6660 15D2                      u6580 14E9  
                    u6820 1450                      u6740 13CF                      u6900 1742  
                    u7380 0CE2                      u7700 026C                      u7620 0161  
                    u7540 0045                      u7460 1F6A                      u8237 1BDF  
                    u6661 15D1                      u6645 15A4                      u6581 14E8  
                    u6821 144F                      u6741 13CE                      u6725 1365  
                    u8157 16D3                      u7381 0CE1                      u7701 026B  
                    u7621 0160                      u7605 0099                      u7541 0044  
                    u7461 1F69                      u6670 15D6                      u6750 13DC  
                    u6910 1789                      u6830 16C5                      u7390 0D73  
                    u7710 0273                      u7630 0169                      u7550 0056  
                    u7470 1F95                      u8247 1BEB                      u6671 15D5  
                    u6751 13DB                      u6735 1383                      u6911 1788  
                    u8167 1733                      u6831 16C4                      u7391 0D72  
                    u7711 0272                      u7631 0168                      u7551 0053  
                    u7471 1F92                      u8087 1108                      u6680 15DA  
                    u6760 13FE                      u6920 178F                      u6840 16C9  
                    u7800 02E7                      u7720 027F                      u7640 0175  
                    u7560 0072                      u7480 1F9B                      u8257 1C76  
                    u6681 15D9                      u6761 13FD                      u8177 13C4  
                    u6921 178E                      u6841 16C8                      u7801 02E6  
                    u7721 027E                      u7641 0174                      u7561 0071  
                    u7481 1F9A                      u8097 1F58                      u6770 1411  
                    u6690 1340                      u6930 1793                      u6850 16CD  
                    u7810 03A6                      u7730 0283                      u7650 017B  
                    u7570 0081                      u7490 001B                      u8267 1CC1  
                    u6595 1504                      u6771 1410                      u8187 1406  
                    u6755 13D8                      u6691 133F                      u6931 1792  
                    u6851 16CC                      u7811 03A5                      u7731 0282  
                    u7651 017A                      u7571 0080                      u7555 0050  
                    u7491 001A                      u6780 141E                      u6940 1797  
                    u6860 16DE                      u7900 0456                      u7820 03AA  
                    u7740 0291                      u7660 0182                      u7580 0089  
                    u8277 1908                      u8197 154E                      u6781 141D  
                    u6941 1796                      u6861 16DD                      u7901 0455  
                    u7821 03A9                      u7805 02E3                      u7741 0290  
                    u7661 0181                      u7581 0088                      u7565 006E  
                    u6790 1440                      u6870 16E4                      u6950 11C1  
                    u7910 045C                      u7830 03B2                      u7750 02A0  
                    u7670 01F8                      u7590 0090                      u6791 143F  
                    u6871 16E3                      u6951 11C0                      u7911 045B  
                    u7831 03B1                      u7751 029F                      u7671 01F7  
                    u7591 008F                      u7575 007D                      u6880 172D  
                    u6960 11CC                      u7920 04DD                      u7840 03BB  
                    u7760 02BC                      u7680 01FE                      u6785 141A  
                    u6881 172C                      u6961 11CB                      u7921 04DC  
                    u7841 03BA                      u7761 02BB                      u7681 01FD  
                    u6890 173E                      u6970 11D9                      u7930 04E4  
                    u7850 03C1                      u7770 02CB                      u7690 0267  
                    u6891 173D                      u6971 11D8                      u6955 11BD  
                    u7931 04E3                      u7851 03C0                      u7771 02CA  
                    u7755 029C                      u7691 0266                      u6980 11EE  
                    u7940 04F0                      u7860 03C8                      u7780 02D3  
                    u6981 11ED                      u7941 04EF                      u7861 03C7  
                    u7781 02D2                      u7765 02B8                      u6990 11FB  
                    u7950 04F4                      u7870 042F                      u7790 02DA  
                    u6991 11FA                      u6975 11D5                      u7951 04F3  
                    u7871 042E                      u7791 02D9                      u7775 02C7  
                    u7960 04F8                      u7880 0433                      u7961 04F7  
                    u7881 0432                      u7970 04FE                      u7890 0437  
                    u6995 11F7                      u7971 04FD                      u7891 0436  
                    u7980 050E                      u7981 050D                      u7990 0512  
                    u7991 0511                      _RSEN 0489                      _WREN 0C62  
           _i2c_byte_read 1A69            ??_eeprom_write 0028                      u1_20 181E  
                    u1_21 181D              fm_serch@fcon 0044              fm_serch@endf 0054  
                    _main 102C                      btemp 007E                      start 0012  
           lcd_float@cnt1 0037                     ?_main 0070                     _ACKEN 048C  
                   _ACKDT 048D           __end_of_fmIC_RS 08EB           __end_of___awdiv 1B52  
                   _EEADR 010D           __end_of___awmod 1A69                     _CARRY 0018  
                   _ANSEL 0188           ___awdiv@divisor 0020                     _T1CON 0010  
         __end_of___lwdiv 19A2           __end_of___lwmod 1952           ___awdiv@counter 0024  
                   _TMR1H 000F                     _TMR1L 000E                     _TRISA 0085  
                   _TRISB 0086                     _TRISC 0087                     _TRISD 0088  
                   _SSPIF 0063           __end_of_fmNo_in 1000            _i2c_byte_write 18C7  
         __end_of_lcd_int 07FD                     main@c 00A8            ?_i2c_byte_read 0026  
                   pclath 000A                     status 0003                     wtemp0 007E  
           seek_RSSI@RSSI 0041              __end_of_main 0768           _start_LCD_POINT 1DC1  
           seek_RSSI@endf 003F                    ??_main 005A                _InterTimer 181A  
          lcd_float@LCD_1 003E            lcd_float@LCD_2 003C            lcd_float@LCD_3 0040  
  __end_of_i2c_byte_write 190C          __end_of_fmIC_VOL 1848                    _EEDATA 010C  
                  _EECON1 018C                    _EECON2 018D          ___awdiv@dividend 0022  
                  _ANSELH 0189                    i1l1035 1822                    i1l1036 1822  
                  i1l4730 181E                    i1l4732 1820                    i1l4728 181A  
                  _OSCCON 008F                    _TMR1IE 0460                    _TMR1IF 0060  
                  _TMR1ON 0080                    _SSPADD 0093                    _SSPCON 0014  
                  _SSPBUF 0013            lcd_int@charadd 0030                    _i2c_Tx 0800  
    __size_of_eeprom_read 001F          __end_of_fm_serch 1318            fm_serch@memSNR 0050  
                  ___wmul 1000                 ??_fmIC_RS 0027                 ??___awdiv 0074  
               ??___awmod 0074                    _lcd_RS 1BD8                 ??___lwdiv 002A  
               ??___lwmod 0074                 ??_fmNo_in 004D          ___awdiv@quotient 0026  
         ___awmod@divisor 0020                    _oscsel 1867      __end_of_eeprom_write 18C7  
        __end_of_seek_SNR 14B9           ___awmod@counter 0024                 ??_lcd_int 0034  
         ?_i2c_byte_write 0020              __pdataCOMMON 0078             ?_memory_fcont 002A  
                  saved_w 007E           ??_i2c_byte_read 002A           eeprom_read@addr 0075  
 __end_of_start_LCD_POINT 1EBE           memory_fcont@add 002C           memory_fcont@sel 002A  
          __pcstackCOMMON 0070               seek_SNR@SNR 0047               ?_InterTimer 0070  
          ??_memory_fcont 0030         eeprom_write@value 0075        __size_of_lcd_float 00FA  
                 ?_i2c_Tx 0070                __pmaintext 102C        __size_of_seek_RSSI 01A2  
     i2c_byte_read@regadd 0029                   ?___wmul 0020                   ?_lcd_RS 0070  
              __pintentry 0004     __end_of_fm_fcon_write 1A01                 ?_fmIC_VOL 0070  
                 ?_oscsel 0074           fm_serch@aSERC_1 0058                 ?_fm_serch 0042  
                 _SSPSTAT 0094          ?_start_LCD_POINT 0070                 ?_seek_SNR 0070  
     __size_of_InterTimer 0013           __size_of_i2c_Tx 0017         __end_of_lcd_float 1DC1  
              _buss_boost 165B     __size_of_eeprom_write 0037                   _fmIC_RS 0817  
                 ___awdiv 1ADC                   ___awmod 1A01           __size_of___wmul 002C  
         fm_serch@endrssi 0056                   ___lwdiv 1952                   ___lwmod 190C  
         __size_of_lcd_RS 00EF                ??_fmIC_VOL 0027                   _fmNo_in 08EB  
         __size_of_oscsel 0029                   _lcd_int 0768                fmNo_in@okf 0050  
        ___awmod@dividend 0022         __end_of_seek_RSSI 165B                   main@LIP 00A6  
                 main@DWf 00AC                   main@UPf 00AA                ??_fm_serch 0046  
    end_of_initialization 1816              _eeprom_write 1890                ??_seek_SNR 003B  
    __end_of_memory_fcont 1BD8          ??_i2c_byte_write 0026          memory_fcont@fcon 0033  
              lcd_int@sel 002E             ??_eeprom_read 0074            __end_of_i2c_Tx 0817  
             ?_buss_boost 0070            __end_of___wmul 102C             __pidataCOMMON 07FD  
          __end_of_lcd_RS 1CC7              ??_InterTimer 0070            __end_of_oscsel 1890  
     start_initialization 1808              seek_SNR@endf 0045     __end_of_i2c_byte_read 1ADC  
             fmIC_VOL@vol 002A                  ??_i2c_Tx 0074        __end_of_InterTimer 182D  
                ??___wmul 0076       __end_of_eeprom_read 1867       i2c_byte_write@date1 0024  
     i2c_byte_write@date2 0025                  ??_lcd_RS 0027                  ??_oscsel 0076  
       __size_of_fmIC_VOL 001B               __pbssCOMMON 0076             __pcstackBANK0 0020  
           __pcstackBANK1 00A0       __size_of_buss_boost 01A5          eeprom_write@addr 0029  
   __size_of_memory_fcont 0086         __size_of_fm_serch 0193          ___lwdiv@dividend 0028  
  i2c_byte_read@read_data 002C         __size_of_seek_SNR 01A1                  ?_fmIC_RS 0070  
                ?___awdiv 0020                  ?___awmod 0020                 __ptext900 165B  
               __ptext901 1318                 __ptext910 1A69                 __ptext902 14B9  
               __ptext911 18C7                 __ptext903 19A2                 __ptext920 1848  
               __ptext912 1B52                 __ptext904 1DC1                 __ptext921 1867  
               __ptext913 1A01                 __ptext905 1CC7                 __ptext922 181A  
               __ptext914 1ADC                 __ptext906 0768                 __ptext923 0000  
               __ptext915 190C                 __ptext907 182D                 __ptext916 1952  
               __ptext908 0817                 __ptext917 1000                 __ptext909 1BD8  
               __ptext918 0800                 __ptext919 1890                 __ptext898 08EB  
               __ptext899 1185                  ?___lwdiv 0026                  ?___lwmod 0020  
        lcd_float@charadd 0035                  ?_fmNo_in 0049                 _lcd_float 1CC7  
            fmNo_in@fcont 004B                  ?_lcd_int 002E              _memory_fcont 1B52  
        ___lwdiv@quotient 002C                 _seek_RSSI 14B9    __size_of_fm_fcon_write 005F  
       interrupt_function 0004            ___wmul@product 0024                oscsel@sel1 0074  
             _eeprom_read 1848        fm_fcon_write@fconv 0035  __size_of_start_LCD_POINT 00FD  
               main@FMVOL 00B2                ?_lcd_float 0035         ___wmul@multiplier 0020  
              ?_seek_RSSI 0070              ??_buss_boost 0042          __size_of_fmIC_RS 00D4  
        __size_of___awdiv 0076          __size_of___awmod 0068                  _fmIC_VOL 182D  
           _fm_fcon_write 19A2          __size_of___lwdiv 0050          __size_of___lwmod 0046  
        __size_of_fmNo_in 0715          __size_of_lcd_int 0095           ___lwdiv@divisor 0026  
         ___lwdiv@counter 002B                  _fcont_pp 0078                  _fm_serch 1185  
             fmNo_in@fmNo 0049               fmNo_in@fcon 0052               fmNo_in@endf 0054  
      __end_of_buss_boost 1800             __size_of_main F73C                  _seek_SNR 1318  
         buss_boost@boost 0046            ?_fm_fcon_write 0035                  main@cnt1 00B0  
                main@fmNo 00B4               ??_lcd_float 0039         ??_start_LCD_POINT 0027  
 __size_of_i2c_byte_write 0045         i2c_byte_write@add 0022         i2c_byte_write@cmd 0023  
       i2c_byte_write@sel 0020                  intlevel1 0000               _TMR1ON_Flag 0076  
             ??_seek_RSSI 003B          i2c_byte_read@add 0028             main@MAIN_STAT 00A2  
        i2c_byte_read@sel 0026          ___lwmod@dividend 0022    __size_of_i2c_byte_read 0073  
            main@MAIN_CON 00A4           ___lwmod@divisor 0020           ___lwmod@counter 0075  
           ?_eeprom_write 0075              ?_eeprom_read 0070              main@VOL_STAT 00AE  
             main@PW_STAT 00A0  
